
pcb.elf:     file format elf32-littlearm

Sections:
Idx Name          Size      VMA       LMA       File off  Algn
  0 .isr_vector   000001c4  08000000  08000000  00010000  2**0
                  CONTENTS, ALLOC, LOAD, READONLY, DATA
  1 .text         00008920  080001d0  080001d0  000101d0  2**4
                  CONTENTS, ALLOC, LOAD, READONLY, CODE
  2 .rodata       00000210  08008af0  08008af0  00018af0  2**2
                  CONTENTS, ALLOC, LOAD, READONLY, DATA
  3 .ARM.extab    00000000  08008d00  08008d00  0002007c  2**0
                  CONTENTS
  4 .ARM          00000008  08008d00  08008d00  00018d00  2**2
                  CONTENTS, ALLOC, LOAD, READONLY, DATA
  5 .preinit_array 00000000  08008d08  08008d08  0002007c  2**0
                  CONTENTS, ALLOC, LOAD, DATA
  6 .init_array   00000004  08008d08  08008d08  00018d08  2**2
                  CONTENTS, ALLOC, LOAD, DATA
  7 .fini_array   00000004  08008d0c  08008d0c  00018d0c  2**2
                  CONTENTS, ALLOC, LOAD, DATA
  8 .data         0000007c  20000000  08008d10  00020000  2**2
                  CONTENTS, ALLOC, LOAD, DATA
  9 .bss          0000f744  20000080  08008d8c  00020080  2**3
                  ALLOC
 10 ._user_heap_stack 00000604  2000f7c4  08008d8c  0002f7c4  2**0
                  ALLOC
 11 .ARM.attributes 00000030  00000000  00000000  0002007c  2**0
                  CONTENTS, READONLY
 12 .debug_info   00014862  00000000  00000000  000200ac  2**0
                  CONTENTS, READONLY, DEBUGGING, OCTETS
 13 .debug_abbrev 00002931  00000000  00000000  0003490e  2**0
                  CONTENTS, READONLY, DEBUGGING, OCTETS
 14 .debug_aranges 00001228  00000000  00000000  00037240  2**3
                  CONTENTS, READONLY, DEBUGGING, OCTETS
 15 .debug_ranges 00001128  00000000  00000000  00038468  2**3
                  CONTENTS, READONLY, DEBUGGING, OCTETS
 16 .debug_macro  00023966  00000000  00000000  00039590  2**0
                  CONTENTS, READONLY, DEBUGGING, OCTETS
 17 .debug_line   000157ae  00000000  00000000  0005cef6  2**0
                  CONTENTS, READONLY, DEBUGGING, OCTETS
 18 .debug_str    000d7656  00000000  00000000  000726a4  2**0
                  CONTENTS, READONLY, DEBUGGING, OCTETS
 19 .comment      00000050  00000000  00000000  00149cfa  2**0
                  CONTENTS, READONLY
 20 .debug_frame  00005144  00000000  00000000  00149d4c  2**2
                  CONTENTS, READONLY, DEBUGGING, OCTETS

Disassembly of section .text:

080001d0 <__do_global_dtors_aux>:
 80001d0:	b510      	push	{r4, lr}
 80001d2:	4c05      	ldr	r4, [pc, #20]	; (80001e8 <__do_global_dtors_aux+0x18>)
 80001d4:	7823      	ldrb	r3, [r4, #0]
 80001d6:	b933      	cbnz	r3, 80001e6 <__do_global_dtors_aux+0x16>
 80001d8:	4b04      	ldr	r3, [pc, #16]	; (80001ec <__do_global_dtors_aux+0x1c>)
 80001da:	b113      	cbz	r3, 80001e2 <__do_global_dtors_aux+0x12>
 80001dc:	4804      	ldr	r0, [pc, #16]	; (80001f0 <__do_global_dtors_aux+0x20>)
 80001de:	f3af 8000 	nop.w
 80001e2:	2301      	movs	r3, #1
 80001e4:	7023      	strb	r3, [r4, #0]
 80001e6:	bd10      	pop	{r4, pc}
 80001e8:	20000080 	.word	0x20000080
 80001ec:	00000000 	.word	0x00000000
 80001f0:	08008ad8 	.word	0x08008ad8

080001f4 <frame_dummy>:
 80001f4:	b508      	push	{r3, lr}
 80001f6:	4b03      	ldr	r3, [pc, #12]	; (8000204 <frame_dummy+0x10>)
 80001f8:	b11b      	cbz	r3, 8000202 <frame_dummy+0xe>
 80001fa:	4903      	ldr	r1, [pc, #12]	; (8000208 <frame_dummy+0x14>)
 80001fc:	4803      	ldr	r0, [pc, #12]	; (800020c <frame_dummy+0x18>)
 80001fe:	f3af 8000 	nop.w
 8000202:	bd08      	pop	{r3, pc}
 8000204:	00000000 	.word	0x00000000
 8000208:	20000084 	.word	0x20000084
 800020c:	08008ad8 	.word	0x08008ad8

08000210 <strlen>:
 8000210:	4603      	mov	r3, r0
 8000212:	f813 2b01 	ldrb.w	r2, [r3], #1
 8000216:	2a00      	cmp	r2, #0
 8000218:	d1fb      	bne.n	8000212 <strlen+0x2>
 800021a:	1a18      	subs	r0, r3, r0
 800021c:	3801      	subs	r0, #1
 800021e:	4770      	bx	lr

08000220 <memchr>:
 8000220:	f001 01ff 	and.w	r1, r1, #255	; 0xff
 8000224:	2a10      	cmp	r2, #16
 8000226:	db2b      	blt.n	8000280 <memchr+0x60>
 8000228:	f010 0f07 	tst.w	r0, #7
 800022c:	d008      	beq.n	8000240 <memchr+0x20>
 800022e:	f810 3b01 	ldrb.w	r3, [r0], #1
 8000232:	3a01      	subs	r2, #1
 8000234:	428b      	cmp	r3, r1
 8000236:	d02d      	beq.n	8000294 <memchr+0x74>
 8000238:	f010 0f07 	tst.w	r0, #7
 800023c:	b342      	cbz	r2, 8000290 <memchr+0x70>
 800023e:	d1f6      	bne.n	800022e <memchr+0xe>
 8000240:	b4f0      	push	{r4, r5, r6, r7}
 8000242:	ea41 2101 	orr.w	r1, r1, r1, lsl #8
 8000246:	ea41 4101 	orr.w	r1, r1, r1, lsl #16
 800024a:	f022 0407 	bic.w	r4, r2, #7
 800024e:	f07f 0700 	mvns.w	r7, #0
 8000252:	2300      	movs	r3, #0
 8000254:	e8f0 5602 	ldrd	r5, r6, [r0], #8
 8000258:	3c08      	subs	r4, #8
 800025a:	ea85 0501 	eor.w	r5, r5, r1
 800025e:	ea86 0601 	eor.w	r6, r6, r1
 8000262:	fa85 f547 	uadd8	r5, r5, r7
 8000266:	faa3 f587 	sel	r5, r3, r7
 800026a:	fa86 f647 	uadd8	r6, r6, r7
 800026e:	faa5 f687 	sel	r6, r5, r7
 8000272:	b98e      	cbnz	r6, 8000298 <memchr+0x78>
 8000274:	d1ee      	bne.n	8000254 <memchr+0x34>
 8000276:	bcf0      	pop	{r4, r5, r6, r7}
 8000278:	f001 01ff 	and.w	r1, r1, #255	; 0xff
 800027c:	f002 0207 	and.w	r2, r2, #7
 8000280:	b132      	cbz	r2, 8000290 <memchr+0x70>
 8000282:	f810 3b01 	ldrb.w	r3, [r0], #1
 8000286:	3a01      	subs	r2, #1
 8000288:	ea83 0301 	eor.w	r3, r3, r1
 800028c:	b113      	cbz	r3, 8000294 <memchr+0x74>
 800028e:	d1f8      	bne.n	8000282 <memchr+0x62>
 8000290:	2000      	movs	r0, #0
 8000292:	4770      	bx	lr
 8000294:	3801      	subs	r0, #1
 8000296:	4770      	bx	lr
 8000298:	2d00      	cmp	r5, #0
 800029a:	bf06      	itte	eq
 800029c:	4635      	moveq	r5, r6
 800029e:	3803      	subeq	r0, #3
 80002a0:	3807      	subne	r0, #7
 80002a2:	f015 0f01 	tst.w	r5, #1
 80002a6:	d107      	bne.n	80002b8 <memchr+0x98>
 80002a8:	3001      	adds	r0, #1
 80002aa:	f415 7f80 	tst.w	r5, #256	; 0x100
 80002ae:	bf02      	ittt	eq
 80002b0:	3001      	addeq	r0, #1
 80002b2:	f415 3fc0 	tsteq.w	r5, #98304	; 0x18000
 80002b6:	3001      	addeq	r0, #1
 80002b8:	bcf0      	pop	{r4, r5, r6, r7}
 80002ba:	3801      	subs	r0, #1
 80002bc:	4770      	bx	lr
 80002be:	bf00      	nop

080002c0 <__aeabi_uldivmod>:
 80002c0:	b953      	cbnz	r3, 80002d8 <__aeabi_uldivmod+0x18>
 80002c2:	b94a      	cbnz	r2, 80002d8 <__aeabi_uldivmod+0x18>
 80002c4:	2900      	cmp	r1, #0
 80002c6:	bf08      	it	eq
 80002c8:	2800      	cmpeq	r0, #0
 80002ca:	bf1c      	itt	ne
 80002cc:	f04f 31ff 	movne.w	r1, #4294967295	; 0xffffffff
 80002d0:	f04f 30ff 	movne.w	r0, #4294967295	; 0xffffffff
 80002d4:	f000 b974 	b.w	80005c0 <__aeabi_idiv0>
 80002d8:	f1ad 0c08 	sub.w	ip, sp, #8
 80002dc:	e96d ce04 	strd	ip, lr, [sp, #-16]!
 80002e0:	f000 f806 	bl	80002f0 <__udivmoddi4>
 80002e4:	f8dd e004 	ldr.w	lr, [sp, #4]
 80002e8:	e9dd 2302 	ldrd	r2, r3, [sp, #8]
 80002ec:	b004      	add	sp, #16
 80002ee:	4770      	bx	lr

080002f0 <__udivmoddi4>:
 80002f0:	e92d 47f0 	stmdb	sp!, {r4, r5, r6, r7, r8, r9, sl, lr}
 80002f4:	9d08      	ldr	r5, [sp, #32]
 80002f6:	4604      	mov	r4, r0
 80002f8:	468e      	mov	lr, r1
 80002fa:	2b00      	cmp	r3, #0
 80002fc:	d14d      	bne.n	800039a <__udivmoddi4+0xaa>
 80002fe:	428a      	cmp	r2, r1
 8000300:	4694      	mov	ip, r2
 8000302:	d969      	bls.n	80003d8 <__udivmoddi4+0xe8>
 8000304:	fab2 f282 	clz	r2, r2
 8000308:	b152      	cbz	r2, 8000320 <__udivmoddi4+0x30>
 800030a:	fa01 f302 	lsl.w	r3, r1, r2
 800030e:	f1c2 0120 	rsb	r1, r2, #32
 8000312:	fa20 f101 	lsr.w	r1, r0, r1
 8000316:	fa0c fc02 	lsl.w	ip, ip, r2
 800031a:	ea41 0e03 	orr.w	lr, r1, r3
 800031e:	4094      	lsls	r4, r2
 8000320:	ea4f 481c 	mov.w	r8, ip, lsr #16
 8000324:	0c21      	lsrs	r1, r4, #16
 8000326:	fbbe f6f8 	udiv	r6, lr, r8
 800032a:	fa1f f78c 	uxth.w	r7, ip
 800032e:	fb08 e316 	mls	r3, r8, r6, lr
 8000332:	ea41 4303 	orr.w	r3, r1, r3, lsl #16
 8000336:	fb06 f107 	mul.w	r1, r6, r7
 800033a:	4299      	cmp	r1, r3
 800033c:	d90a      	bls.n	8000354 <__udivmoddi4+0x64>
 800033e:	eb1c 0303 	adds.w	r3, ip, r3
 8000342:	f106 30ff 	add.w	r0, r6, #4294967295	; 0xffffffff
 8000346:	f080 811f 	bcs.w	8000588 <__udivmoddi4+0x298>
 800034a:	4299      	cmp	r1, r3
 800034c:	f240 811c 	bls.w	8000588 <__udivmoddi4+0x298>
 8000350:	3e02      	subs	r6, #2
 8000352:	4463      	add	r3, ip
 8000354:	1a5b      	subs	r3, r3, r1
 8000356:	b2a4      	uxth	r4, r4
 8000358:	fbb3 f0f8 	udiv	r0, r3, r8
 800035c:	fb08 3310 	mls	r3, r8, r0, r3
 8000360:	ea44 4403 	orr.w	r4, r4, r3, lsl #16
 8000364:	fb00 f707 	mul.w	r7, r0, r7
 8000368:	42a7      	cmp	r7, r4
 800036a:	d90a      	bls.n	8000382 <__udivmoddi4+0x92>
 800036c:	eb1c 0404 	adds.w	r4, ip, r4
 8000370:	f100 33ff 	add.w	r3, r0, #4294967295	; 0xffffffff
 8000374:	f080 810a 	bcs.w	800058c <__udivmoddi4+0x29c>
 8000378:	42a7      	cmp	r7, r4
 800037a:	f240 8107 	bls.w	800058c <__udivmoddi4+0x29c>
 800037e:	4464      	add	r4, ip
 8000380:	3802      	subs	r0, #2
 8000382:	ea40 4006 	orr.w	r0, r0, r6, lsl #16
 8000386:	1be4      	subs	r4, r4, r7
 8000388:	2600      	movs	r6, #0
 800038a:	b11d      	cbz	r5, 8000394 <__udivmoddi4+0xa4>
 800038c:	40d4      	lsrs	r4, r2
 800038e:	2300      	movs	r3, #0
 8000390:	e9c5 4300 	strd	r4, r3, [r5]
 8000394:	4631      	mov	r1, r6
 8000396:	e8bd 87f0 	ldmia.w	sp!, {r4, r5, r6, r7, r8, r9, sl, pc}
 800039a:	428b      	cmp	r3, r1
 800039c:	d909      	bls.n	80003b2 <__udivmoddi4+0xc2>
 800039e:	2d00      	cmp	r5, #0
 80003a0:	f000 80ef 	beq.w	8000582 <__udivmoddi4+0x292>
 80003a4:	2600      	movs	r6, #0
 80003a6:	e9c5 0100 	strd	r0, r1, [r5]
 80003aa:	4630      	mov	r0, r6
 80003ac:	4631      	mov	r1, r6
 80003ae:	e8bd 87f0 	ldmia.w	sp!, {r4, r5, r6, r7, r8, r9, sl, pc}
 80003b2:	fab3 f683 	clz	r6, r3
 80003b6:	2e00      	cmp	r6, #0
 80003b8:	d14a      	bne.n	8000450 <__udivmoddi4+0x160>
 80003ba:	428b      	cmp	r3, r1
 80003bc:	d302      	bcc.n	80003c4 <__udivmoddi4+0xd4>
 80003be:	4282      	cmp	r2, r0
 80003c0:	f200 80f9 	bhi.w	80005b6 <__udivmoddi4+0x2c6>
 80003c4:	1a84      	subs	r4, r0, r2
 80003c6:	eb61 0303 	sbc.w	r3, r1, r3
 80003ca:	2001      	movs	r0, #1
 80003cc:	469e      	mov	lr, r3
 80003ce:	2d00      	cmp	r5, #0
 80003d0:	d0e0      	beq.n	8000394 <__udivmoddi4+0xa4>
 80003d2:	e9c5 4e00 	strd	r4, lr, [r5]
 80003d6:	e7dd      	b.n	8000394 <__udivmoddi4+0xa4>
 80003d8:	b902      	cbnz	r2, 80003dc <__udivmoddi4+0xec>
 80003da:	deff      	udf	#255	; 0xff
 80003dc:	fab2 f282 	clz	r2, r2
 80003e0:	2a00      	cmp	r2, #0
 80003e2:	f040 8092 	bne.w	800050a <__udivmoddi4+0x21a>
 80003e6:	eba1 010c 	sub.w	r1, r1, ip
 80003ea:	ea4f 471c 	mov.w	r7, ip, lsr #16
 80003ee:	fa1f fe8c 	uxth.w	lr, ip
 80003f2:	2601      	movs	r6, #1
 80003f4:	0c20      	lsrs	r0, r4, #16
 80003f6:	fbb1 f3f7 	udiv	r3, r1, r7
 80003fa:	fb07 1113 	mls	r1, r7, r3, r1
 80003fe:	ea40 4101 	orr.w	r1, r0, r1, lsl #16
 8000402:	fb0e f003 	mul.w	r0, lr, r3
 8000406:	4288      	cmp	r0, r1
 8000408:	d908      	bls.n	800041c <__udivmoddi4+0x12c>
 800040a:	eb1c 0101 	adds.w	r1, ip, r1
 800040e:	f103 38ff 	add.w	r8, r3, #4294967295	; 0xffffffff
 8000412:	d202      	bcs.n	800041a <__udivmoddi4+0x12a>
 8000414:	4288      	cmp	r0, r1
 8000416:	f200 80cb 	bhi.w	80005b0 <__udivmoddi4+0x2c0>
 800041a:	4643      	mov	r3, r8
 800041c:	1a09      	subs	r1, r1, r0
 800041e:	b2a4      	uxth	r4, r4
 8000420:	fbb1 f0f7 	udiv	r0, r1, r7
 8000424:	fb07 1110 	mls	r1, r7, r0, r1
 8000428:	ea44 4401 	orr.w	r4, r4, r1, lsl #16
 800042c:	fb0e fe00 	mul.w	lr, lr, r0
 8000430:	45a6      	cmp	lr, r4
 8000432:	d908      	bls.n	8000446 <__udivmoddi4+0x156>
 8000434:	eb1c 0404 	adds.w	r4, ip, r4
 8000438:	f100 31ff 	add.w	r1, r0, #4294967295	; 0xffffffff
 800043c:	d202      	bcs.n	8000444 <__udivmoddi4+0x154>
 800043e:	45a6      	cmp	lr, r4
 8000440:	f200 80bb 	bhi.w	80005ba <__udivmoddi4+0x2ca>
 8000444:	4608      	mov	r0, r1
 8000446:	eba4 040e 	sub.w	r4, r4, lr
 800044a:	ea40 4003 	orr.w	r0, r0, r3, lsl #16
 800044e:	e79c      	b.n	800038a <__udivmoddi4+0x9a>
 8000450:	f1c6 0720 	rsb	r7, r6, #32
 8000454:	40b3      	lsls	r3, r6
 8000456:	fa22 fc07 	lsr.w	ip, r2, r7
 800045a:	ea4c 0c03 	orr.w	ip, ip, r3
 800045e:	fa20 f407 	lsr.w	r4, r0, r7
 8000462:	fa01 f306 	lsl.w	r3, r1, r6
 8000466:	431c      	orrs	r4, r3
 8000468:	40f9      	lsrs	r1, r7
 800046a:	ea4f 491c 	mov.w	r9, ip, lsr #16
 800046e:	fa00 f306 	lsl.w	r3, r0, r6
 8000472:	fbb1 f8f9 	udiv	r8, r1, r9
 8000476:	0c20      	lsrs	r0, r4, #16
 8000478:	fa1f fe8c 	uxth.w	lr, ip
 800047c:	fb09 1118 	mls	r1, r9, r8, r1
 8000480:	ea40 4101 	orr.w	r1, r0, r1, lsl #16
 8000484:	fb08 f00e 	mul.w	r0, r8, lr
 8000488:	4288      	cmp	r0, r1
 800048a:	fa02 f206 	lsl.w	r2, r2, r6
 800048e:	d90b      	bls.n	80004a8 <__udivmoddi4+0x1b8>
 8000490:	eb1c 0101 	adds.w	r1, ip, r1
 8000494:	f108 3aff 	add.w	sl, r8, #4294967295	; 0xffffffff
 8000498:	f080 8088 	bcs.w	80005ac <__udivmoddi4+0x2bc>
 800049c:	4288      	cmp	r0, r1
 800049e:	f240 8085 	bls.w	80005ac <__udivmoddi4+0x2bc>
 80004a2:	f1a8 0802 	sub.w	r8, r8, #2
 80004a6:	4461      	add	r1, ip
 80004a8:	1a09      	subs	r1, r1, r0
 80004aa:	b2a4      	uxth	r4, r4
 80004ac:	fbb1 f0f9 	udiv	r0, r1, r9
 80004b0:	fb09 1110 	mls	r1, r9, r0, r1
 80004b4:	ea44 4101 	orr.w	r1, r4, r1, lsl #16
 80004b8:	fb00 fe0e 	mul.w	lr, r0, lr
 80004bc:	458e      	cmp	lr, r1
 80004be:	d908      	bls.n	80004d2 <__udivmoddi4+0x1e2>
 80004c0:	eb1c 0101 	adds.w	r1, ip, r1
 80004c4:	f100 34ff 	add.w	r4, r0, #4294967295	; 0xffffffff
 80004c8:	d26c      	bcs.n	80005a4 <__udivmoddi4+0x2b4>
 80004ca:	458e      	cmp	lr, r1
 80004cc:	d96a      	bls.n	80005a4 <__udivmoddi4+0x2b4>
 80004ce:	3802      	subs	r0, #2
 80004d0:	4461      	add	r1, ip
 80004d2:	ea40 4008 	orr.w	r0, r0, r8, lsl #16
 80004d6:	fba0 9402 	umull	r9, r4, r0, r2
 80004da:	eba1 010e 	sub.w	r1, r1, lr
 80004de:	42a1      	cmp	r1, r4
 80004e0:	46c8      	mov	r8, r9
 80004e2:	46a6      	mov	lr, r4
 80004e4:	d356      	bcc.n	8000594 <__udivmoddi4+0x2a4>
 80004e6:	d053      	beq.n	8000590 <__udivmoddi4+0x2a0>
 80004e8:	b15d      	cbz	r5, 8000502 <__udivmoddi4+0x212>
 80004ea:	ebb3 0208 	subs.w	r2, r3, r8
 80004ee:	eb61 010e 	sbc.w	r1, r1, lr
 80004f2:	fa01 f707 	lsl.w	r7, r1, r7
 80004f6:	fa22 f306 	lsr.w	r3, r2, r6
 80004fa:	40f1      	lsrs	r1, r6
 80004fc:	431f      	orrs	r7, r3
 80004fe:	e9c5 7100 	strd	r7, r1, [r5]
 8000502:	2600      	movs	r6, #0
 8000504:	4631      	mov	r1, r6
 8000506:	e8bd 87f0 	ldmia.w	sp!, {r4, r5, r6, r7, r8, r9, sl, pc}
 800050a:	f1c2 0320 	rsb	r3, r2, #32
 800050e:	40d8      	lsrs	r0, r3
 8000510:	fa0c fc02 	lsl.w	ip, ip, r2
 8000514:	fa21 f303 	lsr.w	r3, r1, r3
 8000518:	4091      	lsls	r1, r2
 800051a:	4301      	orrs	r1, r0
 800051c:	ea4f 471c 	mov.w	r7, ip, lsr #16
 8000520:	fa1f fe8c 	uxth.w	lr, ip
 8000524:	fbb3 f0f7 	udiv	r0, r3, r7
 8000528:	fb07 3610 	mls	r6, r7, r0, r3
 800052c:	0c0b      	lsrs	r3, r1, #16
 800052e:	ea43 4306 	orr.w	r3, r3, r6, lsl #16
 8000532:	fb00 f60e 	mul.w	r6, r0, lr
 8000536:	429e      	cmp	r6, r3
 8000538:	fa04 f402 	lsl.w	r4, r4, r2
 800053c:	d908      	bls.n	8000550 <__udivmoddi4+0x260>
 800053e:	eb1c 0303 	adds.w	r3, ip, r3
 8000542:	f100 38ff 	add.w	r8, r0, #4294967295	; 0xffffffff
 8000546:	d22f      	bcs.n	80005a8 <__udivmoddi4+0x2b8>
 8000548:	429e      	cmp	r6, r3
 800054a:	d92d      	bls.n	80005a8 <__udivmoddi4+0x2b8>
 800054c:	3802      	subs	r0, #2
 800054e:	4463      	add	r3, ip
 8000550:	1b9b      	subs	r3, r3, r6
 8000552:	b289      	uxth	r1, r1
 8000554:	fbb3 f6f7 	udiv	r6, r3, r7
 8000558:	fb07 3316 	mls	r3, r7, r6, r3
 800055c:	ea41 4103 	orr.w	r1, r1, r3, lsl #16
 8000560:	fb06 f30e 	mul.w	r3, r6, lr
 8000564:	428b      	cmp	r3, r1
 8000566:	d908      	bls.n	800057a <__udivmoddi4+0x28a>
 8000568:	eb1c 0101 	adds.w	r1, ip, r1
 800056c:	f106 38ff 	add.w	r8, r6, #4294967295	; 0xffffffff
 8000570:	d216      	bcs.n	80005a0 <__udivmoddi4+0x2b0>
 8000572:	428b      	cmp	r3, r1
 8000574:	d914      	bls.n	80005a0 <__udivmoddi4+0x2b0>
 8000576:	3e02      	subs	r6, #2
 8000578:	4461      	add	r1, ip
 800057a:	1ac9      	subs	r1, r1, r3
 800057c:	ea46 4600 	orr.w	r6, r6, r0, lsl #16
 8000580:	e738      	b.n	80003f4 <__udivmoddi4+0x104>
 8000582:	462e      	mov	r6, r5
 8000584:	4628      	mov	r0, r5
 8000586:	e705      	b.n	8000394 <__udivmoddi4+0xa4>
 8000588:	4606      	mov	r6, r0
 800058a:	e6e3      	b.n	8000354 <__udivmoddi4+0x64>
 800058c:	4618      	mov	r0, r3
 800058e:	e6f8      	b.n	8000382 <__udivmoddi4+0x92>
 8000590:	454b      	cmp	r3, r9
 8000592:	d2a9      	bcs.n	80004e8 <__udivmoddi4+0x1f8>
 8000594:	ebb9 0802 	subs.w	r8, r9, r2
 8000598:	eb64 0e0c 	sbc.w	lr, r4, ip
 800059c:	3801      	subs	r0, #1
 800059e:	e7a3      	b.n	80004e8 <__udivmoddi4+0x1f8>
 80005a0:	4646      	mov	r6, r8
 80005a2:	e7ea      	b.n	800057a <__udivmoddi4+0x28a>
 80005a4:	4620      	mov	r0, r4
 80005a6:	e794      	b.n	80004d2 <__udivmoddi4+0x1e2>
 80005a8:	4640      	mov	r0, r8
 80005aa:	e7d1      	b.n	8000550 <__udivmoddi4+0x260>
 80005ac:	46d0      	mov	r8, sl
 80005ae:	e77b      	b.n	80004a8 <__udivmoddi4+0x1b8>
 80005b0:	3b02      	subs	r3, #2
 80005b2:	4461      	add	r1, ip
 80005b4:	e732      	b.n	800041c <__udivmoddi4+0x12c>
 80005b6:	4630      	mov	r0, r6
 80005b8:	e709      	b.n	80003ce <__udivmoddi4+0xde>
 80005ba:	4464      	add	r4, ip
 80005bc:	3802      	subs	r0, #2
 80005be:	e742      	b.n	8000446 <__udivmoddi4+0x156>

080005c0 <__aeabi_idiv0>:
 80005c0:	4770      	bx	lr
 80005c2:	bf00      	nop

080005c4 <arm_fir_f32>:
void arm_fir_f32(
const arm_fir_instance_f32 * S,
float32_t * pSrc,
float32_t * pDst,
uint32_t blockSize)
{
 80005c4:	b480      	push	{r7}
 80005c6:	b09f      	sub	sp, #124	; 0x7c
 80005c8:	af00      	add	r7, sp, #0
 80005ca:	60f8      	str	r0, [r7, #12]
 80005cc:	60b9      	str	r1, [r7, #8]
 80005ce:	607a      	str	r2, [r7, #4]
 80005d0:	603b      	str	r3, [r7, #0]
   float32_t *pState = S->pState;                 /* State pointer */
 80005d2:	68fb      	ldr	r3, [r7, #12]
 80005d4:	685b      	ldr	r3, [r3, #4]
 80005d6:	677b      	str	r3, [r7, #116]	; 0x74
   float32_t *pCoeffs = S->pCoeffs;               /* Coefficient pointer */
 80005d8:	68fb      	ldr	r3, [r7, #12]
 80005da:	689b      	ldr	r3, [r3, #8]
 80005dc:	61fb      	str	r3, [r7, #28]
   float32_t *pStateCurnt;                        /* Points to the current sample of the state */
   float32_t *px, *pb;                            /* Temporary pointers for state and coefficient buffers */
   float32_t acc0, acc1, acc2, acc3, acc4, acc5, acc6, acc7;     /* Accumulators */
   float32_t x0, x1, x2, x3, x4, x5, x6, x7, c0;  /* Temporary variables to hold state and coefficient values */
   uint32_t numTaps = S->numTaps;                 /* Number of filter coefficients in the filter */
 80005de:	68fb      	ldr	r3, [r7, #12]
 80005e0:	881b      	ldrh	r3, [r3, #0]
 80005e2:	61bb      	str	r3, [r7, #24]
   uint32_t i, tapCnt, blkCnt;                    /* Loop counters */

   /* S->pState points to state array which contains previous frame (numTaps - 1) samples */
   /* pStateCurnt points to the location where the new input data should be written */
   pStateCurnt = &(S->pState[(numTaps - 1u)]);
 80005e4:	68fb      	ldr	r3, [r7, #12]
 80005e6:	685a      	ldr	r2, [r3, #4]
 80005e8:	69bb      	ldr	r3, [r7, #24]
 80005ea:	f103 4380 	add.w	r3, r3, #1073741824	; 0x40000000
 80005ee:	3b01      	subs	r3, #1
 80005f0:	009b      	lsls	r3, r3, #2
 80005f2:	4413      	add	r3, r2
 80005f4:	673b      	str	r3, [r7, #112]	; 0x70
    *    acc0 =  b[numTaps-1] * x[n-numTaps-1] + b[numTaps-2] * x[n-numTaps-2] + b[numTaps-3] * x[n-numTaps-3] +...+ b[0] * x[0]  
    *    acc1 =  b[numTaps-1] * x[n-numTaps] +   b[numTaps-2] * x[n-numTaps-1] + b[numTaps-3] * x[n-numTaps-2] +...+ b[0] * x[1]  
    *    acc2 =  b[numTaps-1] * x[n-numTaps+1] + b[numTaps-2] * x[n-numTaps] +   b[numTaps-3] * x[n-numTaps-1] +...+ b[0] * x[2]  
    *    acc3 =  b[numTaps-1] * x[n-numTaps+2] + b[numTaps-2] * x[n-numTaps+1] + b[numTaps-3] * x[n-numTaps]   +...+ b[0] * x[3]  
    */
   blkCnt = blockSize >> 3;
 80005f6:	683b      	ldr	r3, [r7, #0]
 80005f8:	08db      	lsrs	r3, r3, #3
 80005fa:	623b      	str	r3, [r7, #32]

   /* First part of the processing with loop unrolling.  Compute 8 outputs at a time.  
   ** a second loop below computes the remaining 1 to 7 samples. */
   while(blkCnt > 0u)
 80005fc:	f000 bc8b 	b.w	8000f16 <arm_fir_f32+0x952>
   {
      /* Copy four new input samples into the state buffer */
      *pStateCurnt++ = *pSrc++;
 8000600:	68ba      	ldr	r2, [r7, #8]
 8000602:	1d13      	adds	r3, r2, #4
 8000604:	60bb      	str	r3, [r7, #8]
 8000606:	6f3b      	ldr	r3, [r7, #112]	; 0x70
 8000608:	1d19      	adds	r1, r3, #4
 800060a:	6739      	str	r1, [r7, #112]	; 0x70
 800060c:	6812      	ldr	r2, [r2, #0]
 800060e:	601a      	str	r2, [r3, #0]
      *pStateCurnt++ = *pSrc++;
 8000610:	68ba      	ldr	r2, [r7, #8]
 8000612:	1d13      	adds	r3, r2, #4
 8000614:	60bb      	str	r3, [r7, #8]
 8000616:	6f3b      	ldr	r3, [r7, #112]	; 0x70
 8000618:	1d19      	adds	r1, r3, #4
 800061a:	6739      	str	r1, [r7, #112]	; 0x70
 800061c:	6812      	ldr	r2, [r2, #0]
 800061e:	601a      	str	r2, [r3, #0]
      *pStateCurnt++ = *pSrc++;
 8000620:	68ba      	ldr	r2, [r7, #8]
 8000622:	1d13      	adds	r3, r2, #4
 8000624:	60bb      	str	r3, [r7, #8]
 8000626:	6f3b      	ldr	r3, [r7, #112]	; 0x70
 8000628:	1d19      	adds	r1, r3, #4
 800062a:	6739      	str	r1, [r7, #112]	; 0x70
 800062c:	6812      	ldr	r2, [r2, #0]
 800062e:	601a      	str	r2, [r3, #0]
      *pStateCurnt++ = *pSrc++;
 8000630:	68ba      	ldr	r2, [r7, #8]
 8000632:	1d13      	adds	r3, r2, #4
 8000634:	60bb      	str	r3, [r7, #8]
 8000636:	6f3b      	ldr	r3, [r7, #112]	; 0x70
 8000638:	1d19      	adds	r1, r3, #4
 800063a:	6739      	str	r1, [r7, #112]	; 0x70
 800063c:	6812      	ldr	r2, [r2, #0]
 800063e:	601a      	str	r2, [r3, #0]

      /* Set all accumulators to zero */
      acc0 = 0.0f;
 8000640:	f04f 0300 	mov.w	r3, #0
 8000644:	667b      	str	r3, [r7, #100]	; 0x64
      acc1 = 0.0f;
 8000646:	f04f 0300 	mov.w	r3, #0
 800064a:	663b      	str	r3, [r7, #96]	; 0x60
      acc2 = 0.0f;
 800064c:	f04f 0300 	mov.w	r3, #0
 8000650:	65fb      	str	r3, [r7, #92]	; 0x5c
      acc3 = 0.0f;
 8000652:	f04f 0300 	mov.w	r3, #0
 8000656:	65bb      	str	r3, [r7, #88]	; 0x58
      acc4 = 0.0f;
 8000658:	f04f 0300 	mov.w	r3, #0
 800065c:	657b      	str	r3, [r7, #84]	; 0x54
      acc5 = 0.0f;
 800065e:	f04f 0300 	mov.w	r3, #0
 8000662:	653b      	str	r3, [r7, #80]	; 0x50
      acc6 = 0.0f;
 8000664:	f04f 0300 	mov.w	r3, #0
 8000668:	64fb      	str	r3, [r7, #76]	; 0x4c
      acc7 = 0.0f;		
 800066a:	f04f 0300 	mov.w	r3, #0
 800066e:	64bb      	str	r3, [r7, #72]	; 0x48

      /* Initialize state pointer */
      px = pState;
 8000670:	6f7b      	ldr	r3, [r7, #116]	; 0x74
 8000672:	66fb      	str	r3, [r7, #108]	; 0x6c

      /* Initialize coeff pointer */
      pb = (pCoeffs);		
 8000674:	69fb      	ldr	r3, [r7, #28]
 8000676:	66bb      	str	r3, [r7, #104]	; 0x68
   
      /* This is separated from the others to avoid 
       * a call to __aeabi_memmove which would be slower
       */
      *pStateCurnt++ = *pSrc++;
 8000678:	68ba      	ldr	r2, [r7, #8]
 800067a:	1d13      	adds	r3, r2, #4
 800067c:	60bb      	str	r3, [r7, #8]
 800067e:	6f3b      	ldr	r3, [r7, #112]	; 0x70
 8000680:	1d19      	adds	r1, r3, #4
 8000682:	6739      	str	r1, [r7, #112]	; 0x70
 8000684:	6812      	ldr	r2, [r2, #0]
 8000686:	601a      	str	r2, [r3, #0]
      *pStateCurnt++ = *pSrc++;
 8000688:	68ba      	ldr	r2, [r7, #8]
 800068a:	1d13      	adds	r3, r2, #4
 800068c:	60bb      	str	r3, [r7, #8]
 800068e:	6f3b      	ldr	r3, [r7, #112]	; 0x70
 8000690:	1d19      	adds	r1, r3, #4
 8000692:	6739      	str	r1, [r7, #112]	; 0x70
 8000694:	6812      	ldr	r2, [r2, #0]
 8000696:	601a      	str	r2, [r3, #0]
      *pStateCurnt++ = *pSrc++;
 8000698:	68ba      	ldr	r2, [r7, #8]
 800069a:	1d13      	adds	r3, r2, #4
 800069c:	60bb      	str	r3, [r7, #8]
 800069e:	6f3b      	ldr	r3, [r7, #112]	; 0x70
 80006a0:	1d19      	adds	r1, r3, #4
 80006a2:	6739      	str	r1, [r7, #112]	; 0x70
 80006a4:	6812      	ldr	r2, [r2, #0]
 80006a6:	601a      	str	r2, [r3, #0]
      *pStateCurnt++ = *pSrc++;
 80006a8:	68ba      	ldr	r2, [r7, #8]
 80006aa:	1d13      	adds	r3, r2, #4
 80006ac:	60bb      	str	r3, [r7, #8]
 80006ae:	6f3b      	ldr	r3, [r7, #112]	; 0x70
 80006b0:	1d19      	adds	r1, r3, #4
 80006b2:	6739      	str	r1, [r7, #112]	; 0x70
 80006b4:	6812      	ldr	r2, [r2, #0]
 80006b6:	601a      	str	r2, [r3, #0]

      /* Read the first seven samples from the state buffer:  x[n-numTaps], x[n-numTaps-1], x[n-numTaps-2] */
      x0 = *px++;
 80006b8:	6efb      	ldr	r3, [r7, #108]	; 0x6c
 80006ba:	1d1a      	adds	r2, r3, #4
 80006bc:	66fa      	str	r2, [r7, #108]	; 0x6c
 80006be:	681b      	ldr	r3, [r3, #0]
 80006c0:	647b      	str	r3, [r7, #68]	; 0x44
      x1 = *px++;
 80006c2:	6efb      	ldr	r3, [r7, #108]	; 0x6c
 80006c4:	1d1a      	adds	r2, r3, #4
 80006c6:	66fa      	str	r2, [r7, #108]	; 0x6c
 80006c8:	681b      	ldr	r3, [r3, #0]
 80006ca:	643b      	str	r3, [r7, #64]	; 0x40
      x2 = *px++;
 80006cc:	6efb      	ldr	r3, [r7, #108]	; 0x6c
 80006ce:	1d1a      	adds	r2, r3, #4
 80006d0:	66fa      	str	r2, [r7, #108]	; 0x6c
 80006d2:	681b      	ldr	r3, [r3, #0]
 80006d4:	63fb      	str	r3, [r7, #60]	; 0x3c
      x3 = *px++;
 80006d6:	6efb      	ldr	r3, [r7, #108]	; 0x6c
 80006d8:	1d1a      	adds	r2, r3, #4
 80006da:	66fa      	str	r2, [r7, #108]	; 0x6c
 80006dc:	681b      	ldr	r3, [r3, #0]
 80006de:	63bb      	str	r3, [r7, #56]	; 0x38
      x4 = *px++;
 80006e0:	6efb      	ldr	r3, [r7, #108]	; 0x6c
 80006e2:	1d1a      	adds	r2, r3, #4
 80006e4:	66fa      	str	r2, [r7, #108]	; 0x6c
 80006e6:	681b      	ldr	r3, [r3, #0]
 80006e8:	637b      	str	r3, [r7, #52]	; 0x34
      x5 = *px++;
 80006ea:	6efb      	ldr	r3, [r7, #108]	; 0x6c
 80006ec:	1d1a      	adds	r2, r3, #4
 80006ee:	66fa      	str	r2, [r7, #108]	; 0x6c
 80006f0:	681b      	ldr	r3, [r3, #0]
 80006f2:	633b      	str	r3, [r7, #48]	; 0x30
      x6 = *px++;
 80006f4:	6efb      	ldr	r3, [r7, #108]	; 0x6c
 80006f6:	1d1a      	adds	r2, r3, #4
 80006f8:	66fa      	str	r2, [r7, #108]	; 0x6c
 80006fa:	681b      	ldr	r3, [r3, #0]
 80006fc:	62fb      	str	r3, [r7, #44]	; 0x2c

      /* Loop unrolling.  Process 8 taps at a time. */
      tapCnt = numTaps >> 3u;
 80006fe:	69bb      	ldr	r3, [r7, #24]
 8000700:	08db      	lsrs	r3, r3, #3
 8000702:	627b      	str	r3, [r7, #36]	; 0x24
      
      /* Loop over the number of taps.  Unroll by a factor of 8.  
       ** Repeat until we've computed numTaps-8 coefficients. */
      while(tapCnt > 0u)
 8000704:	e352      	b.n	8000dac <arm_fir_f32+0x7e8>
      {
         /* Read the b[numTaps-1] coefficient */
         c0 = *(pb++);
 8000706:	6ebb      	ldr	r3, [r7, #104]	; 0x68
 8000708:	1d1a      	adds	r2, r3, #4
 800070a:	66ba      	str	r2, [r7, #104]	; 0x68
 800070c:	681b      	ldr	r3, [r3, #0]
 800070e:	617b      	str	r3, [r7, #20]

         /* Read x[n-numTaps-3] sample */
         x7 = *(px++);
 8000710:	6efb      	ldr	r3, [r7, #108]	; 0x6c
 8000712:	1d1a      	adds	r2, r3, #4
 8000714:	66fa      	str	r2, [r7, #108]	; 0x6c
 8000716:	681b      	ldr	r3, [r3, #0]
 8000718:	613b      	str	r3, [r7, #16]

         /* acc0 +=  b[numTaps-1] * x[n-numTaps] */
         acc0 += x0 * c0;
 800071a:	ed97 7a11 	vldr	s14, [r7, #68]	; 0x44
 800071e:	edd7 7a05 	vldr	s15, [r7, #20]
 8000722:	ee67 7a27 	vmul.f32	s15, s14, s15
 8000726:	ed97 7a19 	vldr	s14, [r7, #100]	; 0x64
 800072a:	ee77 7a27 	vadd.f32	s15, s14, s15
 800072e:	edc7 7a19 	vstr	s15, [r7, #100]	; 0x64

         /* acc1 +=  b[numTaps-1] * x[n-numTaps-1] */
         acc1 += x1 * c0;
 8000732:	ed97 7a10 	vldr	s14, [r7, #64]	; 0x40
 8000736:	edd7 7a05 	vldr	s15, [r7, #20]
 800073a:	ee67 7a27 	vmul.f32	s15, s14, s15
 800073e:	ed97 7a18 	vldr	s14, [r7, #96]	; 0x60
 8000742:	ee77 7a27 	vadd.f32	s15, s14, s15
 8000746:	edc7 7a18 	vstr	s15, [r7, #96]	; 0x60

         /* acc2 +=  b[numTaps-1] * x[n-numTaps-2] */
         acc2 += x2 * c0;
 800074a:	ed97 7a0f 	vldr	s14, [r7, #60]	; 0x3c
 800074e:	edd7 7a05 	vldr	s15, [r7, #20]
 8000752:	ee67 7a27 	vmul.f32	s15, s14, s15
 8000756:	ed97 7a17 	vldr	s14, [r7, #92]	; 0x5c
 800075a:	ee77 7a27 	vadd.f32	s15, s14, s15
 800075e:	edc7 7a17 	vstr	s15, [r7, #92]	; 0x5c

         /* acc3 +=  b[numTaps-1] * x[n-numTaps-3] */
         acc3 += x3 * c0;
 8000762:	ed97 7a0e 	vldr	s14, [r7, #56]	; 0x38
 8000766:	edd7 7a05 	vldr	s15, [r7, #20]
 800076a:	ee67 7a27 	vmul.f32	s15, s14, s15
 800076e:	ed97 7a16 	vldr	s14, [r7, #88]	; 0x58
 8000772:	ee77 7a27 	vadd.f32	s15, s14, s15
 8000776:	edc7 7a16 	vstr	s15, [r7, #88]	; 0x58

         /* acc4 +=  b[numTaps-1] * x[n-numTaps-4] */
         acc4 += x4 * c0;
 800077a:	ed97 7a0d 	vldr	s14, [r7, #52]	; 0x34
 800077e:	edd7 7a05 	vldr	s15, [r7, #20]
 8000782:	ee67 7a27 	vmul.f32	s15, s14, s15
 8000786:	ed97 7a15 	vldr	s14, [r7, #84]	; 0x54
 800078a:	ee77 7a27 	vadd.f32	s15, s14, s15
 800078e:	edc7 7a15 	vstr	s15, [r7, #84]	; 0x54

         /* acc1 +=  b[numTaps-1] * x[n-numTaps-5] */
         acc5 += x5 * c0;
 8000792:	ed97 7a0c 	vldr	s14, [r7, #48]	; 0x30
 8000796:	edd7 7a05 	vldr	s15, [r7, #20]
 800079a:	ee67 7a27 	vmul.f32	s15, s14, s15
 800079e:	ed97 7a14 	vldr	s14, [r7, #80]	; 0x50
 80007a2:	ee77 7a27 	vadd.f32	s15, s14, s15
 80007a6:	edc7 7a14 	vstr	s15, [r7, #80]	; 0x50

         /* acc2 +=  b[numTaps-1] * x[n-numTaps-6] */
         acc6 += x6 * c0;
 80007aa:	ed97 7a0b 	vldr	s14, [r7, #44]	; 0x2c
 80007ae:	edd7 7a05 	vldr	s15, [r7, #20]
 80007b2:	ee67 7a27 	vmul.f32	s15, s14, s15
 80007b6:	ed97 7a13 	vldr	s14, [r7, #76]	; 0x4c
 80007ba:	ee77 7a27 	vadd.f32	s15, s14, s15
 80007be:	edc7 7a13 	vstr	s15, [r7, #76]	; 0x4c

         /* acc3 +=  b[numTaps-1] * x[n-numTaps-7] */
         acc7 += x7 * c0;
 80007c2:	ed97 7a04 	vldr	s14, [r7, #16]
 80007c6:	edd7 7a05 	vldr	s15, [r7, #20]
 80007ca:	ee67 7a27 	vmul.f32	s15, s14, s15
 80007ce:	ed97 7a12 	vldr	s14, [r7, #72]	; 0x48
 80007d2:	ee77 7a27 	vadd.f32	s15, s14, s15
 80007d6:	edc7 7a12 	vstr	s15, [r7, #72]	; 0x48
         
         /* Read the b[numTaps-2] coefficient */
         c0 = *(pb++);
 80007da:	6ebb      	ldr	r3, [r7, #104]	; 0x68
 80007dc:	1d1a      	adds	r2, r3, #4
 80007de:	66ba      	str	r2, [r7, #104]	; 0x68
 80007e0:	681b      	ldr	r3, [r3, #0]
 80007e2:	617b      	str	r3, [r7, #20]

         /* Read x[n-numTaps-4] sample */
         x0 = *(px++);
 80007e4:	6efb      	ldr	r3, [r7, #108]	; 0x6c
 80007e6:	1d1a      	adds	r2, r3, #4
 80007e8:	66fa      	str	r2, [r7, #108]	; 0x6c
 80007ea:	681b      	ldr	r3, [r3, #0]
 80007ec:	647b      	str	r3, [r7, #68]	; 0x44

         /* Perform the multiply-accumulate */
         acc0 += x1 * c0;
 80007ee:	ed97 7a10 	vldr	s14, [r7, #64]	; 0x40
 80007f2:	edd7 7a05 	vldr	s15, [r7, #20]
 80007f6:	ee67 7a27 	vmul.f32	s15, s14, s15
 80007fa:	ed97 7a19 	vldr	s14, [r7, #100]	; 0x64
 80007fe:	ee77 7a27 	vadd.f32	s15, s14, s15
 8000802:	edc7 7a19 	vstr	s15, [r7, #100]	; 0x64
         acc1 += x2 * c0;   
 8000806:	ed97 7a0f 	vldr	s14, [r7, #60]	; 0x3c
 800080a:	edd7 7a05 	vldr	s15, [r7, #20]
 800080e:	ee67 7a27 	vmul.f32	s15, s14, s15
 8000812:	ed97 7a18 	vldr	s14, [r7, #96]	; 0x60
 8000816:	ee77 7a27 	vadd.f32	s15, s14, s15
 800081a:	edc7 7a18 	vstr	s15, [r7, #96]	; 0x60
         acc2 += x3 * c0;   
 800081e:	ed97 7a0e 	vldr	s14, [r7, #56]	; 0x38
 8000822:	edd7 7a05 	vldr	s15, [r7, #20]
 8000826:	ee67 7a27 	vmul.f32	s15, s14, s15
 800082a:	ed97 7a17 	vldr	s14, [r7, #92]	; 0x5c
 800082e:	ee77 7a27 	vadd.f32	s15, s14, s15
 8000832:	edc7 7a17 	vstr	s15, [r7, #92]	; 0x5c
         acc3 += x4 * c0;   
 8000836:	ed97 7a0d 	vldr	s14, [r7, #52]	; 0x34
 800083a:	edd7 7a05 	vldr	s15, [r7, #20]
 800083e:	ee67 7a27 	vmul.f32	s15, s14, s15
 8000842:	ed97 7a16 	vldr	s14, [r7, #88]	; 0x58
 8000846:	ee77 7a27 	vadd.f32	s15, s14, s15
 800084a:	edc7 7a16 	vstr	s15, [r7, #88]	; 0x58
         acc4 += x5 * c0;   
 800084e:	ed97 7a0c 	vldr	s14, [r7, #48]	; 0x30
 8000852:	edd7 7a05 	vldr	s15, [r7, #20]
 8000856:	ee67 7a27 	vmul.f32	s15, s14, s15
 800085a:	ed97 7a15 	vldr	s14, [r7, #84]	; 0x54
 800085e:	ee77 7a27 	vadd.f32	s15, s14, s15
 8000862:	edc7 7a15 	vstr	s15, [r7, #84]	; 0x54
         acc5 += x6 * c0;   
 8000866:	ed97 7a0b 	vldr	s14, [r7, #44]	; 0x2c
 800086a:	edd7 7a05 	vldr	s15, [r7, #20]
 800086e:	ee67 7a27 	vmul.f32	s15, s14, s15
 8000872:	ed97 7a14 	vldr	s14, [r7, #80]	; 0x50
 8000876:	ee77 7a27 	vadd.f32	s15, s14, s15
 800087a:	edc7 7a14 	vstr	s15, [r7, #80]	; 0x50
         acc6 += x7 * c0;   
 800087e:	ed97 7a04 	vldr	s14, [r7, #16]
 8000882:	edd7 7a05 	vldr	s15, [r7, #20]
 8000886:	ee67 7a27 	vmul.f32	s15, s14, s15
 800088a:	ed97 7a13 	vldr	s14, [r7, #76]	; 0x4c
 800088e:	ee77 7a27 	vadd.f32	s15, s14, s15
 8000892:	edc7 7a13 	vstr	s15, [r7, #76]	; 0x4c
         acc7 += x0 * c0;   
 8000896:	ed97 7a11 	vldr	s14, [r7, #68]	; 0x44
 800089a:	edd7 7a05 	vldr	s15, [r7, #20]
 800089e:	ee67 7a27 	vmul.f32	s15, s14, s15
 80008a2:	ed97 7a12 	vldr	s14, [r7, #72]	; 0x48
 80008a6:	ee77 7a27 	vadd.f32	s15, s14, s15
 80008aa:	edc7 7a12 	vstr	s15, [r7, #72]	; 0x48
         
         /* Read the b[numTaps-3] coefficient */
         c0 = *(pb++);
 80008ae:	6ebb      	ldr	r3, [r7, #104]	; 0x68
 80008b0:	1d1a      	adds	r2, r3, #4
 80008b2:	66ba      	str	r2, [r7, #104]	; 0x68
 80008b4:	681b      	ldr	r3, [r3, #0]
 80008b6:	617b      	str	r3, [r7, #20]

         /* Read x[n-numTaps-5] sample */
         x1 = *(px++);
 80008b8:	6efb      	ldr	r3, [r7, #108]	; 0x6c
 80008ba:	1d1a      	adds	r2, r3, #4
 80008bc:	66fa      	str	r2, [r7, #108]	; 0x6c
 80008be:	681b      	ldr	r3, [r3, #0]
 80008c0:	643b      	str	r3, [r7, #64]	; 0x40

         /* Perform the multiply-accumulates */      
         acc0 += x2 * c0;
 80008c2:	ed97 7a0f 	vldr	s14, [r7, #60]	; 0x3c
 80008c6:	edd7 7a05 	vldr	s15, [r7, #20]
 80008ca:	ee67 7a27 	vmul.f32	s15, s14, s15
 80008ce:	ed97 7a19 	vldr	s14, [r7, #100]	; 0x64
 80008d2:	ee77 7a27 	vadd.f32	s15, s14, s15
 80008d6:	edc7 7a19 	vstr	s15, [r7, #100]	; 0x64
         acc1 += x3 * c0;   
 80008da:	ed97 7a0e 	vldr	s14, [r7, #56]	; 0x38
 80008de:	edd7 7a05 	vldr	s15, [r7, #20]
 80008e2:	ee67 7a27 	vmul.f32	s15, s14, s15
 80008e6:	ed97 7a18 	vldr	s14, [r7, #96]	; 0x60
 80008ea:	ee77 7a27 	vadd.f32	s15, s14, s15
 80008ee:	edc7 7a18 	vstr	s15, [r7, #96]	; 0x60
         acc2 += x4 * c0;   
 80008f2:	ed97 7a0d 	vldr	s14, [r7, #52]	; 0x34
 80008f6:	edd7 7a05 	vldr	s15, [r7, #20]
 80008fa:	ee67 7a27 	vmul.f32	s15, s14, s15
 80008fe:	ed97 7a17 	vldr	s14, [r7, #92]	; 0x5c
 8000902:	ee77 7a27 	vadd.f32	s15, s14, s15
 8000906:	edc7 7a17 	vstr	s15, [r7, #92]	; 0x5c
         acc3 += x5 * c0;   
 800090a:	ed97 7a0c 	vldr	s14, [r7, #48]	; 0x30
 800090e:	edd7 7a05 	vldr	s15, [r7, #20]
 8000912:	ee67 7a27 	vmul.f32	s15, s14, s15
 8000916:	ed97 7a16 	vldr	s14, [r7, #88]	; 0x58
 800091a:	ee77 7a27 	vadd.f32	s15, s14, s15
 800091e:	edc7 7a16 	vstr	s15, [r7, #88]	; 0x58
         acc4 += x6 * c0;   
 8000922:	ed97 7a0b 	vldr	s14, [r7, #44]	; 0x2c
 8000926:	edd7 7a05 	vldr	s15, [r7, #20]
 800092a:	ee67 7a27 	vmul.f32	s15, s14, s15
 800092e:	ed97 7a15 	vldr	s14, [r7, #84]	; 0x54
 8000932:	ee77 7a27 	vadd.f32	s15, s14, s15
 8000936:	edc7 7a15 	vstr	s15, [r7, #84]	; 0x54
         acc5 += x7 * c0;   
 800093a:	ed97 7a04 	vldr	s14, [r7, #16]
 800093e:	edd7 7a05 	vldr	s15, [r7, #20]
 8000942:	ee67 7a27 	vmul.f32	s15, s14, s15
 8000946:	ed97 7a14 	vldr	s14, [r7, #80]	; 0x50
 800094a:	ee77 7a27 	vadd.f32	s15, s14, s15
 800094e:	edc7 7a14 	vstr	s15, [r7, #80]	; 0x50
         acc6 += x0 * c0;   
 8000952:	ed97 7a11 	vldr	s14, [r7, #68]	; 0x44
 8000956:	edd7 7a05 	vldr	s15, [r7, #20]
 800095a:	ee67 7a27 	vmul.f32	s15, s14, s15
 800095e:	ed97 7a13 	vldr	s14, [r7, #76]	; 0x4c
 8000962:	ee77 7a27 	vadd.f32	s15, s14, s15
 8000966:	edc7 7a13 	vstr	s15, [r7, #76]	; 0x4c
         acc7 += x1 * c0;   
 800096a:	ed97 7a10 	vldr	s14, [r7, #64]	; 0x40
 800096e:	edd7 7a05 	vldr	s15, [r7, #20]
 8000972:	ee67 7a27 	vmul.f32	s15, s14, s15
 8000976:	ed97 7a12 	vldr	s14, [r7, #72]	; 0x48
 800097a:	ee77 7a27 	vadd.f32	s15, s14, s15
 800097e:	edc7 7a12 	vstr	s15, [r7, #72]	; 0x48

         /* Read the b[numTaps-4] coefficient */
         c0 = *(pb++);
 8000982:	6ebb      	ldr	r3, [r7, #104]	; 0x68
 8000984:	1d1a      	adds	r2, r3, #4
 8000986:	66ba      	str	r2, [r7, #104]	; 0x68
 8000988:	681b      	ldr	r3, [r3, #0]
 800098a:	617b      	str	r3, [r7, #20]

         /* Read x[n-numTaps-6] sample */
         x2 = *(px++);
 800098c:	6efb      	ldr	r3, [r7, #108]	; 0x6c
 800098e:	1d1a      	adds	r2, r3, #4
 8000990:	66fa      	str	r2, [r7, #108]	; 0x6c
 8000992:	681b      	ldr	r3, [r3, #0]
 8000994:	63fb      	str	r3, [r7, #60]	; 0x3c

         /* Perform the multiply-accumulates */      
         acc0 += x3 * c0;
 8000996:	ed97 7a0e 	vldr	s14, [r7, #56]	; 0x38
 800099a:	edd7 7a05 	vldr	s15, [r7, #20]
 800099e:	ee67 7a27 	vmul.f32	s15, s14, s15
 80009a2:	ed97 7a19 	vldr	s14, [r7, #100]	; 0x64
 80009a6:	ee77 7a27 	vadd.f32	s15, s14, s15
 80009aa:	edc7 7a19 	vstr	s15, [r7, #100]	; 0x64
         acc1 += x4 * c0;   
 80009ae:	ed97 7a0d 	vldr	s14, [r7, #52]	; 0x34
 80009b2:	edd7 7a05 	vldr	s15, [r7, #20]
 80009b6:	ee67 7a27 	vmul.f32	s15, s14, s15
 80009ba:	ed97 7a18 	vldr	s14, [r7, #96]	; 0x60
 80009be:	ee77 7a27 	vadd.f32	s15, s14, s15
 80009c2:	edc7 7a18 	vstr	s15, [r7, #96]	; 0x60
         acc2 += x5 * c0;   
 80009c6:	ed97 7a0c 	vldr	s14, [r7, #48]	; 0x30
 80009ca:	edd7 7a05 	vldr	s15, [r7, #20]
 80009ce:	ee67 7a27 	vmul.f32	s15, s14, s15
 80009d2:	ed97 7a17 	vldr	s14, [r7, #92]	; 0x5c
 80009d6:	ee77 7a27 	vadd.f32	s15, s14, s15
 80009da:	edc7 7a17 	vstr	s15, [r7, #92]	; 0x5c
         acc3 += x6 * c0;   
 80009de:	ed97 7a0b 	vldr	s14, [r7, #44]	; 0x2c
 80009e2:	edd7 7a05 	vldr	s15, [r7, #20]
 80009e6:	ee67 7a27 	vmul.f32	s15, s14, s15
 80009ea:	ed97 7a16 	vldr	s14, [r7, #88]	; 0x58
 80009ee:	ee77 7a27 	vadd.f32	s15, s14, s15
 80009f2:	edc7 7a16 	vstr	s15, [r7, #88]	; 0x58
         acc4 += x7 * c0;   
 80009f6:	ed97 7a04 	vldr	s14, [r7, #16]
 80009fa:	edd7 7a05 	vldr	s15, [r7, #20]
 80009fe:	ee67 7a27 	vmul.f32	s15, s14, s15
 8000a02:	ed97 7a15 	vldr	s14, [r7, #84]	; 0x54
 8000a06:	ee77 7a27 	vadd.f32	s15, s14, s15
 8000a0a:	edc7 7a15 	vstr	s15, [r7, #84]	; 0x54
         acc5 += x0 * c0;   
 8000a0e:	ed97 7a11 	vldr	s14, [r7, #68]	; 0x44
 8000a12:	edd7 7a05 	vldr	s15, [r7, #20]
 8000a16:	ee67 7a27 	vmul.f32	s15, s14, s15
 8000a1a:	ed97 7a14 	vldr	s14, [r7, #80]	; 0x50
 8000a1e:	ee77 7a27 	vadd.f32	s15, s14, s15
 8000a22:	edc7 7a14 	vstr	s15, [r7, #80]	; 0x50
         acc6 += x1 * c0;   
 8000a26:	ed97 7a10 	vldr	s14, [r7, #64]	; 0x40
 8000a2a:	edd7 7a05 	vldr	s15, [r7, #20]
 8000a2e:	ee67 7a27 	vmul.f32	s15, s14, s15
 8000a32:	ed97 7a13 	vldr	s14, [r7, #76]	; 0x4c
 8000a36:	ee77 7a27 	vadd.f32	s15, s14, s15
 8000a3a:	edc7 7a13 	vstr	s15, [r7, #76]	; 0x4c
         acc7 += x2 * c0;   
 8000a3e:	ed97 7a0f 	vldr	s14, [r7, #60]	; 0x3c
 8000a42:	edd7 7a05 	vldr	s15, [r7, #20]
 8000a46:	ee67 7a27 	vmul.f32	s15, s14, s15
 8000a4a:	ed97 7a12 	vldr	s14, [r7, #72]	; 0x48
 8000a4e:	ee77 7a27 	vadd.f32	s15, s14, s15
 8000a52:	edc7 7a12 	vstr	s15, [r7, #72]	; 0x48

         /* Read the b[numTaps-4] coefficient */
         c0 = *(pb++);
 8000a56:	6ebb      	ldr	r3, [r7, #104]	; 0x68
 8000a58:	1d1a      	adds	r2, r3, #4
 8000a5a:	66ba      	str	r2, [r7, #104]	; 0x68
 8000a5c:	681b      	ldr	r3, [r3, #0]
 8000a5e:	617b      	str	r3, [r7, #20]

         /* Read x[n-numTaps-6] sample */
         x3 = *(px++);
 8000a60:	6efb      	ldr	r3, [r7, #108]	; 0x6c
 8000a62:	1d1a      	adds	r2, r3, #4
 8000a64:	66fa      	str	r2, [r7, #108]	; 0x6c
 8000a66:	681b      	ldr	r3, [r3, #0]
 8000a68:	63bb      	str	r3, [r7, #56]	; 0x38
         /* Perform the multiply-accumulates */      
         acc0 += x4 * c0;
 8000a6a:	ed97 7a0d 	vldr	s14, [r7, #52]	; 0x34
 8000a6e:	edd7 7a05 	vldr	s15, [r7, #20]
 8000a72:	ee67 7a27 	vmul.f32	s15, s14, s15
 8000a76:	ed97 7a19 	vldr	s14, [r7, #100]	; 0x64
 8000a7a:	ee77 7a27 	vadd.f32	s15, s14, s15
 8000a7e:	edc7 7a19 	vstr	s15, [r7, #100]	; 0x64
         acc1 += x5 * c0;   
 8000a82:	ed97 7a0c 	vldr	s14, [r7, #48]	; 0x30
 8000a86:	edd7 7a05 	vldr	s15, [r7, #20]
 8000a8a:	ee67 7a27 	vmul.f32	s15, s14, s15
 8000a8e:	ed97 7a18 	vldr	s14, [r7, #96]	; 0x60
 8000a92:	ee77 7a27 	vadd.f32	s15, s14, s15
 8000a96:	edc7 7a18 	vstr	s15, [r7, #96]	; 0x60
         acc2 += x6 * c0;   
 8000a9a:	ed97 7a0b 	vldr	s14, [r7, #44]	; 0x2c
 8000a9e:	edd7 7a05 	vldr	s15, [r7, #20]
 8000aa2:	ee67 7a27 	vmul.f32	s15, s14, s15
 8000aa6:	ed97 7a17 	vldr	s14, [r7, #92]	; 0x5c
 8000aaa:	ee77 7a27 	vadd.f32	s15, s14, s15
 8000aae:	edc7 7a17 	vstr	s15, [r7, #92]	; 0x5c
         acc3 += x7 * c0;   
 8000ab2:	ed97 7a04 	vldr	s14, [r7, #16]
 8000ab6:	edd7 7a05 	vldr	s15, [r7, #20]
 8000aba:	ee67 7a27 	vmul.f32	s15, s14, s15
 8000abe:	ed97 7a16 	vldr	s14, [r7, #88]	; 0x58
 8000ac2:	ee77 7a27 	vadd.f32	s15, s14, s15
 8000ac6:	edc7 7a16 	vstr	s15, [r7, #88]	; 0x58
         acc4 += x0 * c0;   
 8000aca:	ed97 7a11 	vldr	s14, [r7, #68]	; 0x44
 8000ace:	edd7 7a05 	vldr	s15, [r7, #20]
 8000ad2:	ee67 7a27 	vmul.f32	s15, s14, s15
 8000ad6:	ed97 7a15 	vldr	s14, [r7, #84]	; 0x54
 8000ada:	ee77 7a27 	vadd.f32	s15, s14, s15
 8000ade:	edc7 7a15 	vstr	s15, [r7, #84]	; 0x54
         acc5 += x1 * c0;   
 8000ae2:	ed97 7a10 	vldr	s14, [r7, #64]	; 0x40
 8000ae6:	edd7 7a05 	vldr	s15, [r7, #20]
 8000aea:	ee67 7a27 	vmul.f32	s15, s14, s15
 8000aee:	ed97 7a14 	vldr	s14, [r7, #80]	; 0x50
 8000af2:	ee77 7a27 	vadd.f32	s15, s14, s15
 8000af6:	edc7 7a14 	vstr	s15, [r7, #80]	; 0x50
         acc6 += x2 * c0;   
 8000afa:	ed97 7a0f 	vldr	s14, [r7, #60]	; 0x3c
 8000afe:	edd7 7a05 	vldr	s15, [r7, #20]
 8000b02:	ee67 7a27 	vmul.f32	s15, s14, s15
 8000b06:	ed97 7a13 	vldr	s14, [r7, #76]	; 0x4c
 8000b0a:	ee77 7a27 	vadd.f32	s15, s14, s15
 8000b0e:	edc7 7a13 	vstr	s15, [r7, #76]	; 0x4c
         acc7 += x3 * c0;   
 8000b12:	ed97 7a0e 	vldr	s14, [r7, #56]	; 0x38
 8000b16:	edd7 7a05 	vldr	s15, [r7, #20]
 8000b1a:	ee67 7a27 	vmul.f32	s15, s14, s15
 8000b1e:	ed97 7a12 	vldr	s14, [r7, #72]	; 0x48
 8000b22:	ee77 7a27 	vadd.f32	s15, s14, s15
 8000b26:	edc7 7a12 	vstr	s15, [r7, #72]	; 0x48

         /* Read the b[numTaps-4] coefficient */
         c0 = *(pb++);
 8000b2a:	6ebb      	ldr	r3, [r7, #104]	; 0x68
 8000b2c:	1d1a      	adds	r2, r3, #4
 8000b2e:	66ba      	str	r2, [r7, #104]	; 0x68
 8000b30:	681b      	ldr	r3, [r3, #0]
 8000b32:	617b      	str	r3, [r7, #20]

         /* Read x[n-numTaps-6] sample */
         x4 = *(px++);
 8000b34:	6efb      	ldr	r3, [r7, #108]	; 0x6c
 8000b36:	1d1a      	adds	r2, r3, #4
 8000b38:	66fa      	str	r2, [r7, #108]	; 0x6c
 8000b3a:	681b      	ldr	r3, [r3, #0]
 8000b3c:	637b      	str	r3, [r7, #52]	; 0x34

         /* Perform the multiply-accumulates */      
         acc0 += x5 * c0;
 8000b3e:	ed97 7a0c 	vldr	s14, [r7, #48]	; 0x30
 8000b42:	edd7 7a05 	vldr	s15, [r7, #20]
 8000b46:	ee67 7a27 	vmul.f32	s15, s14, s15
 8000b4a:	ed97 7a19 	vldr	s14, [r7, #100]	; 0x64
 8000b4e:	ee77 7a27 	vadd.f32	s15, s14, s15
 8000b52:	edc7 7a19 	vstr	s15, [r7, #100]	; 0x64
         acc1 += x6 * c0;   
 8000b56:	ed97 7a0b 	vldr	s14, [r7, #44]	; 0x2c
 8000b5a:	edd7 7a05 	vldr	s15, [r7, #20]
 8000b5e:	ee67 7a27 	vmul.f32	s15, s14, s15
 8000b62:	ed97 7a18 	vldr	s14, [r7, #96]	; 0x60
 8000b66:	ee77 7a27 	vadd.f32	s15, s14, s15
 8000b6a:	edc7 7a18 	vstr	s15, [r7, #96]	; 0x60
         acc2 += x7 * c0;   
 8000b6e:	ed97 7a04 	vldr	s14, [r7, #16]
 8000b72:	edd7 7a05 	vldr	s15, [r7, #20]
 8000b76:	ee67 7a27 	vmul.f32	s15, s14, s15
 8000b7a:	ed97 7a17 	vldr	s14, [r7, #92]	; 0x5c
 8000b7e:	ee77 7a27 	vadd.f32	s15, s14, s15
 8000b82:	edc7 7a17 	vstr	s15, [r7, #92]	; 0x5c
         acc3 += x0 * c0;   
 8000b86:	ed97 7a11 	vldr	s14, [r7, #68]	; 0x44
 8000b8a:	edd7 7a05 	vldr	s15, [r7, #20]
 8000b8e:	ee67 7a27 	vmul.f32	s15, s14, s15
 8000b92:	ed97 7a16 	vldr	s14, [r7, #88]	; 0x58
 8000b96:	ee77 7a27 	vadd.f32	s15, s14, s15
 8000b9a:	edc7 7a16 	vstr	s15, [r7, #88]	; 0x58
         acc4 += x1 * c0;   
 8000b9e:	ed97 7a10 	vldr	s14, [r7, #64]	; 0x40
 8000ba2:	edd7 7a05 	vldr	s15, [r7, #20]
 8000ba6:	ee67 7a27 	vmul.f32	s15, s14, s15
 8000baa:	ed97 7a15 	vldr	s14, [r7, #84]	; 0x54
 8000bae:	ee77 7a27 	vadd.f32	s15, s14, s15
 8000bb2:	edc7 7a15 	vstr	s15, [r7, #84]	; 0x54
         acc5 += x2 * c0;   
 8000bb6:	ed97 7a0f 	vldr	s14, [r7, #60]	; 0x3c
 8000bba:	edd7 7a05 	vldr	s15, [r7, #20]
 8000bbe:	ee67 7a27 	vmul.f32	s15, s14, s15
 8000bc2:	ed97 7a14 	vldr	s14, [r7, #80]	; 0x50
 8000bc6:	ee77 7a27 	vadd.f32	s15, s14, s15
 8000bca:	edc7 7a14 	vstr	s15, [r7, #80]	; 0x50
         acc6 += x3 * c0;   
 8000bce:	ed97 7a0e 	vldr	s14, [r7, #56]	; 0x38
 8000bd2:	edd7 7a05 	vldr	s15, [r7, #20]
 8000bd6:	ee67 7a27 	vmul.f32	s15, s14, s15
 8000bda:	ed97 7a13 	vldr	s14, [r7, #76]	; 0x4c
 8000bde:	ee77 7a27 	vadd.f32	s15, s14, s15
 8000be2:	edc7 7a13 	vstr	s15, [r7, #76]	; 0x4c
         acc7 += x4 * c0;   
 8000be6:	ed97 7a0d 	vldr	s14, [r7, #52]	; 0x34
 8000bea:	edd7 7a05 	vldr	s15, [r7, #20]
 8000bee:	ee67 7a27 	vmul.f32	s15, s14, s15
 8000bf2:	ed97 7a12 	vldr	s14, [r7, #72]	; 0x48
 8000bf6:	ee77 7a27 	vadd.f32	s15, s14, s15
 8000bfa:	edc7 7a12 	vstr	s15, [r7, #72]	; 0x48

         /* Read the b[numTaps-4] coefficient */
         c0 = *(pb++);
 8000bfe:	6ebb      	ldr	r3, [r7, #104]	; 0x68
 8000c00:	1d1a      	adds	r2, r3, #4
 8000c02:	66ba      	str	r2, [r7, #104]	; 0x68
 8000c04:	681b      	ldr	r3, [r3, #0]
 8000c06:	617b      	str	r3, [r7, #20]

         /* Read x[n-numTaps-6] sample */
         x5 = *(px++);
 8000c08:	6efb      	ldr	r3, [r7, #108]	; 0x6c
 8000c0a:	1d1a      	adds	r2, r3, #4
 8000c0c:	66fa      	str	r2, [r7, #108]	; 0x6c
 8000c0e:	681b      	ldr	r3, [r3, #0]
 8000c10:	633b      	str	r3, [r7, #48]	; 0x30

         /* Perform the multiply-accumulates */      
         acc0 += x6 * c0;
 8000c12:	ed97 7a0b 	vldr	s14, [r7, #44]	; 0x2c
 8000c16:	edd7 7a05 	vldr	s15, [r7, #20]
 8000c1a:	ee67 7a27 	vmul.f32	s15, s14, s15
 8000c1e:	ed97 7a19 	vldr	s14, [r7, #100]	; 0x64
 8000c22:	ee77 7a27 	vadd.f32	s15, s14, s15
 8000c26:	edc7 7a19 	vstr	s15, [r7, #100]	; 0x64
         acc1 += x7 * c0;   
 8000c2a:	ed97 7a04 	vldr	s14, [r7, #16]
 8000c2e:	edd7 7a05 	vldr	s15, [r7, #20]
 8000c32:	ee67 7a27 	vmul.f32	s15, s14, s15
 8000c36:	ed97 7a18 	vldr	s14, [r7, #96]	; 0x60
 8000c3a:	ee77 7a27 	vadd.f32	s15, s14, s15
 8000c3e:	edc7 7a18 	vstr	s15, [r7, #96]	; 0x60
         acc2 += x0 * c0;   
 8000c42:	ed97 7a11 	vldr	s14, [r7, #68]	; 0x44
 8000c46:	edd7 7a05 	vldr	s15, [r7, #20]
 8000c4a:	ee67 7a27 	vmul.f32	s15, s14, s15
 8000c4e:	ed97 7a17 	vldr	s14, [r7, #92]	; 0x5c
 8000c52:	ee77 7a27 	vadd.f32	s15, s14, s15
 8000c56:	edc7 7a17 	vstr	s15, [r7, #92]	; 0x5c
         acc3 += x1 * c0;   
 8000c5a:	ed97 7a10 	vldr	s14, [r7, #64]	; 0x40
 8000c5e:	edd7 7a05 	vldr	s15, [r7, #20]
 8000c62:	ee67 7a27 	vmul.f32	s15, s14, s15
 8000c66:	ed97 7a16 	vldr	s14, [r7, #88]	; 0x58
 8000c6a:	ee77 7a27 	vadd.f32	s15, s14, s15
 8000c6e:	edc7 7a16 	vstr	s15, [r7, #88]	; 0x58
         acc4 += x2 * c0;   
 8000c72:	ed97 7a0f 	vldr	s14, [r7, #60]	; 0x3c
 8000c76:	edd7 7a05 	vldr	s15, [r7, #20]
 8000c7a:	ee67 7a27 	vmul.f32	s15, s14, s15
 8000c7e:	ed97 7a15 	vldr	s14, [r7, #84]	; 0x54
 8000c82:	ee77 7a27 	vadd.f32	s15, s14, s15
 8000c86:	edc7 7a15 	vstr	s15, [r7, #84]	; 0x54
         acc5 += x3 * c0;   
 8000c8a:	ed97 7a0e 	vldr	s14, [r7, #56]	; 0x38
 8000c8e:	edd7 7a05 	vldr	s15, [r7, #20]
 8000c92:	ee67 7a27 	vmul.f32	s15, s14, s15
 8000c96:	ed97 7a14 	vldr	s14, [r7, #80]	; 0x50
 8000c9a:	ee77 7a27 	vadd.f32	s15, s14, s15
 8000c9e:	edc7 7a14 	vstr	s15, [r7, #80]	; 0x50
         acc6 += x4 * c0;   
 8000ca2:	ed97 7a0d 	vldr	s14, [r7, #52]	; 0x34
 8000ca6:	edd7 7a05 	vldr	s15, [r7, #20]
 8000caa:	ee67 7a27 	vmul.f32	s15, s14, s15
 8000cae:	ed97 7a13 	vldr	s14, [r7, #76]	; 0x4c
 8000cb2:	ee77 7a27 	vadd.f32	s15, s14, s15
 8000cb6:	edc7 7a13 	vstr	s15, [r7, #76]	; 0x4c
         acc7 += x5 * c0;   
 8000cba:	ed97 7a0c 	vldr	s14, [r7, #48]	; 0x30
 8000cbe:	edd7 7a05 	vldr	s15, [r7, #20]
 8000cc2:	ee67 7a27 	vmul.f32	s15, s14, s15
 8000cc6:	ed97 7a12 	vldr	s14, [r7, #72]	; 0x48
 8000cca:	ee77 7a27 	vadd.f32	s15, s14, s15
 8000cce:	edc7 7a12 	vstr	s15, [r7, #72]	; 0x48

         /* Read the b[numTaps-4] coefficient */
         c0 = *(pb++);
 8000cd2:	6ebb      	ldr	r3, [r7, #104]	; 0x68
 8000cd4:	1d1a      	adds	r2, r3, #4
 8000cd6:	66ba      	str	r2, [r7, #104]	; 0x68
 8000cd8:	681b      	ldr	r3, [r3, #0]
 8000cda:	617b      	str	r3, [r7, #20]

         /* Read x[n-numTaps-6] sample */
         x6 = *(px++);
 8000cdc:	6efb      	ldr	r3, [r7, #108]	; 0x6c
 8000cde:	1d1a      	adds	r2, r3, #4
 8000ce0:	66fa      	str	r2, [r7, #108]	; 0x6c
 8000ce2:	681b      	ldr	r3, [r3, #0]
 8000ce4:	62fb      	str	r3, [r7, #44]	; 0x2c

         /* Perform the multiply-accumulates */      
         acc0 += x7 * c0;
 8000ce6:	ed97 7a04 	vldr	s14, [r7, #16]
 8000cea:	edd7 7a05 	vldr	s15, [r7, #20]
 8000cee:	ee67 7a27 	vmul.f32	s15, s14, s15
 8000cf2:	ed97 7a19 	vldr	s14, [r7, #100]	; 0x64
 8000cf6:	ee77 7a27 	vadd.f32	s15, s14, s15
 8000cfa:	edc7 7a19 	vstr	s15, [r7, #100]	; 0x64
         acc1 += x0 * c0;   
 8000cfe:	ed97 7a11 	vldr	s14, [r7, #68]	; 0x44
 8000d02:	edd7 7a05 	vldr	s15, [r7, #20]
 8000d06:	ee67 7a27 	vmul.f32	s15, s14, s15
 8000d0a:	ed97 7a18 	vldr	s14, [r7, #96]	; 0x60
 8000d0e:	ee77 7a27 	vadd.f32	s15, s14, s15
 8000d12:	edc7 7a18 	vstr	s15, [r7, #96]	; 0x60
         acc2 += x1 * c0;   
 8000d16:	ed97 7a10 	vldr	s14, [r7, #64]	; 0x40
 8000d1a:	edd7 7a05 	vldr	s15, [r7, #20]
 8000d1e:	ee67 7a27 	vmul.f32	s15, s14, s15
 8000d22:	ed97 7a17 	vldr	s14, [r7, #92]	; 0x5c
 8000d26:	ee77 7a27 	vadd.f32	s15, s14, s15
 8000d2a:	edc7 7a17 	vstr	s15, [r7, #92]	; 0x5c
         acc3 += x2 * c0;   
 8000d2e:	ed97 7a0f 	vldr	s14, [r7, #60]	; 0x3c
 8000d32:	edd7 7a05 	vldr	s15, [r7, #20]
 8000d36:	ee67 7a27 	vmul.f32	s15, s14, s15
 8000d3a:	ed97 7a16 	vldr	s14, [r7, #88]	; 0x58
 8000d3e:	ee77 7a27 	vadd.f32	s15, s14, s15
 8000d42:	edc7 7a16 	vstr	s15, [r7, #88]	; 0x58
         acc4 += x3 * c0;   
 8000d46:	ed97 7a0e 	vldr	s14, [r7, #56]	; 0x38
 8000d4a:	edd7 7a05 	vldr	s15, [r7, #20]
 8000d4e:	ee67 7a27 	vmul.f32	s15, s14, s15
 8000d52:	ed97 7a15 	vldr	s14, [r7, #84]	; 0x54
 8000d56:	ee77 7a27 	vadd.f32	s15, s14, s15
 8000d5a:	edc7 7a15 	vstr	s15, [r7, #84]	; 0x54
         acc5 += x4 * c0;   
 8000d5e:	ed97 7a0d 	vldr	s14, [r7, #52]	; 0x34
 8000d62:	edd7 7a05 	vldr	s15, [r7, #20]
 8000d66:	ee67 7a27 	vmul.f32	s15, s14, s15
 8000d6a:	ed97 7a14 	vldr	s14, [r7, #80]	; 0x50
 8000d6e:	ee77 7a27 	vadd.f32	s15, s14, s15
 8000d72:	edc7 7a14 	vstr	s15, [r7, #80]	; 0x50
         acc6 += x5 * c0;   
 8000d76:	ed97 7a0c 	vldr	s14, [r7, #48]	; 0x30
 8000d7a:	edd7 7a05 	vldr	s15, [r7, #20]
 8000d7e:	ee67 7a27 	vmul.f32	s15, s14, s15
 8000d82:	ed97 7a13 	vldr	s14, [r7, #76]	; 0x4c
 8000d86:	ee77 7a27 	vadd.f32	s15, s14, s15
 8000d8a:	edc7 7a13 	vstr	s15, [r7, #76]	; 0x4c
         acc7 += x6 * c0;   
 8000d8e:	ed97 7a0b 	vldr	s14, [r7, #44]	; 0x2c
 8000d92:	edd7 7a05 	vldr	s15, [r7, #20]
 8000d96:	ee67 7a27 	vmul.f32	s15, s14, s15
 8000d9a:	ed97 7a12 	vldr	s14, [r7, #72]	; 0x48
 8000d9e:	ee77 7a27 	vadd.f32	s15, s14, s15
 8000da2:	edc7 7a12 	vstr	s15, [r7, #72]	; 0x48

         tapCnt--;
 8000da6:	6a7b      	ldr	r3, [r7, #36]	; 0x24
 8000da8:	3b01      	subs	r3, #1
 8000daa:	627b      	str	r3, [r7, #36]	; 0x24
      while(tapCnt > 0u)
 8000dac:	6a7b      	ldr	r3, [r7, #36]	; 0x24
 8000dae:	2b00      	cmp	r3, #0
 8000db0:	f47f aca9 	bne.w	8000706 <arm_fir_f32+0x142>
      }

      /* If the filter length is not a multiple of 8, compute the remaining filter taps */
      tapCnt = numTaps % 0x8u;
 8000db4:	69bb      	ldr	r3, [r7, #24]
 8000db6:	f003 0307 	and.w	r3, r3, #7
 8000dba:	627b      	str	r3, [r7, #36]	; 0x24

      while(tapCnt > 0u)
 8000dbc:	e07a      	b.n	8000eb4 <arm_fir_f32+0x8f0>
      {
         /* Read coefficients */
         c0 = *(pb++);
 8000dbe:	6ebb      	ldr	r3, [r7, #104]	; 0x68
 8000dc0:	1d1a      	adds	r2, r3, #4
 8000dc2:	66ba      	str	r2, [r7, #104]	; 0x68
 8000dc4:	681b      	ldr	r3, [r3, #0]
 8000dc6:	617b      	str	r3, [r7, #20]

         /* Fetch 1 state variable */
         x7 = *(px++);
 8000dc8:	6efb      	ldr	r3, [r7, #108]	; 0x6c
 8000dca:	1d1a      	adds	r2, r3, #4
 8000dcc:	66fa      	str	r2, [r7, #108]	; 0x6c
 8000dce:	681b      	ldr	r3, [r3, #0]
 8000dd0:	613b      	str	r3, [r7, #16]

         /* Perform the multiply-accumulates */      
         acc0 += x0 * c0;
 8000dd2:	ed97 7a11 	vldr	s14, [r7, #68]	; 0x44
 8000dd6:	edd7 7a05 	vldr	s15, [r7, #20]
 8000dda:	ee67 7a27 	vmul.f32	s15, s14, s15
 8000dde:	ed97 7a19 	vldr	s14, [r7, #100]	; 0x64
 8000de2:	ee77 7a27 	vadd.f32	s15, s14, s15
 8000de6:	edc7 7a19 	vstr	s15, [r7, #100]	; 0x64
         acc1 += x1 * c0;   
 8000dea:	ed97 7a10 	vldr	s14, [r7, #64]	; 0x40
 8000dee:	edd7 7a05 	vldr	s15, [r7, #20]
 8000df2:	ee67 7a27 	vmul.f32	s15, s14, s15
 8000df6:	ed97 7a18 	vldr	s14, [r7, #96]	; 0x60
 8000dfa:	ee77 7a27 	vadd.f32	s15, s14, s15
 8000dfe:	edc7 7a18 	vstr	s15, [r7, #96]	; 0x60
         acc2 += x2 * c0;   
 8000e02:	ed97 7a0f 	vldr	s14, [r7, #60]	; 0x3c
 8000e06:	edd7 7a05 	vldr	s15, [r7, #20]
 8000e0a:	ee67 7a27 	vmul.f32	s15, s14, s15
 8000e0e:	ed97 7a17 	vldr	s14, [r7, #92]	; 0x5c
 8000e12:	ee77 7a27 	vadd.f32	s15, s14, s15
 8000e16:	edc7 7a17 	vstr	s15, [r7, #92]	; 0x5c
         acc3 += x3 * c0;   
 8000e1a:	ed97 7a0e 	vldr	s14, [r7, #56]	; 0x38
 8000e1e:	edd7 7a05 	vldr	s15, [r7, #20]
 8000e22:	ee67 7a27 	vmul.f32	s15, s14, s15
 8000e26:	ed97 7a16 	vldr	s14, [r7, #88]	; 0x58
 8000e2a:	ee77 7a27 	vadd.f32	s15, s14, s15
 8000e2e:	edc7 7a16 	vstr	s15, [r7, #88]	; 0x58
         acc4 += x4 * c0;   
 8000e32:	ed97 7a0d 	vldr	s14, [r7, #52]	; 0x34
 8000e36:	edd7 7a05 	vldr	s15, [r7, #20]
 8000e3a:	ee67 7a27 	vmul.f32	s15, s14, s15
 8000e3e:	ed97 7a15 	vldr	s14, [r7, #84]	; 0x54
 8000e42:	ee77 7a27 	vadd.f32	s15, s14, s15
 8000e46:	edc7 7a15 	vstr	s15, [r7, #84]	; 0x54
         acc5 += x5 * c0;   
 8000e4a:	ed97 7a0c 	vldr	s14, [r7, #48]	; 0x30
 8000e4e:	edd7 7a05 	vldr	s15, [r7, #20]
 8000e52:	ee67 7a27 	vmul.f32	s15, s14, s15
 8000e56:	ed97 7a14 	vldr	s14, [r7, #80]	; 0x50
 8000e5a:	ee77 7a27 	vadd.f32	s15, s14, s15
 8000e5e:	edc7 7a14 	vstr	s15, [r7, #80]	; 0x50
         acc6 += x6 * c0;   
 8000e62:	ed97 7a0b 	vldr	s14, [r7, #44]	; 0x2c
 8000e66:	edd7 7a05 	vldr	s15, [r7, #20]
 8000e6a:	ee67 7a27 	vmul.f32	s15, s14, s15
 8000e6e:	ed97 7a13 	vldr	s14, [r7, #76]	; 0x4c
 8000e72:	ee77 7a27 	vadd.f32	s15, s14, s15
 8000e76:	edc7 7a13 	vstr	s15, [r7, #76]	; 0x4c
         acc7 += x7 * c0;   
 8000e7a:	ed97 7a04 	vldr	s14, [r7, #16]
 8000e7e:	edd7 7a05 	vldr	s15, [r7, #20]
 8000e82:	ee67 7a27 	vmul.f32	s15, s14, s15
 8000e86:	ed97 7a12 	vldr	s14, [r7, #72]	; 0x48
 8000e8a:	ee77 7a27 	vadd.f32	s15, s14, s15
 8000e8e:	edc7 7a12 	vstr	s15, [r7, #72]	; 0x48

         /* Reuse the present sample states for next sample */
         x0 = x1;
 8000e92:	6c3b      	ldr	r3, [r7, #64]	; 0x40
 8000e94:	647b      	str	r3, [r7, #68]	; 0x44
         x1 = x2;
 8000e96:	6bfb      	ldr	r3, [r7, #60]	; 0x3c
 8000e98:	643b      	str	r3, [r7, #64]	; 0x40
         x2 = x3;
 8000e9a:	6bbb      	ldr	r3, [r7, #56]	; 0x38
 8000e9c:	63fb      	str	r3, [r7, #60]	; 0x3c
         x3 = x4;
 8000e9e:	6b7b      	ldr	r3, [r7, #52]	; 0x34
 8000ea0:	63bb      	str	r3, [r7, #56]	; 0x38
         x4 = x5;
 8000ea2:	6b3b      	ldr	r3, [r7, #48]	; 0x30
 8000ea4:	637b      	str	r3, [r7, #52]	; 0x34
         x5 = x6;
 8000ea6:	6afb      	ldr	r3, [r7, #44]	; 0x2c
 8000ea8:	633b      	str	r3, [r7, #48]	; 0x30
         x6 = x7;
 8000eaa:	693b      	ldr	r3, [r7, #16]
 8000eac:	62fb      	str	r3, [r7, #44]	; 0x2c

         /* Decrement the loop counter */
         tapCnt--;
 8000eae:	6a7b      	ldr	r3, [r7, #36]	; 0x24
 8000eb0:	3b01      	subs	r3, #1
 8000eb2:	627b      	str	r3, [r7, #36]	; 0x24
      while(tapCnt > 0u)
 8000eb4:	6a7b      	ldr	r3, [r7, #36]	; 0x24
 8000eb6:	2b00      	cmp	r3, #0
 8000eb8:	d181      	bne.n	8000dbe <arm_fir_f32+0x7fa>
      }

      /* Advance the state pointer by 8 to process the next group of 8 samples */
      pState = pState + 8;
 8000eba:	6f7b      	ldr	r3, [r7, #116]	; 0x74
 8000ebc:	3320      	adds	r3, #32
 8000ebe:	677b      	str	r3, [r7, #116]	; 0x74

      /* The results in the 8 accumulators, store in the destination buffer. */
      *pDst++ = acc0;
 8000ec0:	687b      	ldr	r3, [r7, #4]
 8000ec2:	1d1a      	adds	r2, r3, #4
 8000ec4:	607a      	str	r2, [r7, #4]
 8000ec6:	6e7a      	ldr	r2, [r7, #100]	; 0x64
 8000ec8:	601a      	str	r2, [r3, #0]
      *pDst++ = acc1;
 8000eca:	687b      	ldr	r3, [r7, #4]
 8000ecc:	1d1a      	adds	r2, r3, #4
 8000ece:	607a      	str	r2, [r7, #4]
 8000ed0:	6e3a      	ldr	r2, [r7, #96]	; 0x60
 8000ed2:	601a      	str	r2, [r3, #0]
      *pDst++ = acc2;
 8000ed4:	687b      	ldr	r3, [r7, #4]
 8000ed6:	1d1a      	adds	r2, r3, #4
 8000ed8:	607a      	str	r2, [r7, #4]
 8000eda:	6dfa      	ldr	r2, [r7, #92]	; 0x5c
 8000edc:	601a      	str	r2, [r3, #0]
      *pDst++ = acc3;
 8000ede:	687b      	ldr	r3, [r7, #4]
 8000ee0:	1d1a      	adds	r2, r3, #4
 8000ee2:	607a      	str	r2, [r7, #4]
 8000ee4:	6dba      	ldr	r2, [r7, #88]	; 0x58
 8000ee6:	601a      	str	r2, [r3, #0]
      *pDst++ = acc4;
 8000ee8:	687b      	ldr	r3, [r7, #4]
 8000eea:	1d1a      	adds	r2, r3, #4
 8000eec:	607a      	str	r2, [r7, #4]
 8000eee:	6d7a      	ldr	r2, [r7, #84]	; 0x54
 8000ef0:	601a      	str	r2, [r3, #0]
      *pDst++ = acc5;
 8000ef2:	687b      	ldr	r3, [r7, #4]
 8000ef4:	1d1a      	adds	r2, r3, #4
 8000ef6:	607a      	str	r2, [r7, #4]
 8000ef8:	6d3a      	ldr	r2, [r7, #80]	; 0x50
 8000efa:	601a      	str	r2, [r3, #0]
      *pDst++ = acc6;
 8000efc:	687b      	ldr	r3, [r7, #4]
 8000efe:	1d1a      	adds	r2, r3, #4
 8000f00:	607a      	str	r2, [r7, #4]
 8000f02:	6cfa      	ldr	r2, [r7, #76]	; 0x4c
 8000f04:	601a      	str	r2, [r3, #0]
      *pDst++ = acc7;
 8000f06:	687b      	ldr	r3, [r7, #4]
 8000f08:	1d1a      	adds	r2, r3, #4
 8000f0a:	607a      	str	r2, [r7, #4]
 8000f0c:	6cba      	ldr	r2, [r7, #72]	; 0x48
 8000f0e:	601a      	str	r2, [r3, #0]

      blkCnt--;
 8000f10:	6a3b      	ldr	r3, [r7, #32]
 8000f12:	3b01      	subs	r3, #1
 8000f14:	623b      	str	r3, [r7, #32]
   while(blkCnt > 0u)
 8000f16:	6a3b      	ldr	r3, [r7, #32]
 8000f18:	2b00      	cmp	r3, #0
 8000f1a:	f47f ab71 	bne.w	8000600 <arm_fir_f32+0x3c>
   }

   /* If the blockSize is not a multiple of 8, compute any remaining output samples here.  
   ** No loop unrolling is used. */
   blkCnt = blockSize % 0x8u;
 8000f1e:	683b      	ldr	r3, [r7, #0]
 8000f20:	f003 0307 	and.w	r3, r3, #7
 8000f24:	623b      	str	r3, [r7, #32]

   while(blkCnt > 0u)
 8000f26:	e033      	b.n	8000f90 <arm_fir_f32+0x9cc>
   {
      /* Copy one sample at a time into state buffer */
      *pStateCurnt++ = *pSrc++;
 8000f28:	68ba      	ldr	r2, [r7, #8]
 8000f2a:	1d13      	adds	r3, r2, #4
 8000f2c:	60bb      	str	r3, [r7, #8]
 8000f2e:	6f3b      	ldr	r3, [r7, #112]	; 0x70
 8000f30:	1d19      	adds	r1, r3, #4
 8000f32:	6739      	str	r1, [r7, #112]	; 0x70
 8000f34:	6812      	ldr	r2, [r2, #0]
 8000f36:	601a      	str	r2, [r3, #0]

      /* Set the accumulator to zero */
      acc0 = 0.0f;
 8000f38:	f04f 0300 	mov.w	r3, #0
 8000f3c:	667b      	str	r3, [r7, #100]	; 0x64

      /* Initialize state pointer */
      px = pState;
 8000f3e:	6f7b      	ldr	r3, [r7, #116]	; 0x74
 8000f40:	66fb      	str	r3, [r7, #108]	; 0x6c

      /* Initialize Coefficient pointer */
      pb = (pCoeffs);
 8000f42:	69fb      	ldr	r3, [r7, #28]
 8000f44:	66bb      	str	r3, [r7, #104]	; 0x68

      i = numTaps;
 8000f46:	69bb      	ldr	r3, [r7, #24]
 8000f48:	62bb      	str	r3, [r7, #40]	; 0x28

      /* Perform the multiply-accumulates */
      do
      {
         acc0 += *px++ * *pb++;
 8000f4a:	6efb      	ldr	r3, [r7, #108]	; 0x6c
 8000f4c:	1d1a      	adds	r2, r3, #4
 8000f4e:	66fa      	str	r2, [r7, #108]	; 0x6c
 8000f50:	ed93 7a00 	vldr	s14, [r3]
 8000f54:	6ebb      	ldr	r3, [r7, #104]	; 0x68
 8000f56:	1d1a      	adds	r2, r3, #4
 8000f58:	66ba      	str	r2, [r7, #104]	; 0x68
 8000f5a:	edd3 7a00 	vldr	s15, [r3]
 8000f5e:	ee67 7a27 	vmul.f32	s15, s14, s15
 8000f62:	ed97 7a19 	vldr	s14, [r7, #100]	; 0x64
 8000f66:	ee77 7a27 	vadd.f32	s15, s14, s15
 8000f6a:	edc7 7a19 	vstr	s15, [r7, #100]	; 0x64
         i--;
 8000f6e:	6abb      	ldr	r3, [r7, #40]	; 0x28
 8000f70:	3b01      	subs	r3, #1
 8000f72:	62bb      	str	r3, [r7, #40]	; 0x28

      } while(i > 0u);
 8000f74:	6abb      	ldr	r3, [r7, #40]	; 0x28
 8000f76:	2b00      	cmp	r3, #0
 8000f78:	d1e7      	bne.n	8000f4a <arm_fir_f32+0x986>

      /* The result is store in the destination buffer. */
      *pDst++ = acc0;
 8000f7a:	687b      	ldr	r3, [r7, #4]
 8000f7c:	1d1a      	adds	r2, r3, #4
 8000f7e:	607a      	str	r2, [r7, #4]
 8000f80:	6e7a      	ldr	r2, [r7, #100]	; 0x64
 8000f82:	601a      	str	r2, [r3, #0]

      /* Advance state pointer by 1 for the next sample */
      pState = pState + 1;
 8000f84:	6f7b      	ldr	r3, [r7, #116]	; 0x74
 8000f86:	3304      	adds	r3, #4
 8000f88:	677b      	str	r3, [r7, #116]	; 0x74

      blkCnt--;
 8000f8a:	6a3b      	ldr	r3, [r7, #32]
 8000f8c:	3b01      	subs	r3, #1
 8000f8e:	623b      	str	r3, [r7, #32]
   while(blkCnt > 0u)
 8000f90:	6a3b      	ldr	r3, [r7, #32]
 8000f92:	2b00      	cmp	r3, #0
 8000f94:	d1c8      	bne.n	8000f28 <arm_fir_f32+0x964>
   /* Processing is complete.  
   ** Now copy the last numTaps - 1 samples to the start of the state buffer.  
   ** This prepares the state buffer for the next function call. */

   /* Points to the start of the state buffer */
   pStateCurnt = S->pState;
 8000f96:	68fb      	ldr	r3, [r7, #12]
 8000f98:	685b      	ldr	r3, [r3, #4]
 8000f9a:	673b      	str	r3, [r7, #112]	; 0x70

   tapCnt = (numTaps - 1u) >> 2u;
 8000f9c:	69bb      	ldr	r3, [r7, #24]
 8000f9e:	3b01      	subs	r3, #1
 8000fa0:	089b      	lsrs	r3, r3, #2
 8000fa2:	627b      	str	r3, [r7, #36]	; 0x24

   /* copy data */
   while(tapCnt > 0u)
 8000fa4:	e022      	b.n	8000fec <arm_fir_f32+0xa28>
   {
      *pStateCurnt++ = *pState++;
 8000fa6:	6f7a      	ldr	r2, [r7, #116]	; 0x74
 8000fa8:	1d13      	adds	r3, r2, #4
 8000faa:	677b      	str	r3, [r7, #116]	; 0x74
 8000fac:	6f3b      	ldr	r3, [r7, #112]	; 0x70
 8000fae:	1d19      	adds	r1, r3, #4
 8000fb0:	6739      	str	r1, [r7, #112]	; 0x70
 8000fb2:	6812      	ldr	r2, [r2, #0]
 8000fb4:	601a      	str	r2, [r3, #0]
      *pStateCurnt++ = *pState++;
 8000fb6:	6f7a      	ldr	r2, [r7, #116]	; 0x74
 8000fb8:	1d13      	adds	r3, r2, #4
 8000fba:	677b      	str	r3, [r7, #116]	; 0x74
 8000fbc:	6f3b      	ldr	r3, [r7, #112]	; 0x70
 8000fbe:	1d19      	adds	r1, r3, #4
 8000fc0:	6739      	str	r1, [r7, #112]	; 0x70
 8000fc2:	6812      	ldr	r2, [r2, #0]
 8000fc4:	601a      	str	r2, [r3, #0]
      *pStateCurnt++ = *pState++;
 8000fc6:	6f7a      	ldr	r2, [r7, #116]	; 0x74
 8000fc8:	1d13      	adds	r3, r2, #4
 8000fca:	677b      	str	r3, [r7, #116]	; 0x74
 8000fcc:	6f3b      	ldr	r3, [r7, #112]	; 0x70
 8000fce:	1d19      	adds	r1, r3, #4
 8000fd0:	6739      	str	r1, [r7, #112]	; 0x70
 8000fd2:	6812      	ldr	r2, [r2, #0]
 8000fd4:	601a      	str	r2, [r3, #0]
      *pStateCurnt++ = *pState++;
 8000fd6:	6f7a      	ldr	r2, [r7, #116]	; 0x74
 8000fd8:	1d13      	adds	r3, r2, #4
 8000fda:	677b      	str	r3, [r7, #116]	; 0x74
 8000fdc:	6f3b      	ldr	r3, [r7, #112]	; 0x70
 8000fde:	1d19      	adds	r1, r3, #4
 8000fe0:	6739      	str	r1, [r7, #112]	; 0x70
 8000fe2:	6812      	ldr	r2, [r2, #0]
 8000fe4:	601a      	str	r2, [r3, #0]

      /* Decrement the loop counter */
      tapCnt--;
 8000fe6:	6a7b      	ldr	r3, [r7, #36]	; 0x24
 8000fe8:	3b01      	subs	r3, #1
 8000fea:	627b      	str	r3, [r7, #36]	; 0x24
   while(tapCnt > 0u)
 8000fec:	6a7b      	ldr	r3, [r7, #36]	; 0x24
 8000fee:	2b00      	cmp	r3, #0
 8000ff0:	d1d9      	bne.n	8000fa6 <arm_fir_f32+0x9e2>
   }

   /* Calculate remaining number of copies */
   tapCnt = (numTaps - 1u) % 0x4u;
 8000ff2:	69bb      	ldr	r3, [r7, #24]
 8000ff4:	3b01      	subs	r3, #1
 8000ff6:	f003 0303 	and.w	r3, r3, #3
 8000ffa:	627b      	str	r3, [r7, #36]	; 0x24

   /* Copy the remaining q31_t data */
   while(tapCnt > 0u)
 8000ffc:	e00a      	b.n	8001014 <arm_fir_f32+0xa50>
   {
      *pStateCurnt++ = *pState++;
 8000ffe:	6f7a      	ldr	r2, [r7, #116]	; 0x74
 8001000:	1d13      	adds	r3, r2, #4
 8001002:	677b      	str	r3, [r7, #116]	; 0x74
 8001004:	6f3b      	ldr	r3, [r7, #112]	; 0x70
 8001006:	1d19      	adds	r1, r3, #4
 8001008:	6739      	str	r1, [r7, #112]	; 0x70
 800100a:	6812      	ldr	r2, [r2, #0]
 800100c:	601a      	str	r2, [r3, #0]

      /* Decrement the loop counter */
      tapCnt--;
 800100e:	6a7b      	ldr	r3, [r7, #36]	; 0x24
 8001010:	3b01      	subs	r3, #1
 8001012:	627b      	str	r3, [r7, #36]	; 0x24
   while(tapCnt > 0u)
 8001014:	6a7b      	ldr	r3, [r7, #36]	; 0x24
 8001016:	2b00      	cmp	r3, #0
 8001018:	d1f1      	bne.n	8000ffe <arm_fir_f32+0xa3a>
   }
}
 800101a:	bf00      	nop
 800101c:	bf00      	nop
 800101e:	377c      	adds	r7, #124	; 0x7c
 8001020:	46bd      	mov	sp, r7
 8001022:	f85d 7b04 	ldr.w	r7, [sp], #4
 8001026:	4770      	bx	lr

08001028 <arm_fir_init_f32>:
  arm_fir_instance_f32 * S,
  uint16_t numTaps,
  float32_t * pCoeffs,
  float32_t * pState,
  uint32_t blockSize)
{
 8001028:	b580      	push	{r7, lr}
 800102a:	b084      	sub	sp, #16
 800102c:	af00      	add	r7, sp, #0
 800102e:	60f8      	str	r0, [r7, #12]
 8001030:	607a      	str	r2, [r7, #4]
 8001032:	603b      	str	r3, [r7, #0]
 8001034:	460b      	mov	r3, r1
 8001036:	817b      	strh	r3, [r7, #10]
  /* Assign filter taps */
  S->numTaps = numTaps;
 8001038:	68fb      	ldr	r3, [r7, #12]
 800103a:	897a      	ldrh	r2, [r7, #10]
 800103c:	801a      	strh	r2, [r3, #0]

  /* Assign coefficient pointer */
  S->pCoeffs = pCoeffs;
 800103e:	68fb      	ldr	r3, [r7, #12]
 8001040:	687a      	ldr	r2, [r7, #4]
 8001042:	609a      	str	r2, [r3, #8]

  /* Clear state buffer and the size of state buffer is (blockSize + numTaps - 1) */
  memset(pState, 0, (numTaps + (blockSize - 1u)) * sizeof(float32_t));
 8001044:	897a      	ldrh	r2, [r7, #10]
 8001046:	69bb      	ldr	r3, [r7, #24]
 8001048:	4413      	add	r3, r2
 800104a:	3b01      	subs	r3, #1
 800104c:	009b      	lsls	r3, r3, #2
 800104e:	461a      	mov	r2, r3
 8001050:	2100      	movs	r1, #0
 8001052:	6838      	ldr	r0, [r7, #0]
 8001054:	f007 f878 	bl	8008148 <memset>

  /* Assign state pointer */
  S->pState = pState;
 8001058:	68fb      	ldr	r3, [r7, #12]
 800105a:	683a      	ldr	r2, [r7, #0]
 800105c:	605a      	str	r2, [r3, #4]

}
 800105e:	bf00      	nop
 8001060:	3710      	adds	r7, #16
 8001062:	46bd      	mov	sp, r7
 8001064:	bd80      	pop	{r7, pc}

08001066 <read_register>:

// SPI helpers //

// Reads single register
static uint8_t read_register(lora_sx1276 *lora, uint8_t address)
{
 8001066:	b580      	push	{r7, lr}
 8001068:	b086      	sub	sp, #24
 800106a:	af00      	add	r7, sp, #0
 800106c:	6078      	str	r0, [r7, #4]
 800106e:	460b      	mov	r3, r1
 8001070:	70fb      	strb	r3, [r7, #3]
  uint8_t value = 0;
 8001072:	2300      	movs	r3, #0
 8001074:	73fb      	strb	r3, [r7, #15]

  // 7bit controls read/write mode
  CLEAR_BIT(address, BIT_7);
 8001076:	78fb      	ldrb	r3, [r7, #3]
 8001078:	f003 037f 	and.w	r3, r3, #127	; 0x7f
 800107c:	b2db      	uxtb	r3, r3
 800107e:	70fb      	strb	r3, [r7, #3]

  // Start SPI transaction
  HAL_GPIO_WritePin(lora->nss_port, lora->nss_pin, GPIO_PIN_RESET);
 8001080:	687b      	ldr	r3, [r7, #4]
 8001082:	6858      	ldr	r0, [r3, #4]
 8001084:	687b      	ldr	r3, [r7, #4]
 8001086:	8adb      	ldrh	r3, [r3, #22]
 8001088:	2200      	movs	r2, #0
 800108a:	4619      	mov	r1, r3
 800108c:	f002 fb4a 	bl	8003724 <HAL_GPIO_WritePin>
  // Transmit reg address, then receive it value
  uint32_t res1 = HAL_SPI_Transmit(lora->spi, &address, 1, lora->spi_timeout);
 8001090:	687b      	ldr	r3, [r7, #4]
 8001092:	6818      	ldr	r0, [r3, #0]
 8001094:	687b      	ldr	r3, [r7, #4]
 8001096:	689b      	ldr	r3, [r3, #8]
 8001098:	1cf9      	adds	r1, r7, #3
 800109a:	2201      	movs	r2, #1
 800109c:	f004 fb3b 	bl	8005716 <HAL_SPI_Transmit>
 80010a0:	4603      	mov	r3, r0
 80010a2:	617b      	str	r3, [r7, #20]
  uint32_t res2 = HAL_SPI_Receive(lora->spi, &value, 1, lora->spi_timeout);
 80010a4:	687b      	ldr	r3, [r7, #4]
 80010a6:	6818      	ldr	r0, [r3, #0]
 80010a8:	687b      	ldr	r3, [r7, #4]
 80010aa:	689b      	ldr	r3, [r3, #8]
 80010ac:	f107 010f 	add.w	r1, r7, #15
 80010b0:	2201      	movs	r2, #1
 80010b2:	f004 fc6c 	bl	800598e <HAL_SPI_Receive>
 80010b6:	4603      	mov	r3, r0
 80010b8:	613b      	str	r3, [r7, #16]
  // End SPI transaction
  HAL_GPIO_WritePin(lora->nss_port, lora->nss_pin, GPIO_PIN_SET);
 80010ba:	687b      	ldr	r3, [r7, #4]
 80010bc:	6858      	ldr	r0, [r3, #4]
 80010be:	687b      	ldr	r3, [r7, #4]
 80010c0:	8adb      	ldrh	r3, [r3, #22]
 80010c2:	2201      	movs	r2, #1
 80010c4:	4619      	mov	r1, r3
 80010c6:	f002 fb2d 	bl	8003724 <HAL_GPIO_WritePin>

  if (res1 != HAL_OK || res2 != HAL_OK) {
    DEBUGF("SPI transmit/receive failed (%d %d)", res1, res2);
  }

  return value;
 80010ca:	7bfb      	ldrb	r3, [r7, #15]
}
 80010cc:	4618      	mov	r0, r3
 80010ce:	3718      	adds	r7, #24
 80010d0:	46bd      	mov	sp, r7
 80010d2:	bd80      	pop	{r7, pc}

080010d4 <write_register>:

// Writes single register
static void write_register(lora_sx1276 *lora, uint8_t address, uint8_t value)
{
 80010d4:	b580      	push	{r7, lr}
 80010d6:	b084      	sub	sp, #16
 80010d8:	af00      	add	r7, sp, #0
 80010da:	6078      	str	r0, [r7, #4]
 80010dc:	460b      	mov	r3, r1
 80010de:	70fb      	strb	r3, [r7, #3]
 80010e0:	4613      	mov	r3, r2
 80010e2:	70bb      	strb	r3, [r7, #2]
  // 7bit controls read/write mode
  SET_BIT(address, BIT_7);
 80010e4:	78fb      	ldrb	r3, [r7, #3]
 80010e6:	f063 037f 	orn	r3, r3, #127	; 0x7f
 80010ea:	70fb      	strb	r3, [r7, #3]

  // Reg address + its new value
  uint16_t payload = (value << 8) | address;
 80010ec:	78bb      	ldrb	r3, [r7, #2]
 80010ee:	021b      	lsls	r3, r3, #8
 80010f0:	b21a      	sxth	r2, r3
 80010f2:	78fb      	ldrb	r3, [r7, #3]
 80010f4:	b21b      	sxth	r3, r3
 80010f6:	4313      	orrs	r3, r2
 80010f8:	b21b      	sxth	r3, r3
 80010fa:	b29b      	uxth	r3, r3
 80010fc:	817b      	strh	r3, [r7, #10]

  // Start SPI transaction, send address + value
  HAL_GPIO_WritePin(lora->nss_port, lora->nss_pin, GPIO_PIN_RESET);
 80010fe:	687b      	ldr	r3, [r7, #4]
 8001100:	6858      	ldr	r0, [r3, #4]
 8001102:	687b      	ldr	r3, [r7, #4]
 8001104:	8adb      	ldrh	r3, [r3, #22]
 8001106:	2200      	movs	r2, #0
 8001108:	4619      	mov	r1, r3
 800110a:	f002 fb0b 	bl	8003724 <HAL_GPIO_WritePin>
  uint32_t res = HAL_SPI_Transmit(lora->spi, (uint8_t*)&payload, 2, lora->spi_timeout);
 800110e:	687b      	ldr	r3, [r7, #4]
 8001110:	6818      	ldr	r0, [r3, #0]
 8001112:	687b      	ldr	r3, [r7, #4]
 8001114:	689b      	ldr	r3, [r3, #8]
 8001116:	f107 010a 	add.w	r1, r7, #10
 800111a:	2202      	movs	r2, #2
 800111c:	f004 fafb 	bl	8005716 <HAL_SPI_Transmit>
 8001120:	4603      	mov	r3, r0
 8001122:	60fb      	str	r3, [r7, #12]
  // End SPI transaction
  HAL_GPIO_WritePin(lora->nss_port, lora->nss_pin, GPIO_PIN_SET);
 8001124:	687b      	ldr	r3, [r7, #4]
 8001126:	6858      	ldr	r0, [r3, #4]
 8001128:	687b      	ldr	r3, [r7, #4]
 800112a:	8adb      	ldrh	r3, [r3, #22]
 800112c:	2201      	movs	r2, #1
 800112e:	4619      	mov	r1, r3
 8001130:	f002 faf8 	bl	8003724 <HAL_GPIO_WritePin>

  if (res != HAL_OK) {
    DEBUGF("SPI transmit failed: %d", res);
  }
}
 8001134:	bf00      	nop
 8001136:	3710      	adds	r7, #16
 8001138:	46bd      	mov	sp, r7
 800113a:	bd80      	pop	{r7, pc}

0800113c <set_mode>:
    DEBUGF("SPI receive/transmit failed");
  }
}

static void set_mode(lora_sx1276 *lora, uint8_t mode)
{
 800113c:	b580      	push	{r7, lr}
 800113e:	b082      	sub	sp, #8
 8001140:	af00      	add	r7, sp, #0
 8001142:	6078      	str	r0, [r7, #4]
 8001144:	460b      	mov	r3, r1
 8001146:	70fb      	strb	r3, [r7, #3]
  write_register(lora, REG_OP_MODE, OPMODE_LONG_RANGE_MODE | mode);
 8001148:	78fb      	ldrb	r3, [r7, #3]
 800114a:	f063 037f 	orn	r3, r3, #127	; 0x7f
 800114e:	b2db      	uxtb	r3, r3
 8001150:	461a      	mov	r2, r3
 8001152:	2101      	movs	r1, #1
 8001154:	6878      	ldr	r0, [r7, #4]
 8001156:	f7ff ffbd 	bl	80010d4 <write_register>
}
 800115a:	bf00      	nop
 800115c:	3708      	adds	r7, #8
 800115e:	46bd      	mov	sp, r7
 8001160:	bd80      	pop	{r7, pc}
	...

08001164 <set_OCP>:

// Set Overload Current Protection
static void set_OCP(lora_sx1276 *lora, uint8_t imax)
{
 8001164:	b580      	push	{r7, lr}
 8001166:	b084      	sub	sp, #16
 8001168:	af00      	add	r7, sp, #0
 800116a:	6078      	str	r0, [r7, #4]
 800116c:	460b      	mov	r3, r1
 800116e:	70fb      	strb	r3, [r7, #3]
  uint8_t value;

  // Minimum available current is 45mA, maximum 240mA
  // As per page 80 of datasheet
  if (imax < 45) {
 8001170:	78fb      	ldrb	r3, [r7, #3]
 8001172:	2b2c      	cmp	r3, #44	; 0x2c
 8001174:	d801      	bhi.n	800117a <set_OCP+0x16>
    imax = 45;
 8001176:	232d      	movs	r3, #45	; 0x2d
 8001178:	70fb      	strb	r3, [r7, #3]
  }
  if (imax > 240) {
 800117a:	78fb      	ldrb	r3, [r7, #3]
 800117c:	2bf0      	cmp	r3, #240	; 0xf0
 800117e:	d901      	bls.n	8001184 <set_OCP+0x20>
    imax = 240;
 8001180:	23f0      	movs	r3, #240	; 0xf0
 8001182:	70fb      	strb	r3, [r7, #3]
  }

  if (imax < 130) {
 8001184:	78fb      	ldrb	r3, [r7, #3]
 8001186:	2b81      	cmp	r3, #129	; 0x81
 8001188:	d809      	bhi.n	800119e <set_OCP+0x3a>
    value = (imax - 45) / 5;
 800118a:	78fb      	ldrb	r3, [r7, #3]
 800118c:	3b2d      	subs	r3, #45	; 0x2d
 800118e:	4a0f      	ldr	r2, [pc, #60]	; (80011cc <set_OCP+0x68>)
 8001190:	fb82 1203 	smull	r1, r2, r2, r3
 8001194:	1052      	asrs	r2, r2, #1
 8001196:	17db      	asrs	r3, r3, #31
 8001198:	1ad3      	subs	r3, r2, r3
 800119a:	73fb      	strb	r3, [r7, #15]
 800119c:	e008      	b.n	80011b0 <set_OCP+0x4c>
  } else {
    value = (imax + 30) / 10;
 800119e:	78fb      	ldrb	r3, [r7, #3]
 80011a0:	331e      	adds	r3, #30
 80011a2:	4a0a      	ldr	r2, [pc, #40]	; (80011cc <set_OCP+0x68>)
 80011a4:	fb82 1203 	smull	r1, r2, r2, r3
 80011a8:	1092      	asrs	r2, r2, #2
 80011aa:	17db      	asrs	r3, r3, #31
 80011ac:	1ad3      	subs	r3, r2, r3
 80011ae:	73fb      	strb	r3, [r7, #15]
  }

  write_register(lora, REG_OCP, OCP_ON | value);
 80011b0:	7bfb      	ldrb	r3, [r7, #15]
 80011b2:	f043 0320 	orr.w	r3, r3, #32
 80011b6:	b2db      	uxtb	r3, r3
 80011b8:	461a      	mov	r2, r3
 80011ba:	210b      	movs	r1, #11
 80011bc:	6878      	ldr	r0, [r7, #4]
 80011be:	f7ff ff89 	bl	80010d4 <write_register>
}
 80011c2:	bf00      	nop
 80011c4:	3710      	adds	r7, #16
 80011c6:	46bd      	mov	sp, r7
 80011c8:	bd80      	pop	{r7, pc}
 80011ca:	bf00      	nop
 80011cc:	66666667 	.word	0x66666667

080011d0 <set_low_data_rate_optimization>:

static void set_low_data_rate_optimization(lora_sx1276 *lora)
{
 80011d0:	b5b0      	push	{r4, r5, r7, lr}
 80011d2:	b088      	sub	sp, #32
 80011d4:	af00      	add	r7, sp, #0
 80011d6:	6078      	str	r0, [r7, #4]
  assert_param(lora);

  // Read current signal bandwidth
  uint64_t bandwidth = read_register(lora, REG_MODEM_CONFIG_1) >> 4;
 80011d8:	211d      	movs	r1, #29
 80011da:	6878      	ldr	r0, [r7, #4]
 80011dc:	f7ff ff43 	bl	8001066 <read_register>
 80011e0:	4603      	mov	r3, r0
 80011e2:	091b      	lsrs	r3, r3, #4
 80011e4:	b2db      	uxtb	r3, r3
 80011e6:	b2db      	uxtb	r3, r3
 80011e8:	2200      	movs	r2, #0
 80011ea:	461c      	mov	r4, r3
 80011ec:	4615      	mov	r5, r2
 80011ee:	e9c7 4504 	strd	r4, r5, [r7, #16]
  // Read current spreading factor
  uint8_t  sf = read_register(lora, REG_MODEM_CONFIG_2) >> 4;
 80011f2:	211e      	movs	r1, #30
 80011f4:	6878      	ldr	r0, [r7, #4]
 80011f6:	f7ff ff36 	bl	8001066 <read_register>
 80011fa:	4603      	mov	r3, r0
 80011fc:	091b      	lsrs	r3, r3, #4
 80011fe:	73fb      	strb	r3, [r7, #15]

  uint8_t  mc3 = MC3_AGCAUTO;
 8001200:	2304      	movs	r3, #4
 8001202:	77fb      	strb	r3, [r7, #31]

  if (sf >= 11 && bandwidth == LORA_BANDWIDTH_125_KHZ) {
 8001204:	7bfb      	ldrb	r3, [r7, #15]
 8001206:	2b0a      	cmp	r3, #10
 8001208:	d908      	bls.n	800121c <set_low_data_rate_optimization+0x4c>
 800120a:	e9d7 2304 	ldrd	r2, r3, [r7, #16]
 800120e:	1fd1      	subs	r1, r2, #7
 8001210:	430b      	orrs	r3, r1
 8001212:	d103      	bne.n	800121c <set_low_data_rate_optimization+0x4c>
    mc3 |= MC3_MOBILE_NODE;
 8001214:	7ffb      	ldrb	r3, [r7, #31]
 8001216:	f043 0308 	orr.w	r3, r3, #8
 800121a:	77fb      	strb	r3, [r7, #31]
  }

  write_register(lora, REG_MODEM_CONFIG_3, mc3);
 800121c:	7ffb      	ldrb	r3, [r7, #31]
 800121e:	461a      	mov	r2, r3
 8001220:	2126      	movs	r1, #38	; 0x26
 8001222:	6878      	ldr	r0, [r7, #4]
 8001224:	f7ff ff56 	bl	80010d4 <write_register>
}
 8001228:	bf00      	nop
 800122a:	3720      	adds	r7, #32
 800122c:	46bd      	mov	sp, r7
 800122e:	bdb0      	pop	{r4, r5, r7, pc}

08001230 <lora_mode_sleep>:

void lora_mode_sleep(lora_sx1276 *lora)
{
 8001230:	b580      	push	{r7, lr}
 8001232:	b082      	sub	sp, #8
 8001234:	af00      	add	r7, sp, #0
 8001236:	6078      	str	r0, [r7, #4]
  assert_param(lora);

  set_mode(lora, OPMODE_SLEEP);
 8001238:	2100      	movs	r1, #0
 800123a:	6878      	ldr	r0, [r7, #4]
 800123c:	f7ff ff7e 	bl	800113c <set_mode>
}
 8001240:	bf00      	nop
 8001242:	3708      	adds	r7, #8
 8001244:	46bd      	mov	sp, r7
 8001246:	bd80      	pop	{r7, pc}

08001248 <lora_mode_standby>:

  set_mode(lora, OPMODE_RX_SINGLE);
}

void lora_mode_standby(lora_sx1276 *lora)
{
 8001248:	b580      	push	{r7, lr}
 800124a:	b082      	sub	sp, #8
 800124c:	af00      	add	r7, sp, #0
 800124e:	6078      	str	r0, [r7, #4]
  assert_param(lora);

  set_mode(lora, OPMODE_STDBY);
 8001250:	2101      	movs	r1, #1
 8001252:	6878      	ldr	r0, [r7, #4]
 8001254:	f7ff ff72 	bl	800113c <set_mode>
}
 8001258:	bf00      	nop
 800125a:	3708      	adds	r7, #8
 800125c:	46bd      	mov	sp, r7
 800125e:	bd80      	pop	{r7, pc}

08001260 <lora_set_explicit_header_mode>:
  mc1 |= MC1_IMPLICIT_HEADER_MODE;
  write_register(lora, REG_MODEM_CONFIG_1, mc1);
}

void lora_set_explicit_header_mode(lora_sx1276 *lora)
{
 8001260:	b580      	push	{r7, lr}
 8001262:	b084      	sub	sp, #16
 8001264:	af00      	add	r7, sp, #0
 8001266:	6078      	str	r0, [r7, #4]
  assert_param(lora);

  uint8_t mc1 = read_register(lora, REG_MODEM_CONFIG_1);
 8001268:	211d      	movs	r1, #29
 800126a:	6878      	ldr	r0, [r7, #4]
 800126c:	f7ff fefb 	bl	8001066 <read_register>
 8001270:	4603      	mov	r3, r0
 8001272:	73fb      	strb	r3, [r7, #15]
  mc1 &= ~MC1_IMPLICIT_HEADER_MODE;
 8001274:	7bfb      	ldrb	r3, [r7, #15]
 8001276:	f023 0301 	bic.w	r3, r3, #1
 800127a:	73fb      	strb	r3, [r7, #15]
  write_register(lora, REG_MODEM_CONFIG_1, mc1);
 800127c:	7bfb      	ldrb	r3, [r7, #15]
 800127e:	461a      	mov	r2, r3
 8001280:	211d      	movs	r1, #29
 8001282:	6878      	ldr	r0, [r7, #4]
 8001284:	f7ff ff26 	bl	80010d4 <write_register>
}
 8001288:	bf00      	nop
 800128a:	3710      	adds	r7, #16
 800128c:	46bd      	mov	sp, r7
 800128e:	bd80      	pop	{r7, pc}

08001290 <lora_set_tx_power>:

void lora_set_tx_power(lora_sx1276 *lora, uint8_t level)
{
 8001290:	b580      	push	{r7, lr}
 8001292:	b082      	sub	sp, #8
 8001294:	af00      	add	r7, sp, #0
 8001296:	6078      	str	r0, [r7, #4]
 8001298:	460b      	mov	r3, r1
 800129a:	70fb      	strb	r3, [r7, #3]
  assert_param(lora);

  if (lora->pa_mode == LORA_PA_OUTPUT_RFO) {
 800129c:	687b      	ldr	r3, [r7, #4]
 800129e:	691b      	ldr	r3, [r3, #16]
 80012a0:	2b00      	cmp	r3, #0
 80012a2:	d10e      	bne.n	80012c2 <lora_set_tx_power+0x32>
    // RFO pin
    assert_param(level <= 15);
    if (level > 15) {
 80012a4:	78fb      	ldrb	r3, [r7, #3]
 80012a6:	2b0f      	cmp	r3, #15
 80012a8:	d901      	bls.n	80012ae <lora_set_tx_power+0x1e>
      level = 15;
 80012aa:	230f      	movs	r3, #15
 80012ac:	70fb      	strb	r3, [r7, #3]
    }
    // 7 bit -> PaSelect: 0 for RFO    --- = 0x70
    // 6-4 bits -> MaxPower (select all) --^
    // 3-0 bits -> Output power, dB (max 15)
    write_register(lora, REG_PA_CONFIG, 0x70 | level);
 80012ae:	78fb      	ldrb	r3, [r7, #3]
 80012b0:	f043 0370 	orr.w	r3, r3, #112	; 0x70
 80012b4:	b2db      	uxtb	r3, r3
 80012b6:	461a      	mov	r2, r3
 80012b8:	2109      	movs	r1, #9
 80012ba:	6878      	ldr	r0, [r7, #4]
 80012bc:	f7ff ff0a 	bl	80010d4 <write_register>
    // Minimum power level is 2 which is 0 for chip
    level -= 2;
    // 7 bit -> PaSelect: 1 for PA_BOOST
    write_register(lora, REG_PA_CONFIG, BIT_7 | level);
  }
}
 80012c0:	e02e      	b.n	8001320 <lora_set_tx_power+0x90>
    if (level > 20) {
 80012c2:	78fb      	ldrb	r3, [r7, #3]
 80012c4:	2b14      	cmp	r3, #20
 80012c6:	d901      	bls.n	80012cc <lora_set_tx_power+0x3c>
      level = 20;
 80012c8:	2314      	movs	r3, #20
 80012ca:	70fb      	strb	r3, [r7, #3]
    if (level < 2) {
 80012cc:	78fb      	ldrb	r3, [r7, #3]
 80012ce:	2b01      	cmp	r3, #1
 80012d0:	d801      	bhi.n	80012d6 <lora_set_tx_power+0x46>
      level = 2;
 80012d2:	2302      	movs	r3, #2
 80012d4:	70fb      	strb	r3, [r7, #3]
    if (level > 17) {
 80012d6:	78fb      	ldrb	r3, [r7, #3]
 80012d8:	2b11      	cmp	r3, #17
 80012da:	d90c      	bls.n	80012f6 <lora_set_tx_power+0x66>
      level -= 3;
 80012dc:	78fb      	ldrb	r3, [r7, #3]
 80012de:	3b03      	subs	r3, #3
 80012e0:	70fb      	strb	r3, [r7, #3]
      write_register(lora, REG_PA_DAC, PA_DAC_HIGH_POWER);
 80012e2:	2287      	movs	r2, #135	; 0x87
 80012e4:	214d      	movs	r1, #77	; 0x4d
 80012e6:	6878      	ldr	r0, [r7, #4]
 80012e8:	f7ff fef4 	bl	80010d4 <write_register>
      set_OCP(lora, 140);
 80012ec:	218c      	movs	r1, #140	; 0x8c
 80012ee:	6878      	ldr	r0, [r7, #4]
 80012f0:	f7ff ff38 	bl	8001164 <set_OCP>
 80012f4:	e008      	b.n	8001308 <lora_set_tx_power+0x78>
      write_register(lora, REG_PA_DAC, PA_DAC_HALF_POWER);
 80012f6:	2284      	movs	r2, #132	; 0x84
 80012f8:	214d      	movs	r1, #77	; 0x4d
 80012fa:	6878      	ldr	r0, [r7, #4]
 80012fc:	f7ff feea 	bl	80010d4 <write_register>
      set_OCP(lora, 97);
 8001300:	2161      	movs	r1, #97	; 0x61
 8001302:	6878      	ldr	r0, [r7, #4]
 8001304:	f7ff ff2e 	bl	8001164 <set_OCP>
    level -= 2;
 8001308:	78fb      	ldrb	r3, [r7, #3]
 800130a:	3b02      	subs	r3, #2
 800130c:	70fb      	strb	r3, [r7, #3]
    write_register(lora, REG_PA_CONFIG, BIT_7 | level);
 800130e:	78fb      	ldrb	r3, [r7, #3]
 8001310:	f063 037f 	orn	r3, r3, #127	; 0x7f
 8001314:	b2db      	uxtb	r3, r3
 8001316:	461a      	mov	r2, r3
 8001318:	2109      	movs	r1, #9
 800131a:	6878      	ldr	r0, [r7, #4]
 800131c:	f7ff feda 	bl	80010d4 <write_register>
}
 8001320:	bf00      	nop
 8001322:	3708      	adds	r7, #8
 8001324:	46bd      	mov	sp, r7
 8001326:	bd80      	pop	{r7, pc}

08001328 <lora_set_frequency>:

void lora_set_frequency(lora_sx1276 *lora, uint64_t freq)
{
 8001328:	b580      	push	{r7, lr}
 800132a:	b086      	sub	sp, #24
 800132c:	af00      	add	r7, sp, #0
 800132e:	60f8      	str	r0, [r7, #12]
 8001330:	e9c7 2300 	strd	r2, r3, [r7]
  assert_param(lora);

  // From datasheet: FREQ = (FRF * 32 Mhz) / (2 ^ 19)
  uint64_t frf = (freq << 19) / (32 * MHZ);
 8001334:	e9d7 2300 	ldrd	r2, r3, [r7]
 8001338:	f04f 0000 	mov.w	r0, #0
 800133c:	f04f 0100 	mov.w	r1, #0
 8001340:	04d9      	lsls	r1, r3, #19
 8001342:	ea41 3152 	orr.w	r1, r1, r2, lsr #13
 8001346:	04d0      	lsls	r0, r2, #19
 8001348:	4a19      	ldr	r2, [pc, #100]	; (80013b0 <lora_set_frequency+0x88>)
 800134a:	f04f 0300 	mov.w	r3, #0
 800134e:	f7fe ffb7 	bl	80002c0 <__aeabi_uldivmod>
 8001352:	4602      	mov	r2, r0
 8001354:	460b      	mov	r3, r1
 8001356:	e9c7 2304 	strd	r2, r3, [r7, #16]

  write_register(lora, REG_FRF_MSB, frf >> 16);
 800135a:	e9d7 0104 	ldrd	r0, r1, [r7, #16]
 800135e:	f04f 0200 	mov.w	r2, #0
 8001362:	f04f 0300 	mov.w	r3, #0
 8001366:	0c02      	lsrs	r2, r0, #16
 8001368:	ea42 4201 	orr.w	r2, r2, r1, lsl #16
 800136c:	0c0b      	lsrs	r3, r1, #16
 800136e:	b2d3      	uxtb	r3, r2
 8001370:	461a      	mov	r2, r3
 8001372:	2106      	movs	r1, #6
 8001374:	68f8      	ldr	r0, [r7, #12]
 8001376:	f7ff fead 	bl	80010d4 <write_register>
  write_register(lora, REG_FRF_MID, (frf & 0xff00) >> 8);
 800137a:	e9d7 0104 	ldrd	r0, r1, [r7, #16]
 800137e:	f04f 0200 	mov.w	r2, #0
 8001382:	f04f 0300 	mov.w	r3, #0
 8001386:	0a02      	lsrs	r2, r0, #8
 8001388:	ea42 6201 	orr.w	r2, r2, r1, lsl #24
 800138c:	0a0b      	lsrs	r3, r1, #8
 800138e:	b2d3      	uxtb	r3, r2
 8001390:	461a      	mov	r2, r3
 8001392:	2107      	movs	r1, #7
 8001394:	68f8      	ldr	r0, [r7, #12]
 8001396:	f7ff fe9d 	bl	80010d4 <write_register>
  write_register(lora, REG_FRF_LSB, frf & 0xff);
 800139a:	7c3b      	ldrb	r3, [r7, #16]
 800139c:	461a      	mov	r2, r3
 800139e:	2108      	movs	r1, #8
 80013a0:	68f8      	ldr	r0, [r7, #12]
 80013a2:	f7ff fe97 	bl	80010d4 <write_register>
}
 80013a6:	bf00      	nop
 80013a8:	3718      	adds	r7, #24
 80013aa:	46bd      	mov	sp, r7
 80013ac:	bd80      	pop	{r7, pc}
 80013ae:	bf00      	nop
 80013b0:	01e84800 	.word	0x01e84800

080013b4 <lora_set_spreading_factor>:

  set_low_data_rate_optimization(lora);
}

void lora_set_spreading_factor(lora_sx1276 *lora, uint8_t sf)
{
 80013b4:	b580      	push	{r7, lr}
 80013b6:	b084      	sub	sp, #16
 80013b8:	af00      	add	r7, sp, #0
 80013ba:	6078      	str	r0, [r7, #4]
 80013bc:	460b      	mov	r3, r1
 80013be:	70fb      	strb	r3, [r7, #3]
  assert_param(lora && sf <= 12 && sf >=6);

  if (sf < 6) {
 80013c0:	78fb      	ldrb	r3, [r7, #3]
 80013c2:	2b05      	cmp	r3, #5
 80013c4:	d802      	bhi.n	80013cc <lora_set_spreading_factor+0x18>
    sf = 6;
 80013c6:	2306      	movs	r3, #6
 80013c8:	70fb      	strb	r3, [r7, #3]
 80013ca:	e004      	b.n	80013d6 <lora_set_spreading_factor+0x22>
  } else if (sf > 12) {
 80013cc:	78fb      	ldrb	r3, [r7, #3]
 80013ce:	2b0c      	cmp	r3, #12
 80013d0:	d901      	bls.n	80013d6 <lora_set_spreading_factor+0x22>
    sf = 12;
 80013d2:	230c      	movs	r3, #12
 80013d4:	70fb      	strb	r3, [r7, #3]
  }

  if (sf == 6) {
 80013d6:	78fb      	ldrb	r3, [r7, #3]
 80013d8:	2b06      	cmp	r3, #6
 80013da:	d10a      	bne.n	80013f2 <lora_set_spreading_factor+0x3e>
    write_register(lora, REG_DETECTION_OPTIMIZE, 0xc5);
 80013dc:	22c5      	movs	r2, #197	; 0xc5
 80013de:	2131      	movs	r1, #49	; 0x31
 80013e0:	6878      	ldr	r0, [r7, #4]
 80013e2:	f7ff fe77 	bl	80010d4 <write_register>
    write_register(lora, REG_DETECTION_THRESHOLD, 0x0c);
 80013e6:	220c      	movs	r2, #12
 80013e8:	2137      	movs	r1, #55	; 0x37
 80013ea:	6878      	ldr	r0, [r7, #4]
 80013ec:	f7ff fe72 	bl	80010d4 <write_register>
 80013f0:	e009      	b.n	8001406 <lora_set_spreading_factor+0x52>
  } else {
    write_register(lora, REG_DETECTION_OPTIMIZE, 0xc3);
 80013f2:	22c3      	movs	r2, #195	; 0xc3
 80013f4:	2131      	movs	r1, #49	; 0x31
 80013f6:	6878      	ldr	r0, [r7, #4]
 80013f8:	f7ff fe6c 	bl	80010d4 <write_register>
    write_register(lora, REG_DETECTION_THRESHOLD, 0x0a);
 80013fc:	220a      	movs	r2, #10
 80013fe:	2137      	movs	r1, #55	; 0x37
 8001400:	6878      	ldr	r0, [r7, #4]
 8001402:	f7ff fe67 	bl	80010d4 <write_register>
  }
  // Set new spread factor
  uint8_t mc2 = read_register(lora, REG_MODEM_CONFIG_2);
 8001406:	211e      	movs	r1, #30
 8001408:	6878      	ldr	r0, [r7, #4]
 800140a:	f7ff fe2c 	bl	8001066 <read_register>
 800140e:	4603      	mov	r3, r0
 8001410:	73fb      	strb	r3, [r7, #15]
  mc2 |= sf << 4;
 8001412:	78fb      	ldrb	r3, [r7, #3]
 8001414:	011b      	lsls	r3, r3, #4
 8001416:	b25a      	sxtb	r2, r3
 8001418:	f997 300f 	ldrsb.w	r3, [r7, #15]
 800141c:	4313      	orrs	r3, r2
 800141e:	b25b      	sxtb	r3, r3
 8001420:	73fb      	strb	r3, [r7, #15]
  // uint8_t new_config = (current_config & 0x0f) | ((sf << 4) & 0xf0);
  write_register(lora, REG_MODEM_CONFIG_2, mc2);
 8001422:	7bfb      	ldrb	r3, [r7, #15]
 8001424:	461a      	mov	r2, r3
 8001426:	211e      	movs	r1, #30
 8001428:	6878      	ldr	r0, [r7, #4]
 800142a:	f7ff fe53 	bl	80010d4 <write_register>

  set_low_data_rate_optimization(lora);
 800142e:	6878      	ldr	r0, [r7, #4]
 8001430:	f7ff fece 	bl	80011d0 <set_low_data_rate_optimization>
}
 8001434:	bf00      	nop
 8001436:	3710      	adds	r7, #16
 8001438:	46bd      	mov	sp, r7
 800143a:	bd80      	pop	{r7, pc}

0800143c <lora_set_preamble_length>:
  mc1 |= rate << 1;
  write_register(lora, REG_MODEM_CONFIG_1, mc1);
}

void lora_set_preamble_length(lora_sx1276 *lora, uint16_t len)
{
 800143c:	b580      	push	{r7, lr}
 800143e:	b082      	sub	sp, #8
 8001440:	af00      	add	r7, sp, #0
 8001442:	6078      	str	r0, [r7, #4]
 8001444:	460b      	mov	r3, r1
 8001446:	807b      	strh	r3, [r7, #2]
  assert_param(lora);

  write_register(lora, REG_PREAMBLE_MSB, len >> 8);
 8001448:	887b      	ldrh	r3, [r7, #2]
 800144a:	0a1b      	lsrs	r3, r3, #8
 800144c:	b29b      	uxth	r3, r3
 800144e:	b2db      	uxtb	r3, r3
 8001450:	461a      	mov	r2, r3
 8001452:	2120      	movs	r1, #32
 8001454:	6878      	ldr	r0, [r7, #4]
 8001456:	f7ff fe3d 	bl	80010d4 <write_register>
  write_register(lora, REG_PREAMBLE_LSB, len & 0xf);
 800145a:	887b      	ldrh	r3, [r7, #2]
 800145c:	b2db      	uxtb	r3, r3
 800145e:	f003 030f 	and.w	r3, r3, #15
 8001462:	b2db      	uxtb	r3, r3
 8001464:	461a      	mov	r2, r3
 8001466:	2121      	movs	r1, #33	; 0x21
 8001468:	6878      	ldr	r0, [r7, #4]
 800146a:	f7ff fe33 	bl	80010d4 <write_register>
}
 800146e:	bf00      	nop
 8001470:	3708      	adds	r7, #8
 8001472:	46bd      	mov	sp, r7
 8001474:	bd80      	pop	{r7, pc}

08001476 <lora_init>:
}


uint8_t lora_init(lora_sx1276 *lora, SPI_HandleTypeDef *spi, GPIO_TypeDef *nss_port,
    uint16_t nss_pin, uint64_t freq)
{
 8001476:	b580      	push	{r7, lr}
 8001478:	b086      	sub	sp, #24
 800147a:	af00      	add	r7, sp, #0
 800147c:	60f8      	str	r0, [r7, #12]
 800147e:	60b9      	str	r1, [r7, #8]
 8001480:	607a      	str	r2, [r7, #4]
 8001482:	807b      	strh	r3, [r7, #2]

  assert_param(lora && spi);

  // Init params with default values
  lora->spi = spi;
 8001484:	68fb      	ldr	r3, [r7, #12]
 8001486:	68ba      	ldr	r2, [r7, #8]
 8001488:	601a      	str	r2, [r3, #0]
  lora->nss_port = nss_port;
 800148a:	68fb      	ldr	r3, [r7, #12]
 800148c:	687a      	ldr	r2, [r7, #4]
 800148e:	605a      	str	r2, [r3, #4]
  lora->nss_pin = nss_pin;
 8001490:	68fb      	ldr	r3, [r7, #12]
 8001492:	887a      	ldrh	r2, [r7, #2]
 8001494:	82da      	strh	r2, [r3, #22]
  lora->frequency = freq;
 8001496:	6a3a      	ldr	r2, [r7, #32]
 8001498:	68fb      	ldr	r3, [r7, #12]
 800149a:	60da      	str	r2, [r3, #12]
  lora->pa_mode = LORA_PA_OUTPUT_PA_BOOST;
 800149c:	68fb      	ldr	r3, [r7, #12]
 800149e:	2201      	movs	r2, #1
 80014a0:	611a      	str	r2, [r3, #16]
  lora->tx_base_addr = LORA_DEFAULT_TX_ADDR;
 80014a2:	68fb      	ldr	r3, [r7, #12]
 80014a4:	2200      	movs	r2, #0
 80014a6:	751a      	strb	r2, [r3, #20]
  lora->rx_base_addr = LORA_DEFAULT_RX_ADDR;
 80014a8:	68fb      	ldr	r3, [r7, #12]
 80014aa:	2200      	movs	r2, #0
 80014ac:	755a      	strb	r2, [r3, #21]
  lora->spi_timeout = LORA_DEFAULT_SPI_TIMEOUT;
 80014ae:	68fb      	ldr	r3, [r7, #12]
 80014b0:	f44f 727a 	mov.w	r2, #1000	; 0x3e8
 80014b4:	609a      	str	r2, [r3, #8]
    return LORA_ERROR;
  }
#endif

  // Modem parameters (freq, mode, etc) must be done in SLEEP mode.
  lora_mode_sleep(lora);
 80014b6:	68f8      	ldr	r0, [r7, #12]
 80014b8:	f7ff feba 	bl	8001230 <lora_mode_sleep>
  // Enable LoRa mode (since it can be switched on only in sleep)
  lora_mode_sleep(lora);
 80014bc:	68f8      	ldr	r0, [r7, #12]
 80014be:	f7ff feb7 	bl	8001230 <lora_mode_sleep>

  // Set frequency
  lora_set_frequency(lora, freq);
 80014c2:	e9d7 2308 	ldrd	r2, r3, [r7, #32]
 80014c6:	68f8      	ldr	r0, [r7, #12]
 80014c8:	f7ff ff2e 	bl	8001328 <lora_set_frequency>
  lora_set_spreading_factor(lora, LORA_DEFAULT_SF);
 80014cc:	2107      	movs	r1, #7
 80014ce:	68f8      	ldr	r0, [r7, #12]
 80014d0:	f7ff ff70 	bl	80013b4 <lora_set_spreading_factor>
  lora_set_preamble_length(lora, LORA_DEFAULT_PREAMBLE_LEN);
 80014d4:	210a      	movs	r1, #10
 80014d6:	68f8      	ldr	r0, [r7, #12]
 80014d8:	f7ff ffb0 	bl	800143c <lora_set_preamble_length>
  // By default - explicit header mode
  lora_set_explicit_header_mode(lora);
 80014dc:	68f8      	ldr	r0, [r7, #12]
 80014de:	f7ff febf 	bl	8001260 <lora_set_explicit_header_mode>
  // Set LNA boost
  uint8_t current_lna = read_register(lora, REG_LNA);
 80014e2:	210c      	movs	r1, #12
 80014e4:	68f8      	ldr	r0, [r7, #12]
 80014e6:	f7ff fdbe 	bl	8001066 <read_register>
 80014ea:	4603      	mov	r3, r0
 80014ec:	75fb      	strb	r3, [r7, #23]
  write_register(lora, REG_LNA,  current_lna | 0x03);
 80014ee:	7dfb      	ldrb	r3, [r7, #23]
 80014f0:	f043 0303 	orr.w	r3, r3, #3
 80014f4:	b2db      	uxtb	r3, r3
 80014f6:	461a      	mov	r2, r3
 80014f8:	210c      	movs	r1, #12
 80014fa:	68f8      	ldr	r0, [r7, #12]
 80014fc:	f7ff fdea 	bl	80010d4 <write_register>
  // Set auto AGC
  write_register(lora, REG_MODEM_CONFIG_3, 0x04);
 8001500:	2204      	movs	r2, #4
 8001502:	2126      	movs	r1, #38	; 0x26
 8001504:	68f8      	ldr	r0, [r7, #12]
 8001506:	f7ff fde5 	bl	80010d4 <write_register>
  // Set default output power
  lora_set_tx_power(lora, LORA_DEFAULT_TX_POWER);
 800150a:	2111      	movs	r1, #17
 800150c:	68f8      	ldr	r0, [r7, #12]
 800150e:	f7ff febf 	bl	8001290 <lora_set_tx_power>
  // Set default mode
  lora_mode_standby(lora);
 8001512:	68f8      	ldr	r0, [r7, #12]
 8001514:	f7ff fe98 	bl	8001248 <lora_mode_standby>

  return LORA_OK;
 8001518:	2300      	movs	r3, #0

}
 800151a:	4618      	mov	r0, r3
 800151c:	3718      	adds	r7, #24
 800151e:	46bd      	mov	sp, r7
 8001520:	bd80      	pop	{r7, pc}

08001522 <HAL_TIM_IC_CaptureCallback>:

/* Private user code ---------------------------------------------------------*/
/* USER CODE BEGIN 0 */
int32_t timerVal;

void HAL_TIM_IC_CaptureCallback(TIM_HandleTypeDef *htim) {
 8001522:	b480      	push	{r7}
 8001524:	b083      	sub	sp, #12
 8001526:	af00      	add	r7, sp, #0
 8001528:	6078      	str	r0, [r7, #4]
	__HAL_TIM_SET_COUNTER(htim,0);
 800152a:	687b      	ldr	r3, [r7, #4]
 800152c:	681b      	ldr	r3, [r3, #0]
 800152e:	2200      	movs	r2, #0
 8001530:	625a      	str	r2, [r3, #36]	; 0x24
}
 8001532:	bf00      	nop
 8001534:	370c      	adds	r7, #12
 8001536:	46bd      	mov	sp, r7
 8001538:	f85d 7b04 	ldr.w	r7, [sp], #4
 800153c:	4770      	bx	lr
	...

08001540 <HAL_UART_RxCpltCallback>:

void HAL_UART_RxCpltCallback(UART_HandleTypeDef *huart)
{
 8001540:	b580      	push	{r7, lr}
 8001542:	b084      	sub	sp, #16
 8001544:	af00      	add	r7, sp, #0
 8001546:	6078      	str	r0, [r7, #4]
		// memcpy(GPS_transmit_buf, GPS_buffer, idxEnd);
		//HAL_UART_Transmit(&huart1, GPS_transmit_buf, idxEnd, 100);
	// }

   //HAL_UART_Receive_DMA(&huart2, &GPS_tmp, 1);
if (huart == &huart2){
 8001548:	687b      	ldr	r3, [r7, #4]
 800154a:	4a37      	ldr	r2, [pc, #220]	; (8001628 <HAL_UART_RxCpltCallback+0xe8>)
 800154c:	4293      	cmp	r3, r2
 800154e:	d167      	bne.n	8001620 <HAL_UART_RxCpltCallback+0xe0>
	//send++;
	//if (send == 10){
		HAL_GPIO_TogglePin(GPIOF, GPIO_PIN_4);
 8001550:	2110      	movs	r1, #16
 8001552:	4836      	ldr	r0, [pc, #216]	; (800162c <HAL_UART_RxCpltCallback+0xec>)
 8001554:	f002 f8ff 	bl	8003756 <HAL_GPIO_TogglePin>
	//HAL_UART_Transmit(&huart1, GPS_buffer, 255, 10);
	//send = 0;
	//}
	  char *string;
			memset(buffStr, 0, 1024);
 8001558:	f44f 6280 	mov.w	r2, #1024	; 0x400
 800155c:	2100      	movs	r1, #0
 800155e:	4834      	ldr	r0, [pc, #208]	; (8001630 <HAL_UART_RxCpltCallback+0xf0>)
 8001560:	f006 fdf2 	bl	8008148 <memset>
			sprintf(buffStr, "%s", GPS_buffer);
 8001564:	4a33      	ldr	r2, [pc, #204]	; (8001634 <HAL_UART_RxCpltCallback+0xf4>)
 8001566:	4934      	ldr	r1, [pc, #208]	; (8001638 <HAL_UART_RxCpltCallback+0xf8>)
 8001568:	4831      	ldr	r0, [pc, #196]	; (8001630 <HAL_UART_RxCpltCallback+0xf0>)
 800156a:	f006 fdf5 	bl	8008158 <siprintf>
			string = strdup(buffStr);
 800156e:	4830      	ldr	r0, [pc, #192]	; (8001630 <HAL_UART_RxCpltCallback+0xf0>)
 8001570:	f006 fe12 	bl	8008198 <strdup>
 8001574:	4603      	mov	r3, r0
 8001576:	60bb      	str	r3, [r7, #8]
			//data = strstr(string, "$GNGLL");
			//HAL_UART_Transmit(&huart2, (uint8_t*)data, 50, 70);

			char* token;
			while ((token = strsep(&string, "\n")) != NULL) {
 8001578:	e042      	b.n	8001600 <HAL_UART_RxCpltCallback+0xc0>
				memset(nmeaSnt, 0, 80);
 800157a:	2250      	movs	r2, #80	; 0x50
 800157c:	2100      	movs	r1, #0
 800157e:	482f      	ldr	r0, [pc, #188]	; (800163c <HAL_UART_RxCpltCallback+0xfc>)
 8001580:	f006 fde2 	bl	8008148 <memset>
				sprintf(nmeaSnt, "%s\n\r", token);
 8001584:	68fa      	ldr	r2, [r7, #12]
 8001586:	492e      	ldr	r1, [pc, #184]	; (8001640 <HAL_UART_RxCpltCallback+0x100>)
 8001588:	482c      	ldr	r0, [pc, #176]	; (800163c <HAL_UART_RxCpltCallback+0xfc>)
 800158a:	f006 fde5 	bl	8008158 <siprintf>
				if (((strstr(nmeaSnt, "$GPRMC") != 0) || (strstr(nmeaSnt, "$GPGLL") != 0) || (strstr(nmeaSnt, "$GPGGA") != 0)) && strlen(nmeaSnt) > 48 && strlen(nmeaSnt) < 65) {
 800158e:	492d      	ldr	r1, [pc, #180]	; (8001644 <HAL_UART_RxCpltCallback+0x104>)
 8001590:	482a      	ldr	r0, [pc, #168]	; (800163c <HAL_UART_RxCpltCallback+0xfc>)
 8001592:	f006 fe23 	bl	80081dc <strstr>
 8001596:	4603      	mov	r3, r0
 8001598:	2b00      	cmp	r3, #0
 800159a:	d10d      	bne.n	80015b8 <HAL_UART_RxCpltCallback+0x78>
 800159c:	492a      	ldr	r1, [pc, #168]	; (8001648 <HAL_UART_RxCpltCallback+0x108>)
 800159e:	4827      	ldr	r0, [pc, #156]	; (800163c <HAL_UART_RxCpltCallback+0xfc>)
 80015a0:	f006 fe1c 	bl	80081dc <strstr>
 80015a4:	4603      	mov	r3, r0
 80015a6:	2b00      	cmp	r3, #0
 80015a8:	d106      	bne.n	80015b8 <HAL_UART_RxCpltCallback+0x78>
 80015aa:	4928      	ldr	r1, [pc, #160]	; (800164c <HAL_UART_RxCpltCallback+0x10c>)
 80015ac:	4823      	ldr	r0, [pc, #140]	; (800163c <HAL_UART_RxCpltCallback+0xfc>)
 80015ae:	f006 fe15 	bl	80081dc <strstr>
 80015b2:	4603      	mov	r3, r0
 80015b4:	2b00      	cmp	r3, #0
 80015b6:	d023      	beq.n	8001600 <HAL_UART_RxCpltCallback+0xc0>
 80015b8:	4820      	ldr	r0, [pc, #128]	; (800163c <HAL_UART_RxCpltCallback+0xfc>)
 80015ba:	f7fe fe29 	bl	8000210 <strlen>
 80015be:	4603      	mov	r3, r0
 80015c0:	2b30      	cmp	r3, #48	; 0x30
 80015c2:	d91d      	bls.n	8001600 <HAL_UART_RxCpltCallback+0xc0>
 80015c4:	481d      	ldr	r0, [pc, #116]	; (800163c <HAL_UART_RxCpltCallback+0xfc>)
 80015c6:	f7fe fe23 	bl	8000210 <strlen>
 80015ca:	4603      	mov	r3, r0
 80015cc:	2b40      	cmp	r3, #64	; 0x40
 80015ce:	d817      	bhi.n	8001600 <HAL_UART_RxCpltCallback+0xc0>
					//Raw Data
					memset(GPS_latest_data, 0, 65);
 80015d0:	2241      	movs	r2, #65	; 0x41
 80015d2:	2100      	movs	r1, #0
 80015d4:	481e      	ldr	r0, [pc, #120]	; (8001650 <HAL_UART_RxCpltCallback+0x110>)
 80015d6:	f006 fdb7 	bl	8008148 <memset>
					memcpy(GPS_latest_data, nmeaSnt, strlen(nmeaSnt));
 80015da:	4818      	ldr	r0, [pc, #96]	; (800163c <HAL_UART_RxCpltCallback+0xfc>)
 80015dc:	f7fe fe18 	bl	8000210 <strlen>
 80015e0:	4603      	mov	r3, r0
 80015e2:	461a      	mov	r2, r3
 80015e4:	4915      	ldr	r1, [pc, #84]	; (800163c <HAL_UART_RxCpltCallback+0xfc>)
 80015e6:	481a      	ldr	r0, [pc, #104]	; (8001650 <HAL_UART_RxCpltCallback+0x110>)
 80015e8:	f006 fda0 	bl	800812c <memcpy>
					HAL_UART_Transmit(&huart1, (uint8_t*)nmeaSnt, strlen(nmeaSnt), 70);
 80015ec:	4813      	ldr	r0, [pc, #76]	; (800163c <HAL_UART_RxCpltCallback+0xfc>)
 80015ee:	f7fe fe0f 	bl	8000210 <strlen>
 80015f2:	4603      	mov	r3, r0
 80015f4:	b29a      	uxth	r2, r3
 80015f6:	2346      	movs	r3, #70	; 0x46
 80015f8:	4910      	ldr	r1, [pc, #64]	; (800163c <HAL_UART_RxCpltCallback+0xfc>)
 80015fa:	4816      	ldr	r0, [pc, #88]	; (8001654 <HAL_UART_RxCpltCallback+0x114>)
 80015fc:	f005 fbbb 	bl	8006d76 <HAL_UART_Transmit>
			while ((token = strsep(&string, "\n")) != NULL) {
 8001600:	f107 0308 	add.w	r3, r7, #8
 8001604:	4914      	ldr	r1, [pc, #80]	; (8001658 <HAL_UART_RxCpltCallback+0x118>)
 8001606:	4618      	mov	r0, r3
 8001608:	f006 fde3 	bl	80081d2 <strsep>
 800160c:	60f8      	str	r0, [r7, #12]
 800160e:	68fb      	ldr	r3, [r7, #12]
 8001610:	2b00      	cmp	r3, #0
 8001612:	d1b2      	bne.n	800157a <HAL_UART_RxCpltCallback+0x3a>

				}

			}
		//	HAL_Delay(20);
			HAL_UART_Receive_DMA(&huart2, GPS_buffer, 1024);
 8001614:	f44f 6280 	mov.w	r2, #1024	; 0x400
 8001618:	4906      	ldr	r1, [pc, #24]	; (8001634 <HAL_UART_RxCpltCallback+0xf4>)
 800161a:	4803      	ldr	r0, [pc, #12]	; (8001628 <HAL_UART_RxCpltCallback+0xe8>)
 800161c:	f005 fc3d 	bl	8006e9a <HAL_UART_Receive_DMA>

//	HAL_UART_Receive_DMA(&huart2, GPS_buffer, 255);
}
}
 8001620:	bf00      	nop
 8001622:	3710      	adds	r7, #16
 8001624:	46bd      	mov	sp, r7
 8001626:	bd80      	pop	{r7, pc}
 8001628:	20000268 	.word	0x20000268
 800162c:	40021400 	.word	0x40021400
 8001630:	2000ea94 	.word	0x2000ea94
 8001634:	2000e694 	.word	0x2000e694
 8001638:	08008af0 	.word	0x08008af0
 800163c:	2000ee94 	.word	0x2000ee94
 8001640:	08008af4 	.word	0x08008af4
 8001644:	08008afc 	.word	0x08008afc
 8001648:	08008b04 	.word	0x08008b04
 800164c:	08008b0c 	.word	0x08008b0c
 8001650:	2000eee4 	.word	0x2000eee4
 8001654:	20000224 	.word	0x20000224
 8001658:	08008b14 	.word	0x08008b14
 800165c:	00000000 	.word	0x00000000

08001660 <main>:
/**
  * @brief  The application entry point.
  * @retval int
  */
int main(void)
{
 8001660:	b580      	push	{r7, lr}
 8001662:	b084      	sub	sp, #16
 8001664:	af02      	add	r7, sp, #8
  /* USER CODE BEGIN 1 */
  _running = false;
 8001666:	4b52      	ldr	r3, [pc, #328]	; (80017b0 <main+0x150>)
 8001668:	2200      	movs	r2, #0
 800166a:	701a      	strb	r2, [r3, #0]
  head_mov = 0;
 800166c:	4b51      	ldr	r3, [pc, #324]	; (80017b4 <main+0x154>)
 800166e:	2200      	movs	r2, #0
 8001670:	601a      	str	r2, [r3, #0]
  tail_mov = 1;
 8001672:	4b51      	ldr	r3, [pc, #324]	; (80017b8 <main+0x158>)
 8001674:	2201      	movs	r2, #1
 8001676:	601a      	str	r2, [r3, #0]
  head_full = 0;
 8001678:	4b50      	ldr	r3, [pc, #320]	; (80017bc <main+0x15c>)
 800167a:	2200      	movs	r2, #0
 800167c:	601a      	str	r2, [r3, #0]
  tail_full = 1;
 800167e:	4b50      	ldr	r3, [pc, #320]	; (80017c0 <main+0x160>)
 8001680:	2201      	movs	r2, #1
 8001682:	601a      	str	r2, [r3, #0]
  moving_sum = 0;
 8001684:	4b4f      	ldr	r3, [pc, #316]	; (80017c4 <main+0x164>)
 8001686:	f04f 0200 	mov.w	r2, #0
 800168a:	601a      	str	r2, [r3, #0]
  moving_avg = 0;
 800168c:	4b4e      	ldr	r3, [pc, #312]	; (80017c8 <main+0x168>)
 800168e:	f04f 0200 	mov.w	r2, #0
 8001692:	601a      	str	r2, [r3, #0]
  moving_sum_left = 0;
 8001694:	494d      	ldr	r1, [pc, #308]	; (80017cc <main+0x16c>)
 8001696:	f04f 0200 	mov.w	r2, #0
 800169a:	f04f 0300 	mov.w	r3, #0
 800169e:	e9c1 2300 	strd	r2, r3, [r1]
  moving_avg_left = 0;
 80016a2:	4b4b      	ldr	r3, [pc, #300]	; (80017d0 <main+0x170>)
 80016a4:	f04f 0200 	mov.w	r2, #0
 80016a8:	601a      	str	r2, [r3, #0]
  moving_sum_right = 0;
 80016aa:	494a      	ldr	r1, [pc, #296]	; (80017d4 <main+0x174>)
 80016ac:	f04f 0200 	mov.w	r2, #0
 80016b0:	f04f 0300 	mov.w	r3, #0
 80016b4:	e9c1 2300 	strd	r2, r3, [r1]
  moving_avg_right = 0;
 80016b8:	4b47      	ldr	r3, [pc, #284]	; (80017d8 <main+0x178>)
 80016ba:	f04f 0200 	mov.w	r2, #0
 80016be:	601a      	str	r2, [r3, #0]
  counter = 0;
 80016c0:	4b46      	ldr	r3, [pc, #280]	; (80017dc <main+0x17c>)
 80016c2:	2200      	movs	r2, #0
 80016c4:	801a      	strh	r2, [r3, #0]
  done = 0;
 80016c6:	4b46      	ldr	r3, [pc, #280]	; (80017e0 <main+0x180>)
 80016c8:	2200      	movs	r2, #0
 80016ca:	601a      	str	r2, [r3, #0]
  memset(circular_buf_mov, 0, MOVING_AVG_LEN*sizeof(int16_t));
 80016cc:	220a      	movs	r2, #10
 80016ce:	2100      	movs	r1, #0
 80016d0:	4844      	ldr	r0, [pc, #272]	; (80017e4 <main+0x184>)
 80016d2:	f006 fd39 	bl	8008148 <memset>
  memset(circular_buf_mov_right, 0, MOVING_AVG_LEN*sizeof(int16_t));
 80016d6:	220a      	movs	r2, #10
 80016d8:	2100      	movs	r1, #0
 80016da:	4843      	ldr	r0, [pc, #268]	; (80017e8 <main+0x188>)
 80016dc:	f006 fd34 	bl	8008148 <memset>
  memset(circular_buf_full, 0, SEND_LEN*sizeof(int16_t));
 80016e0:	f24c 7238 	movw	r2, #51000	; 0xc738
 80016e4:	2100      	movs	r1, #0
 80016e6:	4841      	ldr	r0, [pc, #260]	; (80017ec <main+0x18c>)
 80016e8:	f006 fd2e 	bl	8008148 <memset>
  memset(_sampleBuffer, 0, MIC_SAMPLES_PER_PACKET*2*sizeof(int32_t));
 80016ec:	f44f 52dc 	mov.w	r2, #7040	; 0x1b80
 80016f0:	2100      	movs	r1, #0
 80016f2:	483f      	ldr	r0, [pc, #252]	; (80017f0 <main+0x190>)
 80016f4:	f006 fd28 	bl	8008148 <memset>
  arm_fir_init_f32(&S, FILTER_LEN, coeffs, buffer, blockSize);
 80016f8:	4b3e      	ldr	r3, [pc, #248]	; (80017f4 <main+0x194>)
 80016fa:	681b      	ldr	r3, [r3, #0]
 80016fc:	9300      	str	r3, [sp, #0]
 80016fe:	4b3e      	ldr	r3, [pc, #248]	; (80017f8 <main+0x198>)
 8001700:	4a3e      	ldr	r2, [pc, #248]	; (80017fc <main+0x19c>)
 8001702:	2165      	movs	r1, #101	; 0x65
 8001704:	483e      	ldr	r0, [pc, #248]	; (8001800 <main+0x1a0>)
 8001706:	f7ff fc8f 	bl	8001028 <arm_fir_init_f32>
  /* USER CODE END 1 */

  /* MCU Configuration--------------------------------------------------------*/

  /* Reset of all peripherals, Initializes the Flash interface and the Systick. */
  HAL_Init();
 800170a:	f001 f8cd 	bl	80028a8 <HAL_Init>
  /* USER CODE BEGIN Init */

  /* USER CODE END Init */

  /* Configure the system clock */
  SystemClock_Config();
 800170e:	f000 f88b 	bl	8001828 <SystemClock_Config>
  /* USER CODE BEGIN SysInit */

  /* USER CODE END SysInit */

  /* Initialize all configured peripherals */
  MX_GPIO_Init();
 8001712:	f000 fa5b 	bl	8001bcc <MX_GPIO_Init>
  MX_SPI1_Init();
 8001716:	f000 f93f 	bl	8001998 <MX_SPI1_Init>
  MX_TIM2_Init();
 800171a:	f000 f973 	bl	8001a04 <MX_TIM2_Init>
  MX_DMA_Init();
 800171e:	f000 fa17 	bl	8001b50 <MX_DMA_Init>
  MX_SAI1_Init();
 8001722:	f000 f8ef 	bl	8001904 <MX_SAI1_Init>
  MX_USART2_UART_Init();
 8001726:	f000 f9e9 	bl	8001afc <MX_USART2_UART_Init>
  MX_USART1_UART_Init();
 800172a:	f000 f9bd 	bl	8001aa8 <MX_USART1_UART_Init>
  /* USER CODE BEGIN 2 */
  HAL_TIM_IC_Start_IT(&htim2, TIM_CHANNEL_3);
 800172e:	2108      	movs	r1, #8
 8001730:	4834      	ldr	r0, [pc, #208]	; (8001804 <main+0x1a4>)
 8001732:	f004 fd5f 	bl	80061f4 <HAL_TIM_IC_Start_IT>
  HAL_GPIO_WritePin(GPIOF, GPIO_PIN_4, GPIO_PIN_RESET);
 8001736:	2200      	movs	r2, #0
 8001738:	2110      	movs	r1, #16
 800173a:	4833      	ldr	r0, [pc, #204]	; (8001808 <main+0x1a8>)
 800173c:	f001 fff2 	bl	8003724 <HAL_GPIO_WritePin>
  HAL_GPIO_WritePin(GPIOF, GPIO_PIN_3, GPIO_PIN_SET);
 8001740:	2201      	movs	r2, #1
 8001742:	2108      	movs	r1, #8
 8001744:	4830      	ldr	r0, [pc, #192]	; (8001808 <main+0x1a8>)
 8001746:	f001 ffed 	bl	8003724 <HAL_GPIO_WritePin>

  HAL_GPIO_WritePin(GPIOF, GPIO_PIN_5, GPIO_PIN_RESET);
 800174a:	2200      	movs	r2, #0
 800174c:	2120      	movs	r1, #32
 800174e:	482e      	ldr	r0, [pc, #184]	; (8001808 <main+0x1a8>)
 8001750:	f001 ffe8 	bl	8003724 <HAL_GPIO_WritePin>
  HAL_GPIO_WritePin(GPIOG, GPIO_PIN_5, GPIO_PIN_SET);
 8001754:	2201      	movs	r2, #1
 8001756:	2120      	movs	r1, #32
 8001758:	482c      	ldr	r0, [pc, #176]	; (800180c <main+0x1ac>)
 800175a:	f001 ffe3 	bl	8003724 <HAL_GPIO_WritePin>
  HAL_GPIO_WritePin(RST_GPIO_Port, RST_Pin, GPIO_PIN_RESET);
 800175e:	2200      	movs	r2, #0
 8001760:	f44f 7100 	mov.w	r1, #512	; 0x200
 8001764:	482a      	ldr	r0, [pc, #168]	; (8001810 <main+0x1b0>)
 8001766:	f001 ffdd 	bl	8003724 <HAL_GPIO_WritePin>
  HAL_Delay(100);
 800176a:	2064      	movs	r0, #100	; 0x64
 800176c:	f001 f90e 	bl	800298c <HAL_Delay>
  HAL_GPIO_WritePin(RST_GPIO_Port, RST_Pin, GPIO_PIN_SET);
 8001770:	2201      	movs	r2, #1
 8001772:	f44f 7100 	mov.w	r1, #512	; 0x200
 8001776:	4826      	ldr	r0, [pc, #152]	; (8001810 <main+0x1b0>)
 8001778:	f001 ffd4 	bl	8003724 <HAL_GPIO_WritePin>
  HAL_UART_Receive_DMA(&huart2, GPS_buffer, 1024);
 800177c:	f44f 6280 	mov.w	r2, #1024	; 0x400
 8001780:	4924      	ldr	r1, [pc, #144]	; (8001814 <main+0x1b4>)
 8001782:	4825      	ldr	r0, [pc, #148]	; (8001818 <main+0x1b8>)
 8001784:	f005 fb89 	bl	8006e9a <HAL_UART_Receive_DMA>

  uint8_t res = lora_init(&lora, &hspi1, NSS_GPIO_Port, NSS_Pin, LORA_BASE_FREQUENCY_US);
 8001788:	a307      	add	r3, pc, #28	; (adr r3, 80017a8 <main+0x148>)
 800178a:	e9d3 2300 	ldrd	r2, r3, [r3]
 800178e:	e9cd 2300 	strd	r2, r3, [sp]
 8001792:	2310      	movs	r3, #16
 8001794:	4a21      	ldr	r2, [pc, #132]	; (800181c <main+0x1bc>)
 8001796:	4922      	ldr	r1, [pc, #136]	; (8001820 <main+0x1c0>)
 8001798:	4822      	ldr	r0, [pc, #136]	; (8001824 <main+0x1c4>)
 800179a:	f7ff fe6c 	bl	8001476 <lora_init>
 800179e:	4603      	mov	r3, r0
 80017a0:	71fb      	strb	r3, [r7, #7]
  /* USER CODE END 2 */

  /* Infinite loop */
  /* USER CODE BEGIN WHILE */

  while (1)
 80017a2:	e7fe      	b.n	80017a2 <main+0x142>
 80017a4:	f3af 8000 	nop.w
 80017a8:	3689cac0 	.word	0x3689cac0
 80017ac:	00000000 	.word	0x00000000
 80017b0:	2000e674 	.word	0x2000e674
 80017b4:	20001f04 	.word	0x20001f04
 80017b8:	20001f08 	.word	0x20001f08
 80017bc:	2000e644 	.word	0x2000e644
 80017c0:	2000e648 	.word	0x2000e648
 80017c4:	2000e64c 	.word	0x2000e64c
 80017c8:	2000e650 	.word	0x2000e650
 80017cc:	2000e658 	.word	0x2000e658
 80017d0:	2000e660 	.word	0x2000e660
 80017d4:	2000e668 	.word	0x2000e668
 80017d8:	2000e670 	.word	0x2000e670
 80017dc:	2000e676 	.word	0x2000e676
 80017e0:	2000e678 	.word	0x2000e678
 80017e4:	20001eec 	.word	0x20001eec
 80017e8:	20001ef8 	.word	0x20001ef8
 80017ec:	20001f0c 	.word	0x20001f0c
 80017f0:	2000036c 	.word	0x2000036c
 80017f4:	20000008 	.word	0x20000008
 80017f8:	2000ef34 	.word	0x2000ef34
 80017fc:	08008b18 	.word	0x08008b18
 8001800:	2000ef28 	.word	0x2000ef28
 8001804:	200001dc 	.word	0x200001dc
 8001808:	40021400 	.word	0x40021400
 800180c:	40021800 	.word	0x40021800
 8001810:	40020c00 	.word	0x40020c00
 8001814:	2000e694 	.word	0x2000e694
 8001818:	20000268 	.word	0x20000268
 800181c:	40020000 	.word	0x40020000
 8001820:	20000184 	.word	0x20000184
 8001824:	2000e67c 	.word	0x2000e67c

08001828 <SystemClock_Config>:
/**
  * @brief System Clock Configuration
  * @retval None
  */
void SystemClock_Config(void)
{
 8001828:	b580      	push	{r7, lr}
 800182a:	b094      	sub	sp, #80	; 0x50
 800182c:	af00      	add	r7, sp, #0
  RCC_OscInitTypeDef RCC_OscInitStruct = {0};
 800182e:	f107 031c 	add.w	r3, r7, #28
 8001832:	2234      	movs	r2, #52	; 0x34
 8001834:	2100      	movs	r1, #0
 8001836:	4618      	mov	r0, r3
 8001838:	f006 fc86 	bl	8008148 <memset>
  RCC_ClkInitTypeDef RCC_ClkInitStruct = {0};
 800183c:	f107 0308 	add.w	r3, r7, #8
 8001840:	2200      	movs	r2, #0
 8001842:	601a      	str	r2, [r3, #0]
 8001844:	605a      	str	r2, [r3, #4]
 8001846:	609a      	str	r2, [r3, #8]
 8001848:	60da      	str	r2, [r3, #12]
 800184a:	611a      	str	r2, [r3, #16]

  /** Configure the main internal regulator output voltage
  */
  __HAL_RCC_PWR_CLK_ENABLE();
 800184c:	2300      	movs	r3, #0
 800184e:	607b      	str	r3, [r7, #4]
 8001850:	4b2a      	ldr	r3, [pc, #168]	; (80018fc <SystemClock_Config+0xd4>)
 8001852:	6c1b      	ldr	r3, [r3, #64]	; 0x40
 8001854:	4a29      	ldr	r2, [pc, #164]	; (80018fc <SystemClock_Config+0xd4>)
 8001856:	f043 5380 	orr.w	r3, r3, #268435456	; 0x10000000
 800185a:	6413      	str	r3, [r2, #64]	; 0x40
 800185c:	4b27      	ldr	r3, [pc, #156]	; (80018fc <SystemClock_Config+0xd4>)
 800185e:	6c1b      	ldr	r3, [r3, #64]	; 0x40
 8001860:	f003 5380 	and.w	r3, r3, #268435456	; 0x10000000
 8001864:	607b      	str	r3, [r7, #4]
 8001866:	687b      	ldr	r3, [r7, #4]
  __HAL_PWR_VOLTAGESCALING_CONFIG(PWR_REGULATOR_VOLTAGE_SCALE3);
 8001868:	2300      	movs	r3, #0
 800186a:	603b      	str	r3, [r7, #0]
 800186c:	4b24      	ldr	r3, [pc, #144]	; (8001900 <SystemClock_Config+0xd8>)
 800186e:	681b      	ldr	r3, [r3, #0]
 8001870:	f423 4340 	bic.w	r3, r3, #49152	; 0xc000
 8001874:	4a22      	ldr	r2, [pc, #136]	; (8001900 <SystemClock_Config+0xd8>)
 8001876:	f443 4380 	orr.w	r3, r3, #16384	; 0x4000
 800187a:	6013      	str	r3, [r2, #0]
 800187c:	4b20      	ldr	r3, [pc, #128]	; (8001900 <SystemClock_Config+0xd8>)
 800187e:	681b      	ldr	r3, [r3, #0]
 8001880:	f403 4340 	and.w	r3, r3, #49152	; 0xc000
 8001884:	603b      	str	r3, [r7, #0]
 8001886:	683b      	ldr	r3, [r7, #0]
  /** Initializes the RCC Oscillators according to the specified parameters
  * in the RCC_OscInitTypeDef structure.
  */
  RCC_OscInitStruct.OscillatorType = RCC_OSCILLATORTYPE_HSI;
 8001888:	2302      	movs	r3, #2
 800188a:	61fb      	str	r3, [r7, #28]
  RCC_OscInitStruct.HSIState = RCC_HSI_ON;
 800188c:	2301      	movs	r3, #1
 800188e:	62bb      	str	r3, [r7, #40]	; 0x28
  RCC_OscInitStruct.HSICalibrationValue = RCC_HSICALIBRATION_DEFAULT;
 8001890:	2310      	movs	r3, #16
 8001892:	62fb      	str	r3, [r7, #44]	; 0x2c
  RCC_OscInitStruct.PLL.PLLState = RCC_PLL_ON;
 8001894:	2302      	movs	r3, #2
 8001896:	637b      	str	r3, [r7, #52]	; 0x34
  RCC_OscInitStruct.PLL.PLLSource = RCC_PLLSOURCE_HSI;
 8001898:	2300      	movs	r3, #0
 800189a:	63bb      	str	r3, [r7, #56]	; 0x38
  RCC_OscInitStruct.PLL.PLLM = 16;
 800189c:	2310      	movs	r3, #16
 800189e:	63fb      	str	r3, [r7, #60]	; 0x3c
  RCC_OscInitStruct.PLL.PLLN = 336;
 80018a0:	f44f 73a8 	mov.w	r3, #336	; 0x150
 80018a4:	643b      	str	r3, [r7, #64]	; 0x40
  RCC_OscInitStruct.PLL.PLLP = RCC_PLLP_DIV4;
 80018a6:	2304      	movs	r3, #4
 80018a8:	647b      	str	r3, [r7, #68]	; 0x44
  RCC_OscInitStruct.PLL.PLLQ = 2;
 80018aa:	2302      	movs	r3, #2
 80018ac:	64bb      	str	r3, [r7, #72]	; 0x48
  RCC_OscInitStruct.PLL.PLLR = 2;
 80018ae:	2302      	movs	r3, #2
 80018b0:	64fb      	str	r3, [r7, #76]	; 0x4c
  if (HAL_RCC_OscConfig(&RCC_OscInitStruct) != HAL_OK)
 80018b2:	f107 031c 	add.w	r3, r7, #28
 80018b6:	4618      	mov	r0, r3
 80018b8:	f002 ff9e 	bl	80047f8 <HAL_RCC_OscConfig>
 80018bc:	4603      	mov	r3, r0
 80018be:	2b00      	cmp	r3, #0
 80018c0:	d001      	beq.n	80018c6 <SystemClock_Config+0x9e>
  {
    Error_Handler();
 80018c2:	f000 fca1 	bl	8002208 <Error_Handler>
  }
  /** Initializes the CPU, AHB and APB buses clocks
  */
  RCC_ClkInitStruct.ClockType = RCC_CLOCKTYPE_HCLK|RCC_CLOCKTYPE_SYSCLK
 80018c6:	230f      	movs	r3, #15
 80018c8:	60bb      	str	r3, [r7, #8]
                              |RCC_CLOCKTYPE_PCLK1|RCC_CLOCKTYPE_PCLK2;
  RCC_ClkInitStruct.SYSCLKSource = RCC_SYSCLKSOURCE_PLLCLK;
 80018ca:	2302      	movs	r3, #2
 80018cc:	60fb      	str	r3, [r7, #12]
  RCC_ClkInitStruct.AHBCLKDivider = RCC_SYSCLK_DIV1;
 80018ce:	2300      	movs	r3, #0
 80018d0:	613b      	str	r3, [r7, #16]
  RCC_ClkInitStruct.APB1CLKDivider = RCC_HCLK_DIV2;
 80018d2:	f44f 5380 	mov.w	r3, #4096	; 0x1000
 80018d6:	617b      	str	r3, [r7, #20]
  RCC_ClkInitStruct.APB2CLKDivider = RCC_HCLK_DIV1;
 80018d8:	2300      	movs	r3, #0
 80018da:	61bb      	str	r3, [r7, #24]

  if (HAL_RCC_ClockConfig(&RCC_ClkInitStruct, FLASH_LATENCY_2) != HAL_OK)
 80018dc:	f107 0308 	add.w	r3, r7, #8
 80018e0:	2102      	movs	r1, #2
 80018e2:	4618      	mov	r0, r3
 80018e4:	f001 ff52 	bl	800378c <HAL_RCC_ClockConfig>
 80018e8:	4603      	mov	r3, r0
 80018ea:	2b00      	cmp	r3, #0
 80018ec:	d001      	beq.n	80018f2 <SystemClock_Config+0xca>
  {
    Error_Handler();
 80018ee:	f000 fc8b 	bl	8002208 <Error_Handler>
  }
}
 80018f2:	bf00      	nop
 80018f4:	3750      	adds	r7, #80	; 0x50
 80018f6:	46bd      	mov	sp, r7
 80018f8:	bd80      	pop	{r7, pc}
 80018fa:	bf00      	nop
 80018fc:	40023800 	.word	0x40023800
 8001900:	40007000 	.word	0x40007000

08001904 <MX_SAI1_Init>:
  * @brief SAI1 Initialization Function
  * @param None
  * @retval None
  */
static void MX_SAI1_Init(void)
{
 8001904:	b580      	push	{r7, lr}
 8001906:	af00      	add	r7, sp, #0
  /* USER CODE END SAI1_Init 0 */

  /* USER CODE BEGIN SAI1_Init 1 */

  /* USER CODE END SAI1_Init 1 */
  hsai_BlockB1.Instance = SAI1_Block_B;
 8001908:	4b1f      	ldr	r3, [pc, #124]	; (8001988 <MX_SAI1_Init+0x84>)
 800190a:	4a20      	ldr	r2, [pc, #128]	; (800198c <MX_SAI1_Init+0x88>)
 800190c:	601a      	str	r2, [r3, #0]
  hsai_BlockB1.Init.AudioMode = SAI_MODEMASTER_RX;
 800190e:	4b1e      	ldr	r3, [pc, #120]	; (8001988 <MX_SAI1_Init+0x84>)
 8001910:	2201      	movs	r2, #1
 8001912:	605a      	str	r2, [r3, #4]
  hsai_BlockB1.Init.Synchro = SAI_ASYNCHRONOUS;
 8001914:	4b1c      	ldr	r3, [pc, #112]	; (8001988 <MX_SAI1_Init+0x84>)
 8001916:	2200      	movs	r2, #0
 8001918:	609a      	str	r2, [r3, #8]
  hsai_BlockB1.Init.OutputDrive = SAI_OUTPUTDRIVE_DISABLE;
 800191a:	4b1b      	ldr	r3, [pc, #108]	; (8001988 <MX_SAI1_Init+0x84>)
 800191c:	2200      	movs	r2, #0
 800191e:	611a      	str	r2, [r3, #16]
  hsai_BlockB1.Init.NoDivider = SAI_MASTERDIVIDER_ENABLE;
 8001920:	4b19      	ldr	r3, [pc, #100]	; (8001988 <MX_SAI1_Init+0x84>)
 8001922:	2200      	movs	r2, #0
 8001924:	615a      	str	r2, [r3, #20]
  hsai_BlockB1.Init.FIFOThreshold = SAI_FIFOTHRESHOLD_EMPTY;
 8001926:	4b18      	ldr	r3, [pc, #96]	; (8001988 <MX_SAI1_Init+0x84>)
 8001928:	2200      	movs	r2, #0
 800192a:	619a      	str	r2, [r3, #24]
  hsai_BlockB1.Init.ClockSource = SAI_CLKSOURCE_NA;
 800192c:	4b16      	ldr	r3, [pc, #88]	; (8001988 <MX_SAI1_Init+0x84>)
 800192e:	f44f 0280 	mov.w	r2, #4194304	; 0x400000
 8001932:	61da      	str	r2, [r3, #28]
  hsai_BlockB1.Init.AudioFrequency = SAI_AUDIO_FREQUENCY_44K;
 8001934:	4b14      	ldr	r3, [pc, #80]	; (8001988 <MX_SAI1_Init+0x84>)
 8001936:	f64a 4244 	movw	r2, #44100	; 0xac44
 800193a:	621a      	str	r2, [r3, #32]
  hsai_BlockB1.Init.SynchroExt = SAI_SYNCEXT_DISABLE;
 800193c:	4b12      	ldr	r3, [pc, #72]	; (8001988 <MX_SAI1_Init+0x84>)
 800193e:	2200      	movs	r2, #0
 8001940:	60da      	str	r2, [r3, #12]
  hsai_BlockB1.Init.MonoStereoMode = SAI_STEREOMODE;
 8001942:	4b11      	ldr	r3, [pc, #68]	; (8001988 <MX_SAI1_Init+0x84>)
 8001944:	2200      	movs	r2, #0
 8001946:	629a      	str	r2, [r3, #40]	; 0x28
  hsai_BlockB1.Init.CompandingMode = SAI_NOCOMPANDING;
 8001948:	4b0f      	ldr	r3, [pc, #60]	; (8001988 <MX_SAI1_Init+0x84>)
 800194a:	2200      	movs	r2, #0
 800194c:	62da      	str	r2, [r3, #44]	; 0x2c
  if (HAL_SAI_InitProtocol(&hsai_BlockB1, SAI_I2S_STANDARD, SAI_PROTOCOL_DATASIZE_24BIT, 2) != HAL_OK)
 800194e:	2302      	movs	r3, #2
 8001950:	2202      	movs	r2, #2
 8001952:	2100      	movs	r1, #0
 8001954:	480c      	ldr	r0, [pc, #48]	; (8001988 <MX_SAI1_Init+0x84>)
 8001956:	f003 f9ed 	bl	8004d34 <HAL_SAI_InitProtocol>
 800195a:	4603      	mov	r3, r0
 800195c:	2b00      	cmp	r3, #0
 800195e:	d001      	beq.n	8001964 <MX_SAI1_Init+0x60>
  {
    Error_Handler();
 8001960:	f000 fc52 	bl	8002208 <Error_Handler>
  }
  /* USER CODE BEGIN SAI1_Init 2 */
  if ((HAL_SAI_Receive_DMA(&hsai_BlockB1, (uint8_t*) _sampleBuffer, MIC_SAMPLES_PER_PACKET * 2)) == HAL_OK) {
 8001964:	f44f 62dc 	mov.w	r2, #1760	; 0x6e0
 8001968:	4909      	ldr	r1, [pc, #36]	; (8001990 <MX_SAI1_Init+0x8c>)
 800196a:	4807      	ldr	r0, [pc, #28]	; (8001988 <MX_SAI1_Init+0x84>)
 800196c:	f003 fb3e 	bl	8004fec <HAL_SAI_Receive_DMA>
 8001970:	4603      	mov	r3, r0
 8001972:	2b00      	cmp	r3, #0
 8001974:	d106      	bne.n	8001984 <MX_SAI1_Init+0x80>
	  HAL_Delay(1000);
 8001976:	f44f 707a 	mov.w	r0, #1000	; 0x3e8
 800197a:	f001 f807 	bl	800298c <HAL_Delay>
	  _running = true;
 800197e:	4b05      	ldr	r3, [pc, #20]	; (8001994 <MX_SAI1_Init+0x90>)
 8001980:	2201      	movs	r2, #1
 8001982:	701a      	strb	r2, [r3, #0]
  }
  /* USER CODE END SAI1_Init 2 */

}
 8001984:	bf00      	nop
 8001986:	bd80      	pop	{r7, pc}
 8001988:	2000009c 	.word	0x2000009c
 800198c:	40015824 	.word	0x40015824
 8001990:	2000036c 	.word	0x2000036c
 8001994:	2000e674 	.word	0x2000e674

08001998 <MX_SPI1_Init>:
  * @brief SPI1 Initialization Function
  * @param None
  * @retval None
  */
static void MX_SPI1_Init(void)
{
 8001998:	b580      	push	{r7, lr}
 800199a:	af00      	add	r7, sp, #0

  /* USER CODE BEGIN SPI1_Init 1 */

  /* USER CODE END SPI1_Init 1 */
  /* SPI1 parameter configuration*/
  hspi1.Instance = SPI1;
 800199c:	4b17      	ldr	r3, [pc, #92]	; (80019fc <MX_SPI1_Init+0x64>)
 800199e:	4a18      	ldr	r2, [pc, #96]	; (8001a00 <MX_SPI1_Init+0x68>)
 80019a0:	601a      	str	r2, [r3, #0]
  hspi1.Init.Mode = SPI_MODE_MASTER;
 80019a2:	4b16      	ldr	r3, [pc, #88]	; (80019fc <MX_SPI1_Init+0x64>)
 80019a4:	f44f 7282 	mov.w	r2, #260	; 0x104
 80019a8:	605a      	str	r2, [r3, #4]
  hspi1.Init.Direction = SPI_DIRECTION_2LINES;
 80019aa:	4b14      	ldr	r3, [pc, #80]	; (80019fc <MX_SPI1_Init+0x64>)
 80019ac:	2200      	movs	r2, #0
 80019ae:	609a      	str	r2, [r3, #8]
  hspi1.Init.DataSize = SPI_DATASIZE_8BIT;
 80019b0:	4b12      	ldr	r3, [pc, #72]	; (80019fc <MX_SPI1_Init+0x64>)
 80019b2:	2200      	movs	r2, #0
 80019b4:	60da      	str	r2, [r3, #12]
  hspi1.Init.CLKPolarity = SPI_POLARITY_LOW;
 80019b6:	4b11      	ldr	r3, [pc, #68]	; (80019fc <MX_SPI1_Init+0x64>)
 80019b8:	2200      	movs	r2, #0
 80019ba:	611a      	str	r2, [r3, #16]
  hspi1.Init.CLKPhase = SPI_PHASE_1EDGE;
 80019bc:	4b0f      	ldr	r3, [pc, #60]	; (80019fc <MX_SPI1_Init+0x64>)
 80019be:	2200      	movs	r2, #0
 80019c0:	615a      	str	r2, [r3, #20]
  hspi1.Init.NSS = SPI_NSS_SOFT;
 80019c2:	4b0e      	ldr	r3, [pc, #56]	; (80019fc <MX_SPI1_Init+0x64>)
 80019c4:	f44f 7200 	mov.w	r2, #512	; 0x200
 80019c8:	619a      	str	r2, [r3, #24]
  hspi1.Init.BaudRatePrescaler = SPI_BAUDRATEPRESCALER_256;
 80019ca:	4b0c      	ldr	r3, [pc, #48]	; (80019fc <MX_SPI1_Init+0x64>)
 80019cc:	2238      	movs	r2, #56	; 0x38
 80019ce:	61da      	str	r2, [r3, #28]
  hspi1.Init.FirstBit = SPI_FIRSTBIT_MSB;
 80019d0:	4b0a      	ldr	r3, [pc, #40]	; (80019fc <MX_SPI1_Init+0x64>)
 80019d2:	2200      	movs	r2, #0
 80019d4:	621a      	str	r2, [r3, #32]
  hspi1.Init.TIMode = SPI_TIMODE_DISABLE;
 80019d6:	4b09      	ldr	r3, [pc, #36]	; (80019fc <MX_SPI1_Init+0x64>)
 80019d8:	2200      	movs	r2, #0
 80019da:	625a      	str	r2, [r3, #36]	; 0x24
  hspi1.Init.CRCCalculation = SPI_CRCCALCULATION_DISABLE;
 80019dc:	4b07      	ldr	r3, [pc, #28]	; (80019fc <MX_SPI1_Init+0x64>)
 80019de:	2200      	movs	r2, #0
 80019e0:	629a      	str	r2, [r3, #40]	; 0x28
  hspi1.Init.CRCPolynomial = 10;
 80019e2:	4b06      	ldr	r3, [pc, #24]	; (80019fc <MX_SPI1_Init+0x64>)
 80019e4:	220a      	movs	r2, #10
 80019e6:	62da      	str	r2, [r3, #44]	; 0x2c
  if (HAL_SPI_Init(&hspi1) != HAL_OK)
 80019e8:	4804      	ldr	r0, [pc, #16]	; (80019fc <MX_SPI1_Init+0x64>)
 80019ea:	f003 fe0b 	bl	8005604 <HAL_SPI_Init>
 80019ee:	4603      	mov	r3, r0
 80019f0:	2b00      	cmp	r3, #0
 80019f2:	d001      	beq.n	80019f8 <MX_SPI1_Init+0x60>
  {
    Error_Handler();
 80019f4:	f000 fc08 	bl	8002208 <Error_Handler>
  }
  /* USER CODE BEGIN SPI1_Init 2 */

  /* USER CODE END SPI1_Init 2 */

}
 80019f8:	bf00      	nop
 80019fa:	bd80      	pop	{r7, pc}
 80019fc:	20000184 	.word	0x20000184
 8001a00:	40013000 	.word	0x40013000

08001a04 <MX_TIM2_Init>:
  * @brief TIM2 Initialization Function
  * @param None
  * @retval None
  */
static void MX_TIM2_Init(void)
{
 8001a04:	b580      	push	{r7, lr}
 8001a06:	b086      	sub	sp, #24
 8001a08:	af00      	add	r7, sp, #0

  /* USER CODE BEGIN TIM2_Init 0 */

  /* USER CODE END TIM2_Init 0 */

  TIM_MasterConfigTypeDef sMasterConfig = {0};
 8001a0a:	f107 0310 	add.w	r3, r7, #16
 8001a0e:	2200      	movs	r2, #0
 8001a10:	601a      	str	r2, [r3, #0]
 8001a12:	605a      	str	r2, [r3, #4]
  TIM_IC_InitTypeDef sConfigIC = {0};
 8001a14:	463b      	mov	r3, r7
 8001a16:	2200      	movs	r2, #0
 8001a18:	601a      	str	r2, [r3, #0]
 8001a1a:	605a      	str	r2, [r3, #4]
 8001a1c:	609a      	str	r2, [r3, #8]
 8001a1e:	60da      	str	r2, [r3, #12]

  /* USER CODE BEGIN TIM2_Init 1 */

  /* USER CODE END TIM2_Init 1 */
  htim2.Instance = TIM2;
 8001a20:	4b20      	ldr	r3, [pc, #128]	; (8001aa4 <MX_TIM2_Init+0xa0>)
 8001a22:	f04f 4280 	mov.w	r2, #1073741824	; 0x40000000
 8001a26:	601a      	str	r2, [r3, #0]
  htim2.Init.Prescaler = 0;
 8001a28:	4b1e      	ldr	r3, [pc, #120]	; (8001aa4 <MX_TIM2_Init+0xa0>)
 8001a2a:	2200      	movs	r2, #0
 8001a2c:	605a      	str	r2, [r3, #4]
  htim2.Init.CounterMode = TIM_COUNTERMODE_UP;
 8001a2e:	4b1d      	ldr	r3, [pc, #116]	; (8001aa4 <MX_TIM2_Init+0xa0>)
 8001a30:	2200      	movs	r2, #0
 8001a32:	609a      	str	r2, [r3, #8]
  htim2.Init.Period = 4294967295;
 8001a34:	4b1b      	ldr	r3, [pc, #108]	; (8001aa4 <MX_TIM2_Init+0xa0>)
 8001a36:	f04f 32ff 	mov.w	r2, #4294967295	; 0xffffffff
 8001a3a:	60da      	str	r2, [r3, #12]
  htim2.Init.ClockDivision = TIM_CLOCKDIVISION_DIV1;
 8001a3c:	4b19      	ldr	r3, [pc, #100]	; (8001aa4 <MX_TIM2_Init+0xa0>)
 8001a3e:	2200      	movs	r2, #0
 8001a40:	611a      	str	r2, [r3, #16]
  htim2.Init.AutoReloadPreload = TIM_AUTORELOAD_PRELOAD_DISABLE;
 8001a42:	4b18      	ldr	r3, [pc, #96]	; (8001aa4 <MX_TIM2_Init+0xa0>)
 8001a44:	2200      	movs	r2, #0
 8001a46:	619a      	str	r2, [r3, #24]
  if (HAL_TIM_IC_Init(&htim2) != HAL_OK)
 8001a48:	4816      	ldr	r0, [pc, #88]	; (8001aa4 <MX_TIM2_Init+0xa0>)
 8001a4a:	f004 fb83 	bl	8006154 <HAL_TIM_IC_Init>
 8001a4e:	4603      	mov	r3, r0
 8001a50:	2b00      	cmp	r3, #0
 8001a52:	d001      	beq.n	8001a58 <MX_TIM2_Init+0x54>
  {
    Error_Handler();
 8001a54:	f000 fbd8 	bl	8002208 <Error_Handler>
  }
  sMasterConfig.MasterOutputTrigger = TIM_TRGO_RESET;
 8001a58:	2300      	movs	r3, #0
 8001a5a:	613b      	str	r3, [r7, #16]
  sMasterConfig.MasterSlaveMode = TIM_MASTERSLAVEMODE_DISABLE;
 8001a5c:	2300      	movs	r3, #0
 8001a5e:	617b      	str	r3, [r7, #20]
  if (HAL_TIMEx_MasterConfigSynchronization(&htim2, &sMasterConfig) != HAL_OK)
 8001a60:	f107 0310 	add.w	r3, r7, #16
 8001a64:	4619      	mov	r1, r3
 8001a66:	480f      	ldr	r0, [pc, #60]	; (8001aa4 <MX_TIM2_Init+0xa0>)
 8001a68:	f005 f8a8 	bl	8006bbc <HAL_TIMEx_MasterConfigSynchronization>
 8001a6c:	4603      	mov	r3, r0
 8001a6e:	2b00      	cmp	r3, #0
 8001a70:	d001      	beq.n	8001a76 <MX_TIM2_Init+0x72>
  {
    Error_Handler();
 8001a72:	f000 fbc9 	bl	8002208 <Error_Handler>
  }
  sConfigIC.ICPolarity = TIM_INPUTCHANNELPOLARITY_RISING;
 8001a76:	2300      	movs	r3, #0
 8001a78:	603b      	str	r3, [r7, #0]
  sConfigIC.ICSelection = TIM_ICSELECTION_DIRECTTI;
 8001a7a:	2301      	movs	r3, #1
 8001a7c:	607b      	str	r3, [r7, #4]
  sConfigIC.ICPrescaler = TIM_ICPSC_DIV1;
 8001a7e:	2300      	movs	r3, #0
 8001a80:	60bb      	str	r3, [r7, #8]
  sConfigIC.ICFilter = 0;
 8001a82:	2300      	movs	r3, #0
 8001a84:	60fb      	str	r3, [r7, #12]
  if (HAL_TIM_IC_ConfigChannel(&htim2, &sConfigIC, TIM_CHANNEL_3) != HAL_OK)
 8001a86:	463b      	mov	r3, r7
 8001a88:	2208      	movs	r2, #8
 8001a8a:	4619      	mov	r1, r3
 8001a8c:	4805      	ldr	r0, [pc, #20]	; (8001aa4 <MX_TIM2_Init+0xa0>)
 8001a8e:	f004 fde1 	bl	8006654 <HAL_TIM_IC_ConfigChannel>
 8001a92:	4603      	mov	r3, r0
 8001a94:	2b00      	cmp	r3, #0
 8001a96:	d001      	beq.n	8001a9c <MX_TIM2_Init+0x98>
  {
    Error_Handler();
 8001a98:	f000 fbb6 	bl	8002208 <Error_Handler>
  }
  /* USER CODE BEGIN TIM2_Init 2 */

  /* USER CODE END TIM2_Init 2 */

}
 8001a9c:	bf00      	nop
 8001a9e:	3718      	adds	r7, #24
 8001aa0:	46bd      	mov	sp, r7
 8001aa2:	bd80      	pop	{r7, pc}
 8001aa4:	200001dc 	.word	0x200001dc

08001aa8 <MX_USART1_UART_Init>:
  * @brief USART1 Initialization Function
  * @param None
  * @retval None
  */
static void MX_USART1_UART_Init(void)
{
 8001aa8:	b580      	push	{r7, lr}
 8001aaa:	af00      	add	r7, sp, #0
  /* USER CODE END USART1_Init 0 */

  /* USER CODE BEGIN USART1_Init 1 */

  /* USER CODE END USART1_Init 1 */
  huart1.Instance = USART1;
 8001aac:	4b11      	ldr	r3, [pc, #68]	; (8001af4 <MX_USART1_UART_Init+0x4c>)
 8001aae:	4a12      	ldr	r2, [pc, #72]	; (8001af8 <MX_USART1_UART_Init+0x50>)
 8001ab0:	601a      	str	r2, [r3, #0]
  huart1.Init.BaudRate = 115200;
 8001ab2:	4b10      	ldr	r3, [pc, #64]	; (8001af4 <MX_USART1_UART_Init+0x4c>)
 8001ab4:	f44f 32e1 	mov.w	r2, #115200	; 0x1c200
 8001ab8:	605a      	str	r2, [r3, #4]
  huart1.Init.WordLength = UART_WORDLENGTH_8B;
 8001aba:	4b0e      	ldr	r3, [pc, #56]	; (8001af4 <MX_USART1_UART_Init+0x4c>)
 8001abc:	2200      	movs	r2, #0
 8001abe:	609a      	str	r2, [r3, #8]
  huart1.Init.StopBits = UART_STOPBITS_1;
 8001ac0:	4b0c      	ldr	r3, [pc, #48]	; (8001af4 <MX_USART1_UART_Init+0x4c>)
 8001ac2:	2200      	movs	r2, #0
 8001ac4:	60da      	str	r2, [r3, #12]
  huart1.Init.Parity = UART_PARITY_NONE;
 8001ac6:	4b0b      	ldr	r3, [pc, #44]	; (8001af4 <MX_USART1_UART_Init+0x4c>)
 8001ac8:	2200      	movs	r2, #0
 8001aca:	611a      	str	r2, [r3, #16]
  huart1.Init.Mode = UART_MODE_TX_RX;
 8001acc:	4b09      	ldr	r3, [pc, #36]	; (8001af4 <MX_USART1_UART_Init+0x4c>)
 8001ace:	220c      	movs	r2, #12
 8001ad0:	615a      	str	r2, [r3, #20]
  huart1.Init.HwFlowCtl = UART_HWCONTROL_NONE;
 8001ad2:	4b08      	ldr	r3, [pc, #32]	; (8001af4 <MX_USART1_UART_Init+0x4c>)
 8001ad4:	2200      	movs	r2, #0
 8001ad6:	619a      	str	r2, [r3, #24]
  huart1.Init.OverSampling = UART_OVERSAMPLING_16;
 8001ad8:	4b06      	ldr	r3, [pc, #24]	; (8001af4 <MX_USART1_UART_Init+0x4c>)
 8001ada:	2200      	movs	r2, #0
 8001adc:	61da      	str	r2, [r3, #28]
  if (HAL_UART_Init(&huart1) != HAL_OK)
 8001ade:	4805      	ldr	r0, [pc, #20]	; (8001af4 <MX_USART1_UART_Init+0x4c>)
 8001ae0:	f005 f8fc 	bl	8006cdc <HAL_UART_Init>
 8001ae4:	4603      	mov	r3, r0
 8001ae6:	2b00      	cmp	r3, #0
 8001ae8:	d001      	beq.n	8001aee <MX_USART1_UART_Init+0x46>
  {
    Error_Handler();
 8001aea:	f000 fb8d 	bl	8002208 <Error_Handler>
  }
  /* USER CODE BEGIN USART1_Init 2 */

  /* USER CODE END USART1_Init 2 */

}
 8001aee:	bf00      	nop
 8001af0:	bd80      	pop	{r7, pc}
 8001af2:	bf00      	nop
 8001af4:	20000224 	.word	0x20000224
 8001af8:	40011000 	.word	0x40011000

08001afc <MX_USART2_UART_Init>:
  * @brief USART2 Initialization Function
  * @param None
  * @retval None
  */
static void MX_USART2_UART_Init(void)
{
 8001afc:	b580      	push	{r7, lr}
 8001afe:	af00      	add	r7, sp, #0
  /* USER CODE END USART2_Init 0 */

  /* USER CODE BEGIN USART2_Init 1 */

  /* USER CODE END USART2_Init 1 */
  huart2.Instance = USART2;
 8001b00:	4b11      	ldr	r3, [pc, #68]	; (8001b48 <MX_USART2_UART_Init+0x4c>)
 8001b02:	4a12      	ldr	r2, [pc, #72]	; (8001b4c <MX_USART2_UART_Init+0x50>)
 8001b04:	601a      	str	r2, [r3, #0]
  huart2.Init.BaudRate = 9600;
 8001b06:	4b10      	ldr	r3, [pc, #64]	; (8001b48 <MX_USART2_UART_Init+0x4c>)
 8001b08:	f44f 5216 	mov.w	r2, #9600	; 0x2580
 8001b0c:	605a      	str	r2, [r3, #4]
  huart2.Init.WordLength = UART_WORDLENGTH_8B;
 8001b0e:	4b0e      	ldr	r3, [pc, #56]	; (8001b48 <MX_USART2_UART_Init+0x4c>)
 8001b10:	2200      	movs	r2, #0
 8001b12:	609a      	str	r2, [r3, #8]
  huart2.Init.StopBits = UART_STOPBITS_1;
 8001b14:	4b0c      	ldr	r3, [pc, #48]	; (8001b48 <MX_USART2_UART_Init+0x4c>)
 8001b16:	2200      	movs	r2, #0
 8001b18:	60da      	str	r2, [r3, #12]
  huart2.Init.Parity = UART_PARITY_NONE;
 8001b1a:	4b0b      	ldr	r3, [pc, #44]	; (8001b48 <MX_USART2_UART_Init+0x4c>)
 8001b1c:	2200      	movs	r2, #0
 8001b1e:	611a      	str	r2, [r3, #16]
  huart2.Init.Mode = UART_MODE_TX_RX;
 8001b20:	4b09      	ldr	r3, [pc, #36]	; (8001b48 <MX_USART2_UART_Init+0x4c>)
 8001b22:	220c      	movs	r2, #12
 8001b24:	615a      	str	r2, [r3, #20]
  huart2.Init.HwFlowCtl = UART_HWCONTROL_NONE;
 8001b26:	4b08      	ldr	r3, [pc, #32]	; (8001b48 <MX_USART2_UART_Init+0x4c>)
 8001b28:	2200      	movs	r2, #0
 8001b2a:	619a      	str	r2, [r3, #24]
  huart2.Init.OverSampling = UART_OVERSAMPLING_16;
 8001b2c:	4b06      	ldr	r3, [pc, #24]	; (8001b48 <MX_USART2_UART_Init+0x4c>)
 8001b2e:	2200      	movs	r2, #0
 8001b30:	61da      	str	r2, [r3, #28]
  if (HAL_UART_Init(&huart2) != HAL_OK)
 8001b32:	4805      	ldr	r0, [pc, #20]	; (8001b48 <MX_USART2_UART_Init+0x4c>)
 8001b34:	f005 f8d2 	bl	8006cdc <HAL_UART_Init>
 8001b38:	4603      	mov	r3, r0
 8001b3a:	2b00      	cmp	r3, #0
 8001b3c:	d001      	beq.n	8001b42 <MX_USART2_UART_Init+0x46>
  {
    Error_Handler();
 8001b3e:	f000 fb63 	bl	8002208 <Error_Handler>
  }
  /* USER CODE BEGIN USART2_Init 2 */

  /* USER CODE END USART2_Init 2 */

}
 8001b42:	bf00      	nop
 8001b44:	bd80      	pop	{r7, pc}
 8001b46:	bf00      	nop
 8001b48:	20000268 	.word	0x20000268
 8001b4c:	40004400 	.word	0x40004400

08001b50 <MX_DMA_Init>:

/**
  * Enable DMA controller clock
  */
static void MX_DMA_Init(void)
{
 8001b50:	b580      	push	{r7, lr}
 8001b52:	b082      	sub	sp, #8
 8001b54:	af00      	add	r7, sp, #0

  /* DMA controller clock enable */
  __HAL_RCC_DMA2_CLK_ENABLE();
 8001b56:	2300      	movs	r3, #0
 8001b58:	607b      	str	r3, [r7, #4]
 8001b5a:	4b1b      	ldr	r3, [pc, #108]	; (8001bc8 <MX_DMA_Init+0x78>)
 8001b5c:	6b1b      	ldr	r3, [r3, #48]	; 0x30
 8001b5e:	4a1a      	ldr	r2, [pc, #104]	; (8001bc8 <MX_DMA_Init+0x78>)
 8001b60:	f443 0380 	orr.w	r3, r3, #4194304	; 0x400000
 8001b64:	6313      	str	r3, [r2, #48]	; 0x30
 8001b66:	4b18      	ldr	r3, [pc, #96]	; (8001bc8 <MX_DMA_Init+0x78>)
 8001b68:	6b1b      	ldr	r3, [r3, #48]	; 0x30
 8001b6a:	f403 0380 	and.w	r3, r3, #4194304	; 0x400000
 8001b6e:	607b      	str	r3, [r7, #4]
 8001b70:	687b      	ldr	r3, [r7, #4]
  __HAL_RCC_DMA1_CLK_ENABLE();
 8001b72:	2300      	movs	r3, #0
 8001b74:	603b      	str	r3, [r7, #0]
 8001b76:	4b14      	ldr	r3, [pc, #80]	; (8001bc8 <MX_DMA_Init+0x78>)
 8001b78:	6b1b      	ldr	r3, [r3, #48]	; 0x30
 8001b7a:	4a13      	ldr	r2, [pc, #76]	; (8001bc8 <MX_DMA_Init+0x78>)
 8001b7c:	f443 1300 	orr.w	r3, r3, #2097152	; 0x200000
 8001b80:	6313      	str	r3, [r2, #48]	; 0x30
 8001b82:	4b11      	ldr	r3, [pc, #68]	; (8001bc8 <MX_DMA_Init+0x78>)
 8001b84:	6b1b      	ldr	r3, [r3, #48]	; 0x30
 8001b86:	f403 1300 	and.w	r3, r3, #2097152	; 0x200000
 8001b8a:	603b      	str	r3, [r7, #0]
 8001b8c:	683b      	ldr	r3, [r7, #0]

  /* DMA interrupt init */
  /* DMA1_Stream5_IRQn interrupt configuration */
  HAL_NVIC_SetPriority(DMA1_Stream5_IRQn, 0, 0);
 8001b8e:	2200      	movs	r2, #0
 8001b90:	2100      	movs	r1, #0
 8001b92:	2010      	movs	r0, #16
 8001b94:	f000 fff9 	bl	8002b8a <HAL_NVIC_SetPriority>
  HAL_NVIC_EnableIRQ(DMA1_Stream5_IRQn);
 8001b98:	2010      	movs	r0, #16
 8001b9a:	f001 f812 	bl	8002bc2 <HAL_NVIC_EnableIRQ>
  /* DMA2_Stream4_IRQn interrupt configuration */
  HAL_NVIC_SetPriority(DMA2_Stream4_IRQn, 0, 0);
 8001b9e:	2200      	movs	r2, #0
 8001ba0:	2100      	movs	r1, #0
 8001ba2:	203c      	movs	r0, #60	; 0x3c
 8001ba4:	f000 fff1 	bl	8002b8a <HAL_NVIC_SetPriority>
  HAL_NVIC_EnableIRQ(DMA2_Stream4_IRQn);
 8001ba8:	203c      	movs	r0, #60	; 0x3c
 8001baa:	f001 f80a 	bl	8002bc2 <HAL_NVIC_EnableIRQ>
  /* DMA2_Stream7_IRQn interrupt configuration */
  HAL_NVIC_SetPriority(DMA2_Stream7_IRQn, 0, 0);
 8001bae:	2200      	movs	r2, #0
 8001bb0:	2100      	movs	r1, #0
 8001bb2:	2046      	movs	r0, #70	; 0x46
 8001bb4:	f000 ffe9 	bl	8002b8a <HAL_NVIC_SetPriority>
  HAL_NVIC_EnableIRQ(DMA2_Stream7_IRQn);
 8001bb8:	2046      	movs	r0, #70	; 0x46
 8001bba:	f001 f802 	bl	8002bc2 <HAL_NVIC_EnableIRQ>

}
 8001bbe:	bf00      	nop
 8001bc0:	3708      	adds	r7, #8
 8001bc2:	46bd      	mov	sp, r7
 8001bc4:	bd80      	pop	{r7, pc}
 8001bc6:	bf00      	nop
 8001bc8:	40023800 	.word	0x40023800

08001bcc <MX_GPIO_Init>:
  * @brief GPIO Initialization Function
  * @param None
  * @retval None
  */
static void MX_GPIO_Init(void)
{
 8001bcc:	b580      	push	{r7, lr}
 8001bce:	b08c      	sub	sp, #48	; 0x30
 8001bd0:	af00      	add	r7, sp, #0
  GPIO_InitTypeDef GPIO_InitStruct = {0};
 8001bd2:	f107 031c 	add.w	r3, r7, #28
 8001bd6:	2200      	movs	r2, #0
 8001bd8:	601a      	str	r2, [r3, #0]
 8001bda:	605a      	str	r2, [r3, #4]
 8001bdc:	609a      	str	r2, [r3, #8]
 8001bde:	60da      	str	r2, [r3, #12]
 8001be0:	611a      	str	r2, [r3, #16]

  /* GPIO Ports Clock Enable */
  __HAL_RCC_GPIOE_CLK_ENABLE();
 8001be2:	2300      	movs	r3, #0
 8001be4:	61bb      	str	r3, [r7, #24]
 8001be6:	4b59      	ldr	r3, [pc, #356]	; (8001d4c <MX_GPIO_Init+0x180>)
 8001be8:	6b1b      	ldr	r3, [r3, #48]	; 0x30
 8001bea:	4a58      	ldr	r2, [pc, #352]	; (8001d4c <MX_GPIO_Init+0x180>)
 8001bec:	f043 0310 	orr.w	r3, r3, #16
 8001bf0:	6313      	str	r3, [r2, #48]	; 0x30
 8001bf2:	4b56      	ldr	r3, [pc, #344]	; (8001d4c <MX_GPIO_Init+0x180>)
 8001bf4:	6b1b      	ldr	r3, [r3, #48]	; 0x30
 8001bf6:	f003 0310 	and.w	r3, r3, #16
 8001bfa:	61bb      	str	r3, [r7, #24]
 8001bfc:	69bb      	ldr	r3, [r7, #24]
  __HAL_RCC_GPIOC_CLK_ENABLE();
 8001bfe:	2300      	movs	r3, #0
 8001c00:	617b      	str	r3, [r7, #20]
 8001c02:	4b52      	ldr	r3, [pc, #328]	; (8001d4c <MX_GPIO_Init+0x180>)
 8001c04:	6b1b      	ldr	r3, [r3, #48]	; 0x30
 8001c06:	4a51      	ldr	r2, [pc, #324]	; (8001d4c <MX_GPIO_Init+0x180>)
 8001c08:	f043 0304 	orr.w	r3, r3, #4
 8001c0c:	6313      	str	r3, [r2, #48]	; 0x30
 8001c0e:	4b4f      	ldr	r3, [pc, #316]	; (8001d4c <MX_GPIO_Init+0x180>)
 8001c10:	6b1b      	ldr	r3, [r3, #48]	; 0x30
 8001c12:	f003 0304 	and.w	r3, r3, #4
 8001c16:	617b      	str	r3, [r7, #20]
 8001c18:	697b      	ldr	r3, [r7, #20]
  __HAL_RCC_GPIOF_CLK_ENABLE();
 8001c1a:	2300      	movs	r3, #0
 8001c1c:	613b      	str	r3, [r7, #16]
 8001c1e:	4b4b      	ldr	r3, [pc, #300]	; (8001d4c <MX_GPIO_Init+0x180>)
 8001c20:	6b1b      	ldr	r3, [r3, #48]	; 0x30
 8001c22:	4a4a      	ldr	r2, [pc, #296]	; (8001d4c <MX_GPIO_Init+0x180>)
 8001c24:	f043 0320 	orr.w	r3, r3, #32
 8001c28:	6313      	str	r3, [r2, #48]	; 0x30
 8001c2a:	4b48      	ldr	r3, [pc, #288]	; (8001d4c <MX_GPIO_Init+0x180>)
 8001c2c:	6b1b      	ldr	r3, [r3, #48]	; 0x30
 8001c2e:	f003 0320 	and.w	r3, r3, #32
 8001c32:	613b      	str	r3, [r7, #16]
 8001c34:	693b      	ldr	r3, [r7, #16]
  __HAL_RCC_GPIOH_CLK_ENABLE();
 8001c36:	2300      	movs	r3, #0
 8001c38:	60fb      	str	r3, [r7, #12]
 8001c3a:	4b44      	ldr	r3, [pc, #272]	; (8001d4c <MX_GPIO_Init+0x180>)
 8001c3c:	6b1b      	ldr	r3, [r3, #48]	; 0x30
 8001c3e:	4a43      	ldr	r2, [pc, #268]	; (8001d4c <MX_GPIO_Init+0x180>)
 8001c40:	f043 0380 	orr.w	r3, r3, #128	; 0x80
 8001c44:	6313      	str	r3, [r2, #48]	; 0x30
 8001c46:	4b41      	ldr	r3, [pc, #260]	; (8001d4c <MX_GPIO_Init+0x180>)
 8001c48:	6b1b      	ldr	r3, [r3, #48]	; 0x30
 8001c4a:	f003 0380 	and.w	r3, r3, #128	; 0x80
 8001c4e:	60fb      	str	r3, [r7, #12]
 8001c50:	68fb      	ldr	r3, [r7, #12]
  __HAL_RCC_GPIOA_CLK_ENABLE();
 8001c52:	2300      	movs	r3, #0
 8001c54:	60bb      	str	r3, [r7, #8]
 8001c56:	4b3d      	ldr	r3, [pc, #244]	; (8001d4c <MX_GPIO_Init+0x180>)
 8001c58:	6b1b      	ldr	r3, [r3, #48]	; 0x30
 8001c5a:	4a3c      	ldr	r2, [pc, #240]	; (8001d4c <MX_GPIO_Init+0x180>)
 8001c5c:	f043 0301 	orr.w	r3, r3, #1
 8001c60:	6313      	str	r3, [r2, #48]	; 0x30
 8001c62:	4b3a      	ldr	r3, [pc, #232]	; (8001d4c <MX_GPIO_Init+0x180>)
 8001c64:	6b1b      	ldr	r3, [r3, #48]	; 0x30
 8001c66:	f003 0301 	and.w	r3, r3, #1
 8001c6a:	60bb      	str	r3, [r7, #8]
 8001c6c:	68bb      	ldr	r3, [r7, #8]
  __HAL_RCC_GPIOD_CLK_ENABLE();
 8001c6e:	2300      	movs	r3, #0
 8001c70:	607b      	str	r3, [r7, #4]
 8001c72:	4b36      	ldr	r3, [pc, #216]	; (8001d4c <MX_GPIO_Init+0x180>)
 8001c74:	6b1b      	ldr	r3, [r3, #48]	; 0x30
 8001c76:	4a35      	ldr	r2, [pc, #212]	; (8001d4c <MX_GPIO_Init+0x180>)
 8001c78:	f043 0308 	orr.w	r3, r3, #8
 8001c7c:	6313      	str	r3, [r2, #48]	; 0x30
 8001c7e:	4b33      	ldr	r3, [pc, #204]	; (8001d4c <MX_GPIO_Init+0x180>)
 8001c80:	6b1b      	ldr	r3, [r3, #48]	; 0x30
 8001c82:	f003 0308 	and.w	r3, r3, #8
 8001c86:	607b      	str	r3, [r7, #4]
 8001c88:	687b      	ldr	r3, [r7, #4]
  __HAL_RCC_GPIOG_CLK_ENABLE();
 8001c8a:	2300      	movs	r3, #0
 8001c8c:	603b      	str	r3, [r7, #0]
 8001c8e:	4b2f      	ldr	r3, [pc, #188]	; (8001d4c <MX_GPIO_Init+0x180>)
 8001c90:	6b1b      	ldr	r3, [r3, #48]	; 0x30
 8001c92:	4a2e      	ldr	r2, [pc, #184]	; (8001d4c <MX_GPIO_Init+0x180>)
 8001c94:	f043 0340 	orr.w	r3, r3, #64	; 0x40
 8001c98:	6313      	str	r3, [r2, #48]	; 0x30
 8001c9a:	4b2c      	ldr	r3, [pc, #176]	; (8001d4c <MX_GPIO_Init+0x180>)
 8001c9c:	6b1b      	ldr	r3, [r3, #48]	; 0x30
 8001c9e:	f003 0340 	and.w	r3, r3, #64	; 0x40
 8001ca2:	603b      	str	r3, [r7, #0]
 8001ca4:	683b      	ldr	r3, [r7, #0]

  /*Configure GPIO pin Output Level */
  HAL_GPIO_WritePin(GPIOF, GPIO_PIN_3|GPIO_PIN_4|GPIO_PIN_5, GPIO_PIN_RESET);
 8001ca6:	2200      	movs	r2, #0
 8001ca8:	2138      	movs	r1, #56	; 0x38
 8001caa:	4829      	ldr	r0, [pc, #164]	; (8001d50 <MX_GPIO_Init+0x184>)
 8001cac:	f001 fd3a 	bl	8003724 <HAL_GPIO_WritePin>

  /*Configure GPIO pin Output Level */
  HAL_GPIO_WritePin(NSS_GPIO_Port, NSS_Pin, GPIO_PIN_RESET);
 8001cb0:	2200      	movs	r2, #0
 8001cb2:	2110      	movs	r1, #16
 8001cb4:	4827      	ldr	r0, [pc, #156]	; (8001d54 <MX_GPIO_Init+0x188>)
 8001cb6:	f001 fd35 	bl	8003724 <HAL_GPIO_WritePin>

  /*Configure GPIO pin Output Level */
  HAL_GPIO_WritePin(RST_GPIO_Port, RST_Pin, GPIO_PIN_RESET);
 8001cba:	2200      	movs	r2, #0
 8001cbc:	f44f 7100 	mov.w	r1, #512	; 0x200
 8001cc0:	4825      	ldr	r0, [pc, #148]	; (8001d58 <MX_GPIO_Init+0x18c>)
 8001cc2:	f001 fd2f 	bl	8003724 <HAL_GPIO_WritePin>

  /*Configure GPIO pin Output Level */
  HAL_GPIO_WritePin(GPIOG, GPIO_PIN_5, GPIO_PIN_RESET);
 8001cc6:	2200      	movs	r2, #0
 8001cc8:	2120      	movs	r1, #32
 8001cca:	4824      	ldr	r0, [pc, #144]	; (8001d5c <MX_GPIO_Init+0x190>)
 8001ccc:	f001 fd2a 	bl	8003724 <HAL_GPIO_WritePin>

  /*Configure GPIO pins : PF3 PF4 PF5 */
  GPIO_InitStruct.Pin = GPIO_PIN_3|GPIO_PIN_4|GPIO_PIN_5;
 8001cd0:	2338      	movs	r3, #56	; 0x38
 8001cd2:	61fb      	str	r3, [r7, #28]
  GPIO_InitStruct.Mode = GPIO_MODE_OUTPUT_PP;
 8001cd4:	2301      	movs	r3, #1
 8001cd6:	623b      	str	r3, [r7, #32]
  GPIO_InitStruct.Pull = GPIO_NOPULL;
 8001cd8:	2300      	movs	r3, #0
 8001cda:	627b      	str	r3, [r7, #36]	; 0x24
  GPIO_InitStruct.Speed = GPIO_SPEED_FREQ_LOW;
 8001cdc:	2300      	movs	r3, #0
 8001cde:	62bb      	str	r3, [r7, #40]	; 0x28
  HAL_GPIO_Init(GPIOF, &GPIO_InitStruct);
 8001ce0:	f107 031c 	add.w	r3, r7, #28
 8001ce4:	4619      	mov	r1, r3
 8001ce6:	481a      	ldr	r0, [pc, #104]	; (8001d50 <MX_GPIO_Init+0x184>)
 8001ce8:	f001 fb88 	bl	80033fc <HAL_GPIO_Init>

  /*Configure GPIO pin : NSS_Pin */
  GPIO_InitStruct.Pin = NSS_Pin;
 8001cec:	2310      	movs	r3, #16
 8001cee:	61fb      	str	r3, [r7, #28]
  GPIO_InitStruct.Mode = GPIO_MODE_OUTPUT_PP;
 8001cf0:	2301      	movs	r3, #1
 8001cf2:	623b      	str	r3, [r7, #32]
  GPIO_InitStruct.Pull = GPIO_NOPULL;
 8001cf4:	2300      	movs	r3, #0
 8001cf6:	627b      	str	r3, [r7, #36]	; 0x24
  GPIO_InitStruct.Speed = GPIO_SPEED_FREQ_LOW;
 8001cf8:	2300      	movs	r3, #0
 8001cfa:	62bb      	str	r3, [r7, #40]	; 0x28
  HAL_GPIO_Init(NSS_GPIO_Port, &GPIO_InitStruct);
 8001cfc:	f107 031c 	add.w	r3, r7, #28
 8001d00:	4619      	mov	r1, r3
 8001d02:	4814      	ldr	r0, [pc, #80]	; (8001d54 <MX_GPIO_Init+0x188>)
 8001d04:	f001 fb7a 	bl	80033fc <HAL_GPIO_Init>

  /*Configure GPIO pin : RST_Pin */
  GPIO_InitStruct.Pin = RST_Pin;
 8001d08:	f44f 7300 	mov.w	r3, #512	; 0x200
 8001d0c:	61fb      	str	r3, [r7, #28]
  GPIO_InitStruct.Mode = GPIO_MODE_OUTPUT_PP;
 8001d0e:	2301      	movs	r3, #1
 8001d10:	623b      	str	r3, [r7, #32]
  GPIO_InitStruct.Pull = GPIO_NOPULL;
 8001d12:	2300      	movs	r3, #0
 8001d14:	627b      	str	r3, [r7, #36]	; 0x24
  GPIO_InitStruct.Speed = GPIO_SPEED_FREQ_LOW;
 8001d16:	2300      	movs	r3, #0
 8001d18:	62bb      	str	r3, [r7, #40]	; 0x28
  HAL_GPIO_Init(RST_GPIO_Port, &GPIO_InitStruct);
 8001d1a:	f107 031c 	add.w	r3, r7, #28
 8001d1e:	4619      	mov	r1, r3
 8001d20:	480d      	ldr	r0, [pc, #52]	; (8001d58 <MX_GPIO_Init+0x18c>)
 8001d22:	f001 fb6b 	bl	80033fc <HAL_GPIO_Init>

  /*Configure GPIO pin : PG5 */
  GPIO_InitStruct.Pin = GPIO_PIN_5;
 8001d26:	2320      	movs	r3, #32
 8001d28:	61fb      	str	r3, [r7, #28]
  GPIO_InitStruct.Mode = GPIO_MODE_OUTPUT_PP;
 8001d2a:	2301      	movs	r3, #1
 8001d2c:	623b      	str	r3, [r7, #32]
  GPIO_InitStruct.Pull = GPIO_NOPULL;
 8001d2e:	2300      	movs	r3, #0
 8001d30:	627b      	str	r3, [r7, #36]	; 0x24
  GPIO_InitStruct.Speed = GPIO_SPEED_FREQ_LOW;
 8001d32:	2300      	movs	r3, #0
 8001d34:	62bb      	str	r3, [r7, #40]	; 0x28
  HAL_GPIO_Init(GPIOG, &GPIO_InitStruct);
 8001d36:	f107 031c 	add.w	r3, r7, #28
 8001d3a:	4619      	mov	r1, r3
 8001d3c:	4807      	ldr	r0, [pc, #28]	; (8001d5c <MX_GPIO_Init+0x190>)
 8001d3e:	f001 fb5d 	bl	80033fc <HAL_GPIO_Init>

}
 8001d42:	bf00      	nop
 8001d44:	3730      	adds	r7, #48	; 0x30
 8001d46:	46bd      	mov	sp, r7
 8001d48:	bd80      	pop	{r7, pc}
 8001d4a:	bf00      	nop
 8001d4c:	40023800 	.word	0x40023800
 8001d50:	40021400 	.word	0x40021400
 8001d54:	40020000 	.word	0x40020000
 8001d58:	40020c00 	.word	0x40020c00
 8001d5c:	40021800 	.word	0x40021800

08001d60 <HAL_SAI_RxHalfCpltCallback>:

/* USER CODE BEGIN 4 */
void HAL_SAI_RxHalfCpltCallback(SAI_HandleTypeDef *hsai) {
 8001d60:	b580      	push	{r7, lr}
 8001d62:	b082      	sub	sp, #8
 8001d64:	af00      	add	r7, sp, #0
 8001d66:	6078      	str	r0, [r7, #4]
	sendData(_sampleBuffer);
 8001d68:	4803      	ldr	r0, [pc, #12]	; (8001d78 <HAL_SAI_RxHalfCpltCallback+0x18>)
 8001d6a:	f000 f815 	bl	8001d98 <sendData>
}
 8001d6e:	bf00      	nop
 8001d70:	3708      	adds	r7, #8
 8001d72:	46bd      	mov	sp, r7
 8001d74:	bd80      	pop	{r7, pc}
 8001d76:	bf00      	nop
 8001d78:	2000036c 	.word	0x2000036c

08001d7c <HAL_SAI_RxCpltCallback>:

void HAL_SAI_RxCpltCallback(SAI_HandleTypeDef *hsai) {
 8001d7c:	b580      	push	{r7, lr}
 8001d7e:	b082      	sub	sp, #8
 8001d80:	af00      	add	r7, sp, #0
 8001d82:	6078      	str	r0, [r7, #4]
	sendData(&_sampleBuffer[MIC_SAMPLES_PER_PACKET]);
 8001d84:	4803      	ldr	r0, [pc, #12]	; (8001d94 <HAL_SAI_RxCpltCallback+0x18>)
 8001d86:	f000 f807 	bl	8001d98 <sendData>
}
 8001d8a:	bf00      	nop
 8001d8c:	3708      	adds	r7, #8
 8001d8e:	46bd      	mov	sp, r7
 8001d90:	bd80      	pop	{r7, pc}
 8001d92:	bf00      	nop
 8001d94:	2000112c 	.word	0x2000112c

08001d98 <sendData>:

void sendData(volatile int32_t *data_in) {
 8001d98:	b580      	push	{r7, lr}
 8001d9a:	f5ad 4d55 	sub.w	sp, sp, #54528	; 0xd500
 8001d9e:	b08a      	sub	sp, #40	; 0x28
 8001da0:	af00      	add	r7, sp, #0
 8001da2:	f507 63a5 	add.w	r3, r7, #1320	; 0x528
 8001da6:	f2a3 5324 	subw	r3, r3, #1316	; 0x524
 8001daa:	6018      	str	r0, [r3, #0]

	float data_in_float[MIC_SAMPLES_PER_PACKET / 2];
	float filt[MIC_SAMPLES_PER_PACKET / 2];
	volatile int32_t *data_in_tmp = data_in;
 8001dac:	f507 63a5 	add.w	r3, r7, #1320	; 0x528
 8001db0:	f2a3 5324 	subw	r3, r3, #1316	; 0x524
 8001db4:	681b      	ldr	r3, [r3, #0]
 8001db6:	f507 4255 	add.w	r2, r7, #54528	; 0xd500
 8001dba:	f102 0224 	add.w	r2, r2, #36	; 0x24
 8001dbe:	6013      	str	r3, [r2, #0]
	for (uint16_t i = 0; i < MIC_SAMPLES_PER_PACKET / 2; i++) {
 8001dc0:	2300      	movs	r3, #0
 8001dc2:	f507 4255 	add.w	r2, r7, #54528	; 0xd500
 8001dc6:	f102 0222 	add.w	r2, r2, #34	; 0x22
 8001dca:	8013      	strh	r3, [r2, #0]
 8001dcc:	e03a      	b.n	8001e44 <sendData+0xac>
		int16_t tmp = (int16_t) ((data_in_tmp[0]>>8) & 0xffff);
 8001dce:	f507 4355 	add.w	r3, r7, #54528	; 0xd500
 8001dd2:	f103 0324 	add.w	r3, r3, #36	; 0x24
 8001dd6:	681b      	ldr	r3, [r3, #0]
 8001dd8:	681b      	ldr	r3, [r3, #0]
 8001dda:	121b      	asrs	r3, r3, #8
 8001ddc:	f507 4255 	add.w	r2, r7, #54528	; 0xd500
 8001de0:	f102 0212 	add.w	r2, r2, #18
 8001de4:	8013      	strh	r3, [r2, #0]
		data_in_float[i] = (float) tmp;
 8001de6:	f507 4355 	add.w	r3, r7, #54528	; 0xd500
 8001dea:	f103 0322 	add.w	r3, r3, #34	; 0x22
 8001dee:	881b      	ldrh	r3, [r3, #0]
 8001df0:	f507 4255 	add.w	r2, r7, #54528	; 0xd500
 8001df4:	f102 0212 	add.w	r2, r2, #18
 8001df8:	f9b2 2000 	ldrsh.w	r2, [r2]
 8001dfc:	ee07 2a90 	vmov	s15, r2
 8001e00:	eef8 7ae7 	vcvt.f32.s32	s15, s15
 8001e04:	f507 4255 	add.w	r2, r7, #54528	; 0xd500
 8001e08:	f102 0228 	add.w	r2, r2, #40	; 0x28
 8001e0c:	f5a2 62df 	sub.w	r2, r2, #1784	; 0x6f8
 8001e10:	009b      	lsls	r3, r3, #2
 8001e12:	4413      	add	r3, r2
 8001e14:	edc3 7a00 	vstr	s15, [r3]
		data_in_tmp += 2;
 8001e18:	f507 4355 	add.w	r3, r7, #54528	; 0xd500
 8001e1c:	f103 0324 	add.w	r3, r3, #36	; 0x24
 8001e20:	681b      	ldr	r3, [r3, #0]
 8001e22:	3308      	adds	r3, #8
 8001e24:	f507 4255 	add.w	r2, r7, #54528	; 0xd500
 8001e28:	f102 0224 	add.w	r2, r2, #36	; 0x24
 8001e2c:	6013      	str	r3, [r2, #0]
	for (uint16_t i = 0; i < MIC_SAMPLES_PER_PACKET / 2; i++) {
 8001e2e:	f507 4355 	add.w	r3, r7, #54528	; 0xd500
 8001e32:	f103 0322 	add.w	r3, r3, #34	; 0x22
 8001e36:	881b      	ldrh	r3, [r3, #0]
 8001e38:	3301      	adds	r3, #1
 8001e3a:	f507 4255 	add.w	r2, r7, #54528	; 0xd500
 8001e3e:	f102 0222 	add.w	r2, r2, #34	; 0x22
 8001e42:	8013      	strh	r3, [r2, #0]
 8001e44:	f507 4355 	add.w	r3, r7, #54528	; 0xd500
 8001e48:	f103 0322 	add.w	r3, r3, #34	; 0x22
 8001e4c:	881b      	ldrh	r3, [r3, #0]
 8001e4e:	f5b3 7fdc 	cmp.w	r3, #440	; 0x1b8
 8001e52:	d3bc      	bcc.n	8001dce <sendData+0x36>
	}
	arm_fir_f32(&S, data_in_float, filt, blockSize);
 8001e54:	4b62      	ldr	r3, [pc, #392]	; (8001fe0 <sendData+0x248>)
 8001e56:	681b      	ldr	r3, [r3, #0]
 8001e58:	f507 4247 	add.w	r2, r7, #50944	; 0xc700
 8001e5c:	f102 0250 	add.w	r2, r2, #80	; 0x50
 8001e60:	f507 414e 	add.w	r1, r7, #52736	; 0xce00
 8001e64:	f101 0130 	add.w	r1, r1, #48	; 0x30
 8001e68:	485e      	ldr	r0, [pc, #376]	; (8001fe4 <sendData+0x24c>)
 8001e6a:	f7fe fbab 	bl	80005c4 <arm_fir_f32>


  if (_running) {
 8001e6e:	4b5e      	ldr	r3, [pc, #376]	; (8001fe8 <sendData+0x250>)
 8001e70:	781b      	ldrb	r3, [r3, #0]
 8001e72:	2b00      	cmp	r3, #0
 8001e74:	f000 81a2 	beq.w	80021bc <sendData+0x424>
      for (uint16_t i = 0; i < MIC_SAMPLES_PER_PACKET / 2; i++) {
 8001e78:	2300      	movs	r3, #0
 8001e7a:	f507 4255 	add.w	r2, r7, #54528	; 0xd500
 8001e7e:	f102 0220 	add.w	r2, r2, #32
 8001e82:	8013      	strh	r3, [r2, #0]
 8001e84:	e191      	b.n	80021aa <sendData+0x412>

        int16_t sample_left = (int16_t) ((data_in[0]>>8) & 0xffff);
 8001e86:	f507 63a5 	add.w	r3, r7, #1320	; 0x528
 8001e8a:	f2a3 5324 	subw	r3, r3, #1316	; 0x524
 8001e8e:	681b      	ldr	r3, [r3, #0]
 8001e90:	681b      	ldr	r3, [r3, #0]
 8001e92:	121b      	asrs	r3, r3, #8
 8001e94:	f507 4255 	add.w	r2, r7, #54528	; 0xd500
 8001e98:	f102 021a 	add.w	r2, r2, #26
 8001e9c:	8013      	strh	r3, [r2, #0]
        // int16_t sample_right = (int16_t) ((data_in[1]>>8) & 0xffff);
        float   sample_inf = (float) sample_left;
 8001e9e:	f507 4355 	add.w	r3, r7, #54528	; 0xd500
 8001ea2:	f103 031a 	add.w	r3, r3, #26
 8001ea6:	f9b3 3000 	ldrsh.w	r3, [r3]
 8001eaa:	ee07 3a90 	vmov	s15, r3
 8001eae:	eef8 7ae7 	vcvt.f32.s32	s15, s15
 8001eb2:	f507 4355 	add.w	r3, r7, #54528	; 0xd500
 8001eb6:	f103 0314 	add.w	r3, r3, #20
 8001eba:	edc3 7a00 	vstr	s15, [r3]
       // float filt;
      //  arm_fir_f32(&S, &sample_inf, &filt, blockSize);


        moving_sum += (int16_t) fabsf(filt[i]); // * abs(sample_right);
 8001ebe:	f507 4355 	add.w	r3, r7, #54528	; 0xd500
 8001ec2:	f103 0320 	add.w	r3, r3, #32
 8001ec6:	881b      	ldrh	r3, [r3, #0]
 8001ec8:	f507 4255 	add.w	r2, r7, #54528	; 0xd500
 8001ecc:	f102 0228 	add.w	r2, r2, #40	; 0x28
 8001ed0:	f6a2 52d8 	subw	r2, r2, #3544	; 0xdd8
 8001ed4:	009b      	lsls	r3, r3, #2
 8001ed6:	4413      	add	r3, r2
 8001ed8:	edd3 7a00 	vldr	s15, [r3]
 8001edc:	eef0 7ae7 	vabs.f32	s15, s15
 8001ee0:	eefd 7ae7 	vcvt.s32.f32	s15, s15
 8001ee4:	ee17 3a90 	vmov	r3, s15
 8001ee8:	b21b      	sxth	r3, r3
 8001eea:	ee07 3a90 	vmov	s15, r3
 8001eee:	eeb8 7ae7 	vcvt.f32.s32	s14, s15
 8001ef2:	4b3e      	ldr	r3, [pc, #248]	; (8001fec <sendData+0x254>)
 8001ef4:	edd3 7a00 	vldr	s15, [r3]
 8001ef8:	ee77 7a27 	vadd.f32	s15, s14, s15
 8001efc:	4b3b      	ldr	r3, [pc, #236]	; (8001fec <sendData+0x254>)
 8001efe:	edc3 7a00 	vstr	s15, [r3]
        moving_sum -= (int16_t) abs(circular_buf_mov[tail_mov]); // * abs(circular_buf_mov_right[tail_mov]);
 8001f02:	4b3a      	ldr	r3, [pc, #232]	; (8001fec <sendData+0x254>)
 8001f04:	ed93 7a00 	vldr	s14, [r3]
 8001f08:	4b39      	ldr	r3, [pc, #228]	; (8001ff0 <sendData+0x258>)
 8001f0a:	681b      	ldr	r3, [r3, #0]
 8001f0c:	4a39      	ldr	r2, [pc, #228]	; (8001ff4 <sendData+0x25c>)
 8001f0e:	f932 3013 	ldrsh.w	r3, [r2, r3, lsl #1]
 8001f12:	2b00      	cmp	r3, #0
 8001f14:	bfb8      	it	lt
 8001f16:	425b      	neglt	r3, r3
 8001f18:	b29b      	uxth	r3, r3
 8001f1a:	b21b      	sxth	r3, r3
 8001f1c:	ee07 3a90 	vmov	s15, r3
 8001f20:	eef8 7ae7 	vcvt.f32.s32	s15, s15
 8001f24:	ee77 7a67 	vsub.f32	s15, s14, s15
 8001f28:	4b30      	ldr	r3, [pc, #192]	; (8001fec <sendData+0x254>)
 8001f2a:	edc3 7a00 	vstr	s15, [r3]
        // moving_sum_left += abs(sample_left);
        // moving_sum_left -= abs(circular_buf_mov_left[tail_mov]);
        // moving_sum_right += abs(sample_right);
        // moving_sum_right -= abs(circular_buf_mov_right[tail_mov]);
    	circular_buf_mov[tail_mov] = (int16_t) filt[i];
 8001f2e:	f507 4355 	add.w	r3, r7, #54528	; 0xd500
 8001f32:	f103 0320 	add.w	r3, r3, #32
 8001f36:	881b      	ldrh	r3, [r3, #0]
 8001f38:	f507 4255 	add.w	r2, r7, #54528	; 0xd500
 8001f3c:	f102 0228 	add.w	r2, r2, #40	; 0x28
 8001f40:	f6a2 52d8 	subw	r2, r2, #3544	; 0xdd8
 8001f44:	009b      	lsls	r3, r3, #2
 8001f46:	4413      	add	r3, r2
 8001f48:	edd3 7a00 	vldr	s15, [r3]
 8001f4c:	4b28      	ldr	r3, [pc, #160]	; (8001ff0 <sendData+0x258>)
 8001f4e:	681b      	ldr	r3, [r3, #0]
 8001f50:	eefd 7ae7 	vcvt.s32.f32	s15, s15
 8001f54:	ee17 2a90 	vmov	r2, s15
 8001f58:	b211      	sxth	r1, r2
 8001f5a:	4a26      	ldr	r2, [pc, #152]	; (8001ff4 <sendData+0x25c>)
 8001f5c:	f822 1013 	strh.w	r1, [r2, r3, lsl #1]
    	// circular_buf_mov_right[tail_mov] = sample_right;
    	circular_buf_full[tail_full] = (int16_t) filt[i]; // + (float) sample_right)/2);
 8001f60:	f507 4355 	add.w	r3, r7, #54528	; 0xd500
 8001f64:	f103 0320 	add.w	r3, r3, #32
 8001f68:	881b      	ldrh	r3, [r3, #0]
 8001f6a:	f507 4255 	add.w	r2, r7, #54528	; 0xd500
 8001f6e:	f102 0228 	add.w	r2, r2, #40	; 0x28
 8001f72:	f6a2 52d8 	subw	r2, r2, #3544	; 0xdd8
 8001f76:	009b      	lsls	r3, r3, #2
 8001f78:	4413      	add	r3, r2
 8001f7a:	edd3 7a00 	vldr	s15, [r3]
 8001f7e:	4b1e      	ldr	r3, [pc, #120]	; (8001ff8 <sendData+0x260>)
 8001f80:	681b      	ldr	r3, [r3, #0]
 8001f82:	eefd 7ae7 	vcvt.s32.f32	s15, s15
 8001f86:	ee17 2a90 	vmov	r2, s15
 8001f8a:	b211      	sxth	r1, r2
 8001f8c:	4a1b      	ldr	r2, [pc, #108]	; (8001ffc <sendData+0x264>)
 8001f8e:	f822 1013 	strh.w	r1, [r2, r3, lsl #1]
        moving_avg = moving_sum / MOVING_AVG_LEN;
 8001f92:	4b16      	ldr	r3, [pc, #88]	; (8001fec <sendData+0x254>)
 8001f94:	ed93 7a00 	vldr	s14, [r3]
 8001f98:	eef1 6a04 	vmov.f32	s13, #20	; 0x40a00000  5.0
 8001f9c:	eec7 7a26 	vdiv.f32	s15, s14, s13
 8001fa0:	4b17      	ldr	r3, [pc, #92]	; (8002000 <sendData+0x268>)
 8001fa2:	edc3 7a00 	vstr	s15, [r3]
    	// moving_avg_left = ((float) moving_sum_left)/(MOVING_AVG_LEN);
    	// moving_avg_right = ((float) moving_sum_right)/(MOVING_AVG_LEN);


    	if ((counter > 0) && (!done)){
 8001fa6:	4b17      	ldr	r3, [pc, #92]	; (8002004 <sendData+0x26c>)
 8001fa8:	881b      	ldrh	r3, [r3, #0]
 8001faa:	2b00      	cmp	r3, #0
 8001fac:	f000 808d 	beq.w	80020ca <sendData+0x332>
 8001fb0:	4b15      	ldr	r3, [pc, #84]	; (8002008 <sendData+0x270>)
 8001fb2:	681b      	ldr	r3, [r3, #0]
 8001fb4:	2b00      	cmp	r3, #0
 8001fb6:	f040 8088 	bne.w	80020ca <sendData+0x332>
    		counter++;
 8001fba:	4b12      	ldr	r3, [pc, #72]	; (8002004 <sendData+0x26c>)
 8001fbc:	881b      	ldrh	r3, [r3, #0]
 8001fbe:	3301      	adds	r3, #1
 8001fc0:	b29a      	uxth	r2, r3
 8001fc2:	4b10      	ldr	r3, [pc, #64]	; (8002004 <sendData+0x26c>)
 8001fc4:	801a      	strh	r2, [r3, #0]
    		if (counter == (SEND_LEN/2)){ // TODO: need to change this to SEND_LEN-100;
 8001fc6:	4b0f      	ldr	r3, [pc, #60]	; (8002004 <sendData+0x26c>)
 8001fc8:	881b      	ldrh	r3, [r3, #0]
 8001fca:	f243 12ce 	movw	r2, #12750	; 0x31ce
 8001fce:	4293      	cmp	r3, r2
 8001fd0:	d17b      	bne.n	80020ca <sendData+0x332>

    			for(int delay = 0; delay < NODE_DELAY; delay++); // non-blocking delay used to offset the transmissions of each node to prevent garbled transmissions
 8001fd2:	2300      	movs	r3, #0
 8001fd4:	f507 4255 	add.w	r2, r7, #54528	; 0xd500
 8001fd8:	f102 021c 	add.w	r2, r2, #28
 8001fdc:	6013      	str	r3, [r2, #0]
 8001fde:	e020      	b.n	8002022 <sendData+0x28a>
 8001fe0:	20000008 	.word	0x20000008
 8001fe4:	2000ef28 	.word	0x2000ef28
 8001fe8:	2000e674 	.word	0x2000e674
 8001fec:	2000e64c 	.word	0x2000e64c
 8001ff0:	20001f08 	.word	0x20001f08
 8001ff4:	20001eec 	.word	0x20001eec
 8001ff8:	2000e648 	.word	0x2000e648
 8001ffc:	20001f0c 	.word	0x20001f0c
 8002000:	2000e650 	.word	0x2000e650
 8002004:	2000e676 	.word	0x2000e676
 8002008:	2000e678 	.word	0x2000e678
 800200c:	f507 4355 	add.w	r3, r7, #54528	; 0xd500
 8002010:	f103 031c 	add.w	r3, r3, #28
 8002014:	681b      	ldr	r3, [r3, #0]
 8002016:	3301      	adds	r3, #1
 8002018:	f507 4255 	add.w	r2, r7, #54528	; 0xd500
 800201c:	f102 021c 	add.w	r2, r2, #28
 8002020:	6013      	str	r3, [r2, #0]
 8002022:	f507 4355 	add.w	r3, r7, #54528	; 0xd500
 8002026:	f103 031c 	add.w	r3, r3, #28
 800202a:	681b      	ldr	r3, [r3, #0]
 800202c:	2b00      	cmp	r3, #0
 800202e:	dbed      	blt.n	800200c <sendData+0x274>
 8002030:	4b65      	ldr	r3, [pc, #404]	; (80021c8 <sendData+0x430>)
 8002032:	681a      	ldr	r2, [r3, #0]

    			uint8_t metaData[12];
    			memcpy(metaData, &startPadding, 4);
 8002034:	f507 4355 	add.w	r3, r7, #54528	; 0xd500
 8002038:	f103 0328 	add.w	r3, r3, #40	; 0x28
 800203c:	f6a3 53e4 	subw	r3, r3, #3556	; 0xde4
 8002040:	601a      	str	r2, [r3, #0]
    			memcpy(metaData+4, &timerVal, 4);
 8002042:	f507 4347 	add.w	r3, r7, #50944	; 0xc700
 8002046:	f103 0344 	add.w	r3, r3, #68	; 0x44
 800204a:	3304      	adds	r3, #4
 800204c:	4a5f      	ldr	r2, [pc, #380]	; (80021cc <sendData+0x434>)
 800204e:	6812      	ldr	r2, [r2, #0]
 8002050:	601a      	str	r2, [r3, #0]
    			memcpy(metaData+8, &devID, 4);
 8002052:	f507 4347 	add.w	r3, r7, #50944	; 0xc700
 8002056:	f103 0344 	add.w	r3, r3, #68	; 0x44
 800205a:	3308      	adds	r3, #8
 800205c:	4a5c      	ldr	r2, [pc, #368]	; (80021d0 <sendData+0x438>)
 800205e:	6812      	ldr	r2, [r2, #0]
 8002060:	601a      	str	r2, [r3, #0]
    			}

    			while(lora_is_transmitting(&lora)); // non-blocking delay
*/
    			uint8_t sendBuf[SEND_LEN*2];
    			memcpy(sendBuf, &circular_buf_full[tail_full], ((SEND_LEN)-tail_full)*2);
 8002062:	4b5c      	ldr	r3, [pc, #368]	; (80021d4 <sendData+0x43c>)
 8002064:	681b      	ldr	r3, [r3, #0]
 8002066:	005b      	lsls	r3, r3, #1
 8002068:	4a5b      	ldr	r2, [pc, #364]	; (80021d8 <sendData+0x440>)
 800206a:	1899      	adds	r1, r3, r2
 800206c:	4b59      	ldr	r3, [pc, #356]	; (80021d4 <sendData+0x43c>)
 800206e:	681b      	ldr	r3, [r3, #0]
 8002070:	f5c3 43c7 	rsb	r3, r3, #25472	; 0x6380
 8002074:	331c      	adds	r3, #28
 8002076:	005a      	lsls	r2, r3, #1
 8002078:	f107 0328 	add.w	r3, r7, #40	; 0x28
 800207c:	3b1c      	subs	r3, #28
 800207e:	4618      	mov	r0, r3
 8002080:	f006 f854 	bl	800812c <memcpy>
    			memcpy(&sendBuf[(SEND_LEN-tail_full)*2], circular_buf_full, tail_full*2);
 8002084:	4b53      	ldr	r3, [pc, #332]	; (80021d4 <sendData+0x43c>)
 8002086:	681b      	ldr	r3, [r3, #0]
 8002088:	f5c3 43c7 	rsb	r3, r3, #25472	; 0x6380
 800208c:	331c      	adds	r3, #28
 800208e:	005a      	lsls	r2, r3, #1
 8002090:	f107 0328 	add.w	r3, r7, #40	; 0x28
 8002094:	3b1c      	subs	r3, #28
 8002096:	1898      	adds	r0, r3, r2
 8002098:	4b4e      	ldr	r3, [pc, #312]	; (80021d4 <sendData+0x43c>)
 800209a:	681b      	ldr	r3, [r3, #0]
 800209c:	005b      	lsls	r3, r3, #1
 800209e:	461a      	mov	r2, r3
 80020a0:	494d      	ldr	r1, [pc, #308]	; (80021d8 <sendData+0x440>)
 80020a2:	f006 f843 	bl	800812c <memcpy>
    		    HAL_UART_Transmit(&huart1, (uint8_t*) sendBuf, SEND_LEN*2, 1000);
 80020a6:	f107 0128 	add.w	r1, r7, #40	; 0x28
 80020aa:	391c      	subs	r1, #28
 80020ac:	f44f 737a 	mov.w	r3, #1000	; 0x3e8
 80020b0:	f24c 7238 	movw	r2, #51000	; 0xc738
 80020b4:	4849      	ldr	r0, [pc, #292]	; (80021dc <sendData+0x444>)
 80020b6:	f004 fe5e 	bl	8006d76 <HAL_UART_Transmit>
    	    		HAL_GPIO_TogglePin(GPIOF, GPIO_PIN_3);
    				while(lora_is_transmitting(&lora)); // non-blocking delay
    			}
*/

        		HAL_GPIO_WritePin(GPIOF, GPIO_PIN_3, GPIO_PIN_RESET);
 80020ba:	2200      	movs	r2, #0
 80020bc:	2108      	movs	r1, #8
 80020be:	4848      	ldr	r0, [pc, #288]	; (80021e0 <sendData+0x448>)
 80020c0:	f001 fb30 	bl	8003724 <HAL_GPIO_WritePin>
    			done = 1;
 80020c4:	4b47      	ldr	r3, [pc, #284]	; (80021e4 <sendData+0x44c>)
 80020c6:	2201      	movs	r2, #1
 80020c8:	601a      	str	r2, [r3, #0]
    		}
    	}

    	if ((moving_avg >= MOVING_AVG_THRESHOLD) && (counter == 0)){
 80020ca:	4b47      	ldr	r3, [pc, #284]	; (80021e8 <sendData+0x450>)
 80020cc:	edd3 7a00 	vldr	s15, [r3]
 80020d0:	ed9f 7a46 	vldr	s14, [pc, #280]	; 80021ec <sendData+0x454>
 80020d4:	eef4 7ac7 	vcmpe.f32	s15, s14
 80020d8:	eef1 fa10 	vmrs	APSR_nzcv, fpscr
 80020dc:	db17      	blt.n	800210e <sendData+0x376>
 80020de:	4b44      	ldr	r3, [pc, #272]	; (80021f0 <sendData+0x458>)
 80020e0:	881b      	ldrh	r3, [r3, #0]
 80020e2:	2b00      	cmp	r3, #0
 80020e4:	d113      	bne.n	800210e <sendData+0x376>
    		timerVal = TIM2->CNT;
 80020e6:	f04f 4380 	mov.w	r3, #1073741824	; 0x40000000
 80020ea:	6a5b      	ldr	r3, [r3, #36]	; 0x24
 80020ec:	461a      	mov	r2, r3
 80020ee:	4b37      	ldr	r3, [pc, #220]	; (80021cc <sendData+0x434>)
 80020f0:	601a      	str	r2, [r3, #0]
    		HAL_GPIO_WritePin(GPIOF, GPIO_PIN_3, GPIO_PIN_RESET);
 80020f2:	2200      	movs	r2, #0
 80020f4:	2108      	movs	r1, #8
 80020f6:	483a      	ldr	r0, [pc, #232]	; (80021e0 <sendData+0x448>)
 80020f8:	f001 fb14 	bl	8003724 <HAL_GPIO_WritePin>
    		counter += 1;
 80020fc:	4b3c      	ldr	r3, [pc, #240]	; (80021f0 <sendData+0x458>)
 80020fe:	881b      	ldrh	r3, [r3, #0]
 8002100:	3301      	adds	r3, #1
 8002102:	b29a      	uxth	r2, r3
 8002104:	4b3a      	ldr	r3, [pc, #232]	; (80021f0 <sendData+0x458>)
 8002106:	801a      	strh	r2, [r3, #0]
    		done = 0;
 8002108:	4b36      	ldr	r3, [pc, #216]	; (80021e4 <sendData+0x44c>)
 800210a:	2200      	movs	r2, #0
 800210c:	601a      	str	r2, [r3, #0]

    	}
        tail_mov = (tail_mov + 1) % (MOVING_AVG_LEN);
 800210e:	4b39      	ldr	r3, [pc, #228]	; (80021f4 <sendData+0x45c>)
 8002110:	681b      	ldr	r3, [r3, #0]
 8002112:	1c59      	adds	r1, r3, #1
 8002114:	4b38      	ldr	r3, [pc, #224]	; (80021f8 <sendData+0x460>)
 8002116:	fba3 2301 	umull	r2, r3, r3, r1
 800211a:	089a      	lsrs	r2, r3, #2
 800211c:	4613      	mov	r3, r2
 800211e:	009b      	lsls	r3, r3, #2
 8002120:	4413      	add	r3, r2
 8002122:	1aca      	subs	r2, r1, r3
 8002124:	4b33      	ldr	r3, [pc, #204]	; (80021f4 <sendData+0x45c>)
 8002126:	601a      	str	r2, [r3, #0]
        head_mov = (head_mov + 1) % (MOVING_AVG_LEN);
 8002128:	4b34      	ldr	r3, [pc, #208]	; (80021fc <sendData+0x464>)
 800212a:	681b      	ldr	r3, [r3, #0]
 800212c:	1c59      	adds	r1, r3, #1
 800212e:	4b32      	ldr	r3, [pc, #200]	; (80021f8 <sendData+0x460>)
 8002130:	fba3 2301 	umull	r2, r3, r3, r1
 8002134:	089a      	lsrs	r2, r3, #2
 8002136:	4613      	mov	r3, r2
 8002138:	009b      	lsls	r3, r3, #2
 800213a:	4413      	add	r3, r2
 800213c:	1aca      	subs	r2, r1, r3
 800213e:	4b2f      	ldr	r3, [pc, #188]	; (80021fc <sendData+0x464>)
 8002140:	601a      	str	r2, [r3, #0]

        tail_full = (tail_full + 1) % (SEND_LEN);
 8002142:	4b24      	ldr	r3, [pc, #144]	; (80021d4 <sendData+0x43c>)
 8002144:	681b      	ldr	r3, [r3, #0]
 8002146:	1c5a      	adds	r2, r3, #1
 8002148:	0893      	lsrs	r3, r2, #2
 800214a:	492d      	ldr	r1, [pc, #180]	; (8002200 <sendData+0x468>)
 800214c:	fba1 1303 	umull	r1, r3, r1, r3
 8002150:	0a9b      	lsrs	r3, r3, #10
 8002152:	f246 319c 	movw	r1, #25500	; 0x639c
 8002156:	fb01 f303 	mul.w	r3, r1, r3
 800215a:	1ad3      	subs	r3, r2, r3
 800215c:	4a1d      	ldr	r2, [pc, #116]	; (80021d4 <sendData+0x43c>)
 800215e:	6013      	str	r3, [r2, #0]
        head_full = (head_full + 1) % (SEND_LEN);
 8002160:	4b28      	ldr	r3, [pc, #160]	; (8002204 <sendData+0x46c>)
 8002162:	681b      	ldr	r3, [r3, #0]
 8002164:	1c5a      	adds	r2, r3, #1
 8002166:	0893      	lsrs	r3, r2, #2
 8002168:	4925      	ldr	r1, [pc, #148]	; (8002200 <sendData+0x468>)
 800216a:	fba1 1303 	umull	r1, r3, r1, r3
 800216e:	0a9b      	lsrs	r3, r3, #10
 8002170:	f246 319c 	movw	r1, #25500	; 0x639c
 8002174:	fb01 f303 	mul.w	r3, r1, r3
 8002178:	1ad3      	subs	r3, r2, r3
 800217a:	4a22      	ldr	r2, [pc, #136]	; (8002204 <sendData+0x46c>)
 800217c:	6013      	str	r3, [r2, #0]

        data_in += 2;
 800217e:	f507 63a5 	add.w	r3, r7, #1320	; 0x528
 8002182:	f2a3 5324 	subw	r3, r3, #1316	; 0x524
 8002186:	f507 62a5 	add.w	r2, r7, #1320	; 0x528
 800218a:	f2a2 5224 	subw	r2, r2, #1316	; 0x524
 800218e:	6812      	ldr	r2, [r2, #0]
 8002190:	3208      	adds	r2, #8
 8002192:	601a      	str	r2, [r3, #0]
      for (uint16_t i = 0; i < MIC_SAMPLES_PER_PACKET / 2; i++) {
 8002194:	f507 4355 	add.w	r3, r7, #54528	; 0xd500
 8002198:	f103 0320 	add.w	r3, r3, #32
 800219c:	881b      	ldrh	r3, [r3, #0]
 800219e:	3301      	adds	r3, #1
 80021a0:	f507 4255 	add.w	r2, r7, #54528	; 0xd500
 80021a4:	f102 0220 	add.w	r2, r2, #32
 80021a8:	8013      	strh	r3, [r2, #0]
 80021aa:	f507 4355 	add.w	r3, r7, #54528	; 0xd500
 80021ae:	f103 0320 	add.w	r3, r3, #32
 80021b2:	881b      	ldrh	r3, [r3, #0]
 80021b4:	f5b3 7fdc 	cmp.w	r3, #440	; 0x1b8
 80021b8:	f4ff ae65 	bcc.w	8001e86 <sendData+0xee>
      }


  }
}
 80021bc:	bf00      	nop
 80021be:	f507 4755 	add.w	r7, r7, #54528	; 0xd500
 80021c2:	3728      	adds	r7, #40	; 0x28
 80021c4:	46bd      	mov	sp, r7
 80021c6:	bd80      	pop	{r7, pc}
 80021c8:	20000004 	.word	0x20000004
 80021cc:	2000f7a4 	.word	0x2000f7a4
 80021d0:	20000000 	.word	0x20000000
 80021d4:	2000e648 	.word	0x2000e648
 80021d8:	20001f0c 	.word	0x20001f0c
 80021dc:	20000224 	.word	0x20000224
 80021e0:	40021400 	.word	0x40021400
 80021e4:	2000e678 	.word	0x2000e678
 80021e8:	2000e650 	.word	0x2000e650
 80021ec:	42c80000 	.word	0x42c80000
 80021f0:	2000e676 	.word	0x2000e676
 80021f4:	20001f08 	.word	0x20001f08
 80021f8:	cccccccd 	.word	0xcccccccd
 80021fc:	20001f04 	.word	0x20001f04
 8002200:	291ee171 	.word	0x291ee171
 8002204:	2000e644 	.word	0x2000e644

08002208 <Error_Handler>:
/**
  * @brief  This function is executed in case of error occurrence.
  * @retval None
  */
void Error_Handler(void)
{
 8002208:	b480      	push	{r7}
 800220a:	af00      	add	r7, sp, #0
  \details Disables IRQ interrupts by setting the I-bit in the CPSR.
           Can only be executed in Privileged modes.
 */
__STATIC_FORCEINLINE void __disable_irq(void)
{
  __ASM volatile ("cpsid i" : : : "memory");
 800220c:	b672      	cpsid	i
}
 800220e:	bf00      	nop
  /* USER CODE BEGIN Error_Handler_Debug */
  /* User can add his own implementation to report the HAL error return state */
  __disable_irq();
  while (1)
 8002210:	e7fe      	b.n	8002210 <Error_Handler+0x8>
	...

08002214 <HAL_MspInit>:
/* USER CODE END 0 */
/**
  * Initializes the Global MSP.
  */
void HAL_MspInit(void)
{
 8002214:	b480      	push	{r7}
 8002216:	b083      	sub	sp, #12
 8002218:	af00      	add	r7, sp, #0
  /* USER CODE BEGIN MspInit 0 */

  /* USER CODE END MspInit 0 */

  __HAL_RCC_SYSCFG_CLK_ENABLE();
 800221a:	2300      	movs	r3, #0
 800221c:	607b      	str	r3, [r7, #4]
 800221e:	4b10      	ldr	r3, [pc, #64]	; (8002260 <HAL_MspInit+0x4c>)
 8002220:	6c5b      	ldr	r3, [r3, #68]	; 0x44
 8002222:	4a0f      	ldr	r2, [pc, #60]	; (8002260 <HAL_MspInit+0x4c>)
 8002224:	f443 4380 	orr.w	r3, r3, #16384	; 0x4000
 8002228:	6453      	str	r3, [r2, #68]	; 0x44
 800222a:	4b0d      	ldr	r3, [pc, #52]	; (8002260 <HAL_MspInit+0x4c>)
 800222c:	6c5b      	ldr	r3, [r3, #68]	; 0x44
 800222e:	f403 4380 	and.w	r3, r3, #16384	; 0x4000
 8002232:	607b      	str	r3, [r7, #4]
 8002234:	687b      	ldr	r3, [r7, #4]
  __HAL_RCC_PWR_CLK_ENABLE();
 8002236:	2300      	movs	r3, #0
 8002238:	603b      	str	r3, [r7, #0]
 800223a:	4b09      	ldr	r3, [pc, #36]	; (8002260 <HAL_MspInit+0x4c>)
 800223c:	6c1b      	ldr	r3, [r3, #64]	; 0x40
 800223e:	4a08      	ldr	r2, [pc, #32]	; (8002260 <HAL_MspInit+0x4c>)
 8002240:	f043 5380 	orr.w	r3, r3, #268435456	; 0x10000000
 8002244:	6413      	str	r3, [r2, #64]	; 0x40
 8002246:	4b06      	ldr	r3, [pc, #24]	; (8002260 <HAL_MspInit+0x4c>)
 8002248:	6c1b      	ldr	r3, [r3, #64]	; 0x40
 800224a:	f003 5380 	and.w	r3, r3, #268435456	; 0x10000000
 800224e:	603b      	str	r3, [r7, #0]
 8002250:	683b      	ldr	r3, [r7, #0]
  /* System interrupt init*/

  /* USER CODE BEGIN MspInit 1 */

  /* USER CODE END MspInit 1 */
}
 8002252:	bf00      	nop
 8002254:	370c      	adds	r7, #12
 8002256:	46bd      	mov	sp, r7
 8002258:	f85d 7b04 	ldr.w	r7, [sp], #4
 800225c:	4770      	bx	lr
 800225e:	bf00      	nop
 8002260:	40023800 	.word	0x40023800

08002264 <HAL_SPI_MspInit>:
* This function configures the hardware resources used in this example
* @param hspi: SPI handle pointer
* @retval None
*/
void HAL_SPI_MspInit(SPI_HandleTypeDef* hspi)
{
 8002264:	b580      	push	{r7, lr}
 8002266:	b08a      	sub	sp, #40	; 0x28
 8002268:	af00      	add	r7, sp, #0
 800226a:	6078      	str	r0, [r7, #4]
  GPIO_InitTypeDef GPIO_InitStruct = {0};
 800226c:	f107 0314 	add.w	r3, r7, #20
 8002270:	2200      	movs	r2, #0
 8002272:	601a      	str	r2, [r3, #0]
 8002274:	605a      	str	r2, [r3, #4]
 8002276:	609a      	str	r2, [r3, #8]
 8002278:	60da      	str	r2, [r3, #12]
 800227a:	611a      	str	r2, [r3, #16]
  if(hspi->Instance==SPI1)
 800227c:	687b      	ldr	r3, [r7, #4]
 800227e:	681b      	ldr	r3, [r3, #0]
 8002280:	4a19      	ldr	r2, [pc, #100]	; (80022e8 <HAL_SPI_MspInit+0x84>)
 8002282:	4293      	cmp	r3, r2
 8002284:	d12b      	bne.n	80022de <HAL_SPI_MspInit+0x7a>
  {
  /* USER CODE BEGIN SPI1_MspInit 0 */

  /* USER CODE END SPI1_MspInit 0 */
    /* Peripheral clock enable */
    __HAL_RCC_SPI1_CLK_ENABLE();
 8002286:	2300      	movs	r3, #0
 8002288:	613b      	str	r3, [r7, #16]
 800228a:	4b18      	ldr	r3, [pc, #96]	; (80022ec <HAL_SPI_MspInit+0x88>)
 800228c:	6c5b      	ldr	r3, [r3, #68]	; 0x44
 800228e:	4a17      	ldr	r2, [pc, #92]	; (80022ec <HAL_SPI_MspInit+0x88>)
 8002290:	f443 5380 	orr.w	r3, r3, #4096	; 0x1000
 8002294:	6453      	str	r3, [r2, #68]	; 0x44
 8002296:	4b15      	ldr	r3, [pc, #84]	; (80022ec <HAL_SPI_MspInit+0x88>)
 8002298:	6c5b      	ldr	r3, [r3, #68]	; 0x44
 800229a:	f403 5380 	and.w	r3, r3, #4096	; 0x1000
 800229e:	613b      	str	r3, [r7, #16]
 80022a0:	693b      	ldr	r3, [r7, #16]

    __HAL_RCC_GPIOA_CLK_ENABLE();
 80022a2:	2300      	movs	r3, #0
 80022a4:	60fb      	str	r3, [r7, #12]
 80022a6:	4b11      	ldr	r3, [pc, #68]	; (80022ec <HAL_SPI_MspInit+0x88>)
 80022a8:	6b1b      	ldr	r3, [r3, #48]	; 0x30
 80022aa:	4a10      	ldr	r2, [pc, #64]	; (80022ec <HAL_SPI_MspInit+0x88>)
 80022ac:	f043 0301 	orr.w	r3, r3, #1
 80022b0:	6313      	str	r3, [r2, #48]	; 0x30
 80022b2:	4b0e      	ldr	r3, [pc, #56]	; (80022ec <HAL_SPI_MspInit+0x88>)
 80022b4:	6b1b      	ldr	r3, [r3, #48]	; 0x30
 80022b6:	f003 0301 	and.w	r3, r3, #1
 80022ba:	60fb      	str	r3, [r7, #12]
 80022bc:	68fb      	ldr	r3, [r7, #12]
    /**SPI1 GPIO Configuration
    PA5     ------> SPI1_SCK
    PA6     ------> SPI1_MISO
    PA7     ------> SPI1_MOSI
    */
    GPIO_InitStruct.Pin = GPIO_PIN_5|GPIO_PIN_6|GPIO_PIN_7;
 80022be:	23e0      	movs	r3, #224	; 0xe0
 80022c0:	617b      	str	r3, [r7, #20]
    GPIO_InitStruct.Mode = GPIO_MODE_AF_PP;
 80022c2:	2302      	movs	r3, #2
 80022c4:	61bb      	str	r3, [r7, #24]
    GPIO_InitStruct.Pull = GPIO_NOPULL;
 80022c6:	2300      	movs	r3, #0
 80022c8:	61fb      	str	r3, [r7, #28]
    GPIO_InitStruct.Speed = GPIO_SPEED_FREQ_VERY_HIGH;
 80022ca:	2303      	movs	r3, #3
 80022cc:	623b      	str	r3, [r7, #32]
    GPIO_InitStruct.Alternate = GPIO_AF5_SPI1;
 80022ce:	2305      	movs	r3, #5
 80022d0:	627b      	str	r3, [r7, #36]	; 0x24
    HAL_GPIO_Init(GPIOA, &GPIO_InitStruct);
 80022d2:	f107 0314 	add.w	r3, r7, #20
 80022d6:	4619      	mov	r1, r3
 80022d8:	4805      	ldr	r0, [pc, #20]	; (80022f0 <HAL_SPI_MspInit+0x8c>)
 80022da:	f001 f88f 	bl	80033fc <HAL_GPIO_Init>
  /* USER CODE BEGIN SPI1_MspInit 1 */

  /* USER CODE END SPI1_MspInit 1 */
  }

}
 80022de:	bf00      	nop
 80022e0:	3728      	adds	r7, #40	; 0x28
 80022e2:	46bd      	mov	sp, r7
 80022e4:	bd80      	pop	{r7, pc}
 80022e6:	bf00      	nop
 80022e8:	40013000 	.word	0x40013000
 80022ec:	40023800 	.word	0x40023800
 80022f0:	40020000 	.word	0x40020000

080022f4 <HAL_TIM_IC_MspInit>:
* This function configures the hardware resources used in this example
* @param htim_ic: TIM_IC handle pointer
* @retval None
*/
void HAL_TIM_IC_MspInit(TIM_HandleTypeDef* htim_ic)
{
 80022f4:	b580      	push	{r7, lr}
 80022f6:	b08a      	sub	sp, #40	; 0x28
 80022f8:	af00      	add	r7, sp, #0
 80022fa:	6078      	str	r0, [r7, #4]
  GPIO_InitTypeDef GPIO_InitStruct = {0};
 80022fc:	f107 0314 	add.w	r3, r7, #20
 8002300:	2200      	movs	r2, #0
 8002302:	601a      	str	r2, [r3, #0]
 8002304:	605a      	str	r2, [r3, #4]
 8002306:	609a      	str	r2, [r3, #8]
 8002308:	60da      	str	r2, [r3, #12]
 800230a:	611a      	str	r2, [r3, #16]
  if(htim_ic->Instance==TIM2)
 800230c:	687b      	ldr	r3, [r7, #4]
 800230e:	681b      	ldr	r3, [r3, #0]
 8002310:	f1b3 4f80 	cmp.w	r3, #1073741824	; 0x40000000
 8002314:	d133      	bne.n	800237e <HAL_TIM_IC_MspInit+0x8a>
  {
  /* USER CODE BEGIN TIM2_MspInit 0 */

  /* USER CODE END TIM2_MspInit 0 */
    /* Peripheral clock enable */
    __HAL_RCC_TIM2_CLK_ENABLE();
 8002316:	2300      	movs	r3, #0
 8002318:	613b      	str	r3, [r7, #16]
 800231a:	4b1b      	ldr	r3, [pc, #108]	; (8002388 <HAL_TIM_IC_MspInit+0x94>)
 800231c:	6c1b      	ldr	r3, [r3, #64]	; 0x40
 800231e:	4a1a      	ldr	r2, [pc, #104]	; (8002388 <HAL_TIM_IC_MspInit+0x94>)
 8002320:	f043 0301 	orr.w	r3, r3, #1
 8002324:	6413      	str	r3, [r2, #64]	; 0x40
 8002326:	4b18      	ldr	r3, [pc, #96]	; (8002388 <HAL_TIM_IC_MspInit+0x94>)
 8002328:	6c1b      	ldr	r3, [r3, #64]	; 0x40
 800232a:	f003 0301 	and.w	r3, r3, #1
 800232e:	613b      	str	r3, [r7, #16]
 8002330:	693b      	ldr	r3, [r7, #16]

    __HAL_RCC_GPIOA_CLK_ENABLE();
 8002332:	2300      	movs	r3, #0
 8002334:	60fb      	str	r3, [r7, #12]
 8002336:	4b14      	ldr	r3, [pc, #80]	; (8002388 <HAL_TIM_IC_MspInit+0x94>)
 8002338:	6b1b      	ldr	r3, [r3, #48]	; 0x30
 800233a:	4a13      	ldr	r2, [pc, #76]	; (8002388 <HAL_TIM_IC_MspInit+0x94>)
 800233c:	f043 0301 	orr.w	r3, r3, #1
 8002340:	6313      	str	r3, [r2, #48]	; 0x30
 8002342:	4b11      	ldr	r3, [pc, #68]	; (8002388 <HAL_TIM_IC_MspInit+0x94>)
 8002344:	6b1b      	ldr	r3, [r3, #48]	; 0x30
 8002346:	f003 0301 	and.w	r3, r3, #1
 800234a:	60fb      	str	r3, [r7, #12]
 800234c:	68fb      	ldr	r3, [r7, #12]
    /**TIM2 GPIO Configuration
    PA2     ------> TIM2_CH3
    */
    GPIO_InitStruct.Pin = GPIO_PIN_2;
 800234e:	2304      	movs	r3, #4
 8002350:	617b      	str	r3, [r7, #20]
    GPIO_InitStruct.Mode = GPIO_MODE_AF_PP;
 8002352:	2302      	movs	r3, #2
 8002354:	61bb      	str	r3, [r7, #24]
    GPIO_InitStruct.Pull = GPIO_NOPULL;
 8002356:	2300      	movs	r3, #0
 8002358:	61fb      	str	r3, [r7, #28]
    GPIO_InitStruct.Speed = GPIO_SPEED_FREQ_LOW;
 800235a:	2300      	movs	r3, #0
 800235c:	623b      	str	r3, [r7, #32]
    GPIO_InitStruct.Alternate = GPIO_AF1_TIM2;
 800235e:	2301      	movs	r3, #1
 8002360:	627b      	str	r3, [r7, #36]	; 0x24
    HAL_GPIO_Init(GPIOA, &GPIO_InitStruct);
 8002362:	f107 0314 	add.w	r3, r7, #20
 8002366:	4619      	mov	r1, r3
 8002368:	4808      	ldr	r0, [pc, #32]	; (800238c <HAL_TIM_IC_MspInit+0x98>)
 800236a:	f001 f847 	bl	80033fc <HAL_GPIO_Init>

    /* TIM2 interrupt Init */
    HAL_NVIC_SetPriority(TIM2_IRQn, 0, 0);
 800236e:	2200      	movs	r2, #0
 8002370:	2100      	movs	r1, #0
 8002372:	201c      	movs	r0, #28
 8002374:	f000 fc09 	bl	8002b8a <HAL_NVIC_SetPriority>
    HAL_NVIC_EnableIRQ(TIM2_IRQn);
 8002378:	201c      	movs	r0, #28
 800237a:	f000 fc22 	bl	8002bc2 <HAL_NVIC_EnableIRQ>
  /* USER CODE BEGIN TIM2_MspInit 1 */

  /* USER CODE END TIM2_MspInit 1 */
  }

}
 800237e:	bf00      	nop
 8002380:	3728      	adds	r7, #40	; 0x28
 8002382:	46bd      	mov	sp, r7
 8002384:	bd80      	pop	{r7, pc}
 8002386:	bf00      	nop
 8002388:	40023800 	.word	0x40023800
 800238c:	40020000 	.word	0x40020000

08002390 <HAL_UART_MspInit>:
* This function configures the hardware resources used in this example
* @param huart: UART handle pointer
* @retval None
*/
void HAL_UART_MspInit(UART_HandleTypeDef* huart)
{
 8002390:	b580      	push	{r7, lr}
 8002392:	b08c      	sub	sp, #48	; 0x30
 8002394:	af00      	add	r7, sp, #0
 8002396:	6078      	str	r0, [r7, #4]
  GPIO_InitTypeDef GPIO_InitStruct = {0};
 8002398:	f107 031c 	add.w	r3, r7, #28
 800239c:	2200      	movs	r2, #0
 800239e:	601a      	str	r2, [r3, #0]
 80023a0:	605a      	str	r2, [r3, #4]
 80023a2:	609a      	str	r2, [r3, #8]
 80023a4:	60da      	str	r2, [r3, #12]
 80023a6:	611a      	str	r2, [r3, #16]
  if(huart->Instance==USART1)
 80023a8:	687b      	ldr	r3, [r7, #4]
 80023aa:	681b      	ldr	r3, [r3, #0]
 80023ac:	4a74      	ldr	r2, [pc, #464]	; (8002580 <HAL_UART_MspInit+0x1f0>)
 80023ae:	4293      	cmp	r3, r2
 80023b0:	d15b      	bne.n	800246a <HAL_UART_MspInit+0xda>
  {
  /* USER CODE BEGIN USART1_MspInit 0 */

  /* USER CODE END USART1_MspInit 0 */
    /* Peripheral clock enable */
    __HAL_RCC_USART1_CLK_ENABLE();
 80023b2:	2300      	movs	r3, #0
 80023b4:	61bb      	str	r3, [r7, #24]
 80023b6:	4b73      	ldr	r3, [pc, #460]	; (8002584 <HAL_UART_MspInit+0x1f4>)
 80023b8:	6c5b      	ldr	r3, [r3, #68]	; 0x44
 80023ba:	4a72      	ldr	r2, [pc, #456]	; (8002584 <HAL_UART_MspInit+0x1f4>)
 80023bc:	f043 0310 	orr.w	r3, r3, #16
 80023c0:	6453      	str	r3, [r2, #68]	; 0x44
 80023c2:	4b70      	ldr	r3, [pc, #448]	; (8002584 <HAL_UART_MspInit+0x1f4>)
 80023c4:	6c5b      	ldr	r3, [r3, #68]	; 0x44
 80023c6:	f003 0310 	and.w	r3, r3, #16
 80023ca:	61bb      	str	r3, [r7, #24]
 80023cc:	69bb      	ldr	r3, [r7, #24]

    __HAL_RCC_GPIOA_CLK_ENABLE();
 80023ce:	2300      	movs	r3, #0
 80023d0:	617b      	str	r3, [r7, #20]
 80023d2:	4b6c      	ldr	r3, [pc, #432]	; (8002584 <HAL_UART_MspInit+0x1f4>)
 80023d4:	6b1b      	ldr	r3, [r3, #48]	; 0x30
 80023d6:	4a6b      	ldr	r2, [pc, #428]	; (8002584 <HAL_UART_MspInit+0x1f4>)
 80023d8:	f043 0301 	orr.w	r3, r3, #1
 80023dc:	6313      	str	r3, [r2, #48]	; 0x30
 80023de:	4b69      	ldr	r3, [pc, #420]	; (8002584 <HAL_UART_MspInit+0x1f4>)
 80023e0:	6b1b      	ldr	r3, [r3, #48]	; 0x30
 80023e2:	f003 0301 	and.w	r3, r3, #1
 80023e6:	617b      	str	r3, [r7, #20]
 80023e8:	697b      	ldr	r3, [r7, #20]
    /**USART1 GPIO Configuration
    PA9     ------> USART1_TX
    PA10     ------> USART1_RX
    */
    GPIO_InitStruct.Pin = GPIO_PIN_9|GPIO_PIN_10;
 80023ea:	f44f 63c0 	mov.w	r3, #1536	; 0x600
 80023ee:	61fb      	str	r3, [r7, #28]
    GPIO_InitStruct.Mode = GPIO_MODE_AF_PP;
 80023f0:	2302      	movs	r3, #2
 80023f2:	623b      	str	r3, [r7, #32]
    GPIO_InitStruct.Pull = GPIO_NOPULL;
 80023f4:	2300      	movs	r3, #0
 80023f6:	627b      	str	r3, [r7, #36]	; 0x24
    GPIO_InitStruct.Speed = GPIO_SPEED_FREQ_VERY_HIGH;
 80023f8:	2303      	movs	r3, #3
 80023fa:	62bb      	str	r3, [r7, #40]	; 0x28
    GPIO_InitStruct.Alternate = GPIO_AF7_USART1;
 80023fc:	2307      	movs	r3, #7
 80023fe:	62fb      	str	r3, [r7, #44]	; 0x2c
    HAL_GPIO_Init(GPIOA, &GPIO_InitStruct);
 8002400:	f107 031c 	add.w	r3, r7, #28
 8002404:	4619      	mov	r1, r3
 8002406:	4860      	ldr	r0, [pc, #384]	; (8002588 <HAL_UART_MspInit+0x1f8>)
 8002408:	f000 fff8 	bl	80033fc <HAL_GPIO_Init>

    /* USART1 DMA Init */
    /* USART1_TX Init */
    hdma_usart1_tx.Instance = DMA2_Stream7;
 800240c:	4b5f      	ldr	r3, [pc, #380]	; (800258c <HAL_UART_MspInit+0x1fc>)
 800240e:	4a60      	ldr	r2, [pc, #384]	; (8002590 <HAL_UART_MspInit+0x200>)
 8002410:	601a      	str	r2, [r3, #0]
    hdma_usart1_tx.Init.Channel = DMA_CHANNEL_4;
 8002412:	4b5e      	ldr	r3, [pc, #376]	; (800258c <HAL_UART_MspInit+0x1fc>)
 8002414:	f04f 6200 	mov.w	r2, #134217728	; 0x8000000
 8002418:	605a      	str	r2, [r3, #4]
    hdma_usart1_tx.Init.Direction = DMA_MEMORY_TO_PERIPH;
 800241a:	4b5c      	ldr	r3, [pc, #368]	; (800258c <HAL_UART_MspInit+0x1fc>)
 800241c:	2240      	movs	r2, #64	; 0x40
 800241e:	609a      	str	r2, [r3, #8]
    hdma_usart1_tx.Init.PeriphInc = DMA_PINC_DISABLE;
 8002420:	4b5a      	ldr	r3, [pc, #360]	; (800258c <HAL_UART_MspInit+0x1fc>)
 8002422:	2200      	movs	r2, #0
 8002424:	60da      	str	r2, [r3, #12]
    hdma_usart1_tx.Init.MemInc = DMA_MINC_ENABLE;
 8002426:	4b59      	ldr	r3, [pc, #356]	; (800258c <HAL_UART_MspInit+0x1fc>)
 8002428:	f44f 6280 	mov.w	r2, #1024	; 0x400
 800242c:	611a      	str	r2, [r3, #16]
    hdma_usart1_tx.Init.PeriphDataAlignment = DMA_PDATAALIGN_BYTE;
 800242e:	4b57      	ldr	r3, [pc, #348]	; (800258c <HAL_UART_MspInit+0x1fc>)
 8002430:	2200      	movs	r2, #0
 8002432:	615a      	str	r2, [r3, #20]
    hdma_usart1_tx.Init.MemDataAlignment = DMA_MDATAALIGN_BYTE;
 8002434:	4b55      	ldr	r3, [pc, #340]	; (800258c <HAL_UART_MspInit+0x1fc>)
 8002436:	2200      	movs	r2, #0
 8002438:	619a      	str	r2, [r3, #24]
    hdma_usart1_tx.Init.Mode = DMA_NORMAL;
 800243a:	4b54      	ldr	r3, [pc, #336]	; (800258c <HAL_UART_MspInit+0x1fc>)
 800243c:	2200      	movs	r2, #0
 800243e:	61da      	str	r2, [r3, #28]
    hdma_usart1_tx.Init.Priority = DMA_PRIORITY_LOW;
 8002440:	4b52      	ldr	r3, [pc, #328]	; (800258c <HAL_UART_MspInit+0x1fc>)
 8002442:	2200      	movs	r2, #0
 8002444:	621a      	str	r2, [r3, #32]
    hdma_usart1_tx.Init.FIFOMode = DMA_FIFOMODE_DISABLE;
 8002446:	4b51      	ldr	r3, [pc, #324]	; (800258c <HAL_UART_MspInit+0x1fc>)
 8002448:	2200      	movs	r2, #0
 800244a:	625a      	str	r2, [r3, #36]	; 0x24
    if (HAL_DMA_Init(&hdma_usart1_tx) != HAL_OK)
 800244c:	484f      	ldr	r0, [pc, #316]	; (800258c <HAL_UART_MspInit+0x1fc>)
 800244e:	f000 fbd3 	bl	8002bf8 <HAL_DMA_Init>
 8002452:	4603      	mov	r3, r0
 8002454:	2b00      	cmp	r3, #0
 8002456:	d001      	beq.n	800245c <HAL_UART_MspInit+0xcc>
    {
      Error_Handler();
 8002458:	f7ff fed6 	bl	8002208 <Error_Handler>
    }

    __HAL_LINKDMA(huart,hdmatx,hdma_usart1_tx);
 800245c:	687b      	ldr	r3, [r7, #4]
 800245e:	4a4b      	ldr	r2, [pc, #300]	; (800258c <HAL_UART_MspInit+0x1fc>)
 8002460:	635a      	str	r2, [r3, #52]	; 0x34
 8002462:	4a4a      	ldr	r2, [pc, #296]	; (800258c <HAL_UART_MspInit+0x1fc>)
 8002464:	687b      	ldr	r3, [r7, #4]
 8002466:	6393      	str	r3, [r2, #56]	; 0x38
  /* USER CODE BEGIN USART2_MspInit 1 */

  /* USER CODE END USART2_MspInit 1 */
  }

}
 8002468:	e086      	b.n	8002578 <HAL_UART_MspInit+0x1e8>
  else if(huart->Instance==USART2)
 800246a:	687b      	ldr	r3, [r7, #4]
 800246c:	681b      	ldr	r3, [r3, #0]
 800246e:	4a49      	ldr	r2, [pc, #292]	; (8002594 <HAL_UART_MspInit+0x204>)
 8002470:	4293      	cmp	r3, r2
 8002472:	f040 8081 	bne.w	8002578 <HAL_UART_MspInit+0x1e8>
    __HAL_RCC_USART2_CLK_ENABLE();
 8002476:	2300      	movs	r3, #0
 8002478:	613b      	str	r3, [r7, #16]
 800247a:	4b42      	ldr	r3, [pc, #264]	; (8002584 <HAL_UART_MspInit+0x1f4>)
 800247c:	6c1b      	ldr	r3, [r3, #64]	; 0x40
 800247e:	4a41      	ldr	r2, [pc, #260]	; (8002584 <HAL_UART_MspInit+0x1f4>)
 8002480:	f443 3300 	orr.w	r3, r3, #131072	; 0x20000
 8002484:	6413      	str	r3, [r2, #64]	; 0x40
 8002486:	4b3f      	ldr	r3, [pc, #252]	; (8002584 <HAL_UART_MspInit+0x1f4>)
 8002488:	6c1b      	ldr	r3, [r3, #64]	; 0x40
 800248a:	f403 3300 	and.w	r3, r3, #131072	; 0x20000
 800248e:	613b      	str	r3, [r7, #16]
 8002490:	693b      	ldr	r3, [r7, #16]
    __HAL_RCC_GPIOA_CLK_ENABLE();
 8002492:	2300      	movs	r3, #0
 8002494:	60fb      	str	r3, [r7, #12]
 8002496:	4b3b      	ldr	r3, [pc, #236]	; (8002584 <HAL_UART_MspInit+0x1f4>)
 8002498:	6b1b      	ldr	r3, [r3, #48]	; 0x30
 800249a:	4a3a      	ldr	r2, [pc, #232]	; (8002584 <HAL_UART_MspInit+0x1f4>)
 800249c:	f043 0301 	orr.w	r3, r3, #1
 80024a0:	6313      	str	r3, [r2, #48]	; 0x30
 80024a2:	4b38      	ldr	r3, [pc, #224]	; (8002584 <HAL_UART_MspInit+0x1f4>)
 80024a4:	6b1b      	ldr	r3, [r3, #48]	; 0x30
 80024a6:	f003 0301 	and.w	r3, r3, #1
 80024aa:	60fb      	str	r3, [r7, #12]
 80024ac:	68fb      	ldr	r3, [r7, #12]
    __HAL_RCC_GPIOD_CLK_ENABLE();
 80024ae:	2300      	movs	r3, #0
 80024b0:	60bb      	str	r3, [r7, #8]
 80024b2:	4b34      	ldr	r3, [pc, #208]	; (8002584 <HAL_UART_MspInit+0x1f4>)
 80024b4:	6b1b      	ldr	r3, [r3, #48]	; 0x30
 80024b6:	4a33      	ldr	r2, [pc, #204]	; (8002584 <HAL_UART_MspInit+0x1f4>)
 80024b8:	f043 0308 	orr.w	r3, r3, #8
 80024bc:	6313      	str	r3, [r2, #48]	; 0x30
 80024be:	4b31      	ldr	r3, [pc, #196]	; (8002584 <HAL_UART_MspInit+0x1f4>)
 80024c0:	6b1b      	ldr	r3, [r3, #48]	; 0x30
 80024c2:	f003 0308 	and.w	r3, r3, #8
 80024c6:	60bb      	str	r3, [r7, #8]
 80024c8:	68bb      	ldr	r3, [r7, #8]
    GPIO_InitStruct.Pin = GPIO_PIN_3;
 80024ca:	2308      	movs	r3, #8
 80024cc:	61fb      	str	r3, [r7, #28]
    GPIO_InitStruct.Mode = GPIO_MODE_AF_PP;
 80024ce:	2302      	movs	r3, #2
 80024d0:	623b      	str	r3, [r7, #32]
    GPIO_InitStruct.Pull = GPIO_NOPULL;
 80024d2:	2300      	movs	r3, #0
 80024d4:	627b      	str	r3, [r7, #36]	; 0x24
    GPIO_InitStruct.Speed = GPIO_SPEED_FREQ_VERY_HIGH;
 80024d6:	2303      	movs	r3, #3
 80024d8:	62bb      	str	r3, [r7, #40]	; 0x28
    GPIO_InitStruct.Alternate = GPIO_AF7_USART2;
 80024da:	2307      	movs	r3, #7
 80024dc:	62fb      	str	r3, [r7, #44]	; 0x2c
    HAL_GPIO_Init(GPIOA, &GPIO_InitStruct);
 80024de:	f107 031c 	add.w	r3, r7, #28
 80024e2:	4619      	mov	r1, r3
 80024e4:	4828      	ldr	r0, [pc, #160]	; (8002588 <HAL_UART_MspInit+0x1f8>)
 80024e6:	f000 ff89 	bl	80033fc <HAL_GPIO_Init>
    GPIO_InitStruct.Pin = GPIO_PIN_5;
 80024ea:	2320      	movs	r3, #32
 80024ec:	61fb      	str	r3, [r7, #28]
    GPIO_InitStruct.Mode = GPIO_MODE_AF_PP;
 80024ee:	2302      	movs	r3, #2
 80024f0:	623b      	str	r3, [r7, #32]
    GPIO_InitStruct.Pull = GPIO_NOPULL;
 80024f2:	2300      	movs	r3, #0
 80024f4:	627b      	str	r3, [r7, #36]	; 0x24
    GPIO_InitStruct.Speed = GPIO_SPEED_FREQ_VERY_HIGH;
 80024f6:	2303      	movs	r3, #3
 80024f8:	62bb      	str	r3, [r7, #40]	; 0x28
    GPIO_InitStruct.Alternate = GPIO_AF7_USART2;
 80024fa:	2307      	movs	r3, #7
 80024fc:	62fb      	str	r3, [r7, #44]	; 0x2c
    HAL_GPIO_Init(GPIOD, &GPIO_InitStruct);
 80024fe:	f107 031c 	add.w	r3, r7, #28
 8002502:	4619      	mov	r1, r3
 8002504:	4824      	ldr	r0, [pc, #144]	; (8002598 <HAL_UART_MspInit+0x208>)
 8002506:	f000 ff79 	bl	80033fc <HAL_GPIO_Init>
    hdma_usart2_rx.Instance = DMA1_Stream5;
 800250a:	4b24      	ldr	r3, [pc, #144]	; (800259c <HAL_UART_MspInit+0x20c>)
 800250c:	4a24      	ldr	r2, [pc, #144]	; (80025a0 <HAL_UART_MspInit+0x210>)
 800250e:	601a      	str	r2, [r3, #0]
    hdma_usart2_rx.Init.Channel = DMA_CHANNEL_4;
 8002510:	4b22      	ldr	r3, [pc, #136]	; (800259c <HAL_UART_MspInit+0x20c>)
 8002512:	f04f 6200 	mov.w	r2, #134217728	; 0x8000000
 8002516:	605a      	str	r2, [r3, #4]
    hdma_usart2_rx.Init.Direction = DMA_PERIPH_TO_MEMORY;
 8002518:	4b20      	ldr	r3, [pc, #128]	; (800259c <HAL_UART_MspInit+0x20c>)
 800251a:	2200      	movs	r2, #0
 800251c:	609a      	str	r2, [r3, #8]
    hdma_usart2_rx.Init.PeriphInc = DMA_PINC_DISABLE;
 800251e:	4b1f      	ldr	r3, [pc, #124]	; (800259c <HAL_UART_MspInit+0x20c>)
 8002520:	2200      	movs	r2, #0
 8002522:	60da      	str	r2, [r3, #12]
    hdma_usart2_rx.Init.MemInc = DMA_MINC_ENABLE;
 8002524:	4b1d      	ldr	r3, [pc, #116]	; (800259c <HAL_UART_MspInit+0x20c>)
 8002526:	f44f 6280 	mov.w	r2, #1024	; 0x400
 800252a:	611a      	str	r2, [r3, #16]
    hdma_usart2_rx.Init.PeriphDataAlignment = DMA_PDATAALIGN_BYTE;
 800252c:	4b1b      	ldr	r3, [pc, #108]	; (800259c <HAL_UART_MspInit+0x20c>)
 800252e:	2200      	movs	r2, #0
 8002530:	615a      	str	r2, [r3, #20]
    hdma_usart2_rx.Init.MemDataAlignment = DMA_MDATAALIGN_BYTE;
 8002532:	4b1a      	ldr	r3, [pc, #104]	; (800259c <HAL_UART_MspInit+0x20c>)
 8002534:	2200      	movs	r2, #0
 8002536:	619a      	str	r2, [r3, #24]
    hdma_usart2_rx.Init.Mode = DMA_NORMAL;
 8002538:	4b18      	ldr	r3, [pc, #96]	; (800259c <HAL_UART_MspInit+0x20c>)
 800253a:	2200      	movs	r2, #0
 800253c:	61da      	str	r2, [r3, #28]
    hdma_usart2_rx.Init.Priority = DMA_PRIORITY_HIGH;
 800253e:	4b17      	ldr	r3, [pc, #92]	; (800259c <HAL_UART_MspInit+0x20c>)
 8002540:	f44f 3200 	mov.w	r2, #131072	; 0x20000
 8002544:	621a      	str	r2, [r3, #32]
    hdma_usart2_rx.Init.FIFOMode = DMA_FIFOMODE_DISABLE;
 8002546:	4b15      	ldr	r3, [pc, #84]	; (800259c <HAL_UART_MspInit+0x20c>)
 8002548:	2200      	movs	r2, #0
 800254a:	625a      	str	r2, [r3, #36]	; 0x24
    if (HAL_DMA_Init(&hdma_usart2_rx) != HAL_OK)
 800254c:	4813      	ldr	r0, [pc, #76]	; (800259c <HAL_UART_MspInit+0x20c>)
 800254e:	f000 fb53 	bl	8002bf8 <HAL_DMA_Init>
 8002552:	4603      	mov	r3, r0
 8002554:	2b00      	cmp	r3, #0
 8002556:	d001      	beq.n	800255c <HAL_UART_MspInit+0x1cc>
      Error_Handler();
 8002558:	f7ff fe56 	bl	8002208 <Error_Handler>
    __HAL_LINKDMA(huart,hdmarx,hdma_usart2_rx);
 800255c:	687b      	ldr	r3, [r7, #4]
 800255e:	4a0f      	ldr	r2, [pc, #60]	; (800259c <HAL_UART_MspInit+0x20c>)
 8002560:	639a      	str	r2, [r3, #56]	; 0x38
 8002562:	4a0e      	ldr	r2, [pc, #56]	; (800259c <HAL_UART_MspInit+0x20c>)
 8002564:	687b      	ldr	r3, [r7, #4]
 8002566:	6393      	str	r3, [r2, #56]	; 0x38
    HAL_NVIC_SetPriority(USART2_IRQn, 0, 0);
 8002568:	2200      	movs	r2, #0
 800256a:	2100      	movs	r1, #0
 800256c:	2026      	movs	r0, #38	; 0x26
 800256e:	f000 fb0c 	bl	8002b8a <HAL_NVIC_SetPriority>
    HAL_NVIC_EnableIRQ(USART2_IRQn);
 8002572:	2026      	movs	r0, #38	; 0x26
 8002574:	f000 fb25 	bl	8002bc2 <HAL_NVIC_EnableIRQ>
}
 8002578:	bf00      	nop
 800257a:	3730      	adds	r7, #48	; 0x30
 800257c:	46bd      	mov	sp, r7
 800257e:	bd80      	pop	{r7, pc}
 8002580:	40011000 	.word	0x40011000
 8002584:	40023800 	.word	0x40023800
 8002588:	40020000 	.word	0x40020000
 800258c:	200002ac 	.word	0x200002ac
 8002590:	400264b8 	.word	0x400264b8
 8002594:	40004400 	.word	0x40004400
 8002598:	40020c00 	.word	0x40020c00
 800259c:	2000030c 	.word	0x2000030c
 80025a0:	40026088 	.word	0x40026088

080025a4 <HAL_SAI_MspInit>:
extern DMA_HandleTypeDef hdma_sai1_b;

static uint32_t SAI1_client =0;

void HAL_SAI_MspInit(SAI_HandleTypeDef* hsai)
{
 80025a4:	b580      	push	{r7, lr}
 80025a6:	b0a0      	sub	sp, #128	; 0x80
 80025a8:	af00      	add	r7, sp, #0
 80025aa:	6078      	str	r0, [r7, #4]

  GPIO_InitTypeDef GPIO_InitStruct;
  RCC_PeriphCLKInitTypeDef PeriphClkInitStruct = {0};
 80025ac:	f107 0310 	add.w	r3, r7, #16
 80025b0:	225c      	movs	r2, #92	; 0x5c
 80025b2:	2100      	movs	r1, #0
 80025b4:	4618      	mov	r0, r3
 80025b6:	f005 fdc7 	bl	8008148 <memset>
/* SAI1 */
    if(hsai->Instance==SAI1_Block_B)
 80025ba:	687b      	ldr	r3, [r7, #4]
 80025bc:	681b      	ldr	r3, [r3, #0]
 80025be:	4a4c      	ldr	r2, [pc, #304]	; (80026f0 <HAL_SAI_MspInit+0x14c>)
 80025c0:	4293      	cmp	r3, r2
 80025c2:	f040 8090 	bne.w	80026e6 <HAL_SAI_MspInit+0x142>
    {
      /* Peripheral clock enable */
  /** Initializes the peripherals clock
  */
    PeriphClkInitStruct.PeriphClockSelection = RCC_PERIPHCLK_SAI1;
 80025c6:	2304      	movs	r3, #4
 80025c8:	613b      	str	r3, [r7, #16]
    PeriphClkInitStruct.PLLSAI.PLLSAIM = 16;
 80025ca:	2310      	movs	r3, #16
 80025cc:	62bb      	str	r3, [r7, #40]	; 0x28
    PeriphClkInitStruct.PLLSAI.PLLSAIN = 192;
 80025ce:	23c0      	movs	r3, #192	; 0xc0
 80025d0:	62fb      	str	r3, [r7, #44]	; 0x2c
    PeriphClkInitStruct.PLLSAI.PLLSAIQ = 2;
 80025d2:	2302      	movs	r3, #2
 80025d4:	637b      	str	r3, [r7, #52]	; 0x34
    PeriphClkInitStruct.PLLSAI.PLLSAIP = RCC_PLLSAIP_DIV2;
 80025d6:	2302      	movs	r3, #2
 80025d8:	633b      	str	r3, [r7, #48]	; 0x30
    PeriphClkInitStruct.PLLSAIDivQ = 1;
 80025da:	2301      	movs	r3, #1
 80025dc:	63fb      	str	r3, [r7, #60]	; 0x3c
    PeriphClkInitStruct.Sai1ClockSelection = RCC_SAI1CLKSOURCE_PLLSAI;
 80025de:	2300      	movs	r3, #0
 80025e0:	643b      	str	r3, [r7, #64]	; 0x40
    if (HAL_RCCEx_PeriphCLKConfig(&PeriphClkInitStruct) != HAL_OK)
 80025e2:	f107 0310 	add.w	r3, r7, #16
 80025e6:	4618      	mov	r0, r3
 80025e8:	f001 f9ea 	bl	80039c0 <HAL_RCCEx_PeriphCLKConfig>
 80025ec:	4603      	mov	r3, r0
 80025ee:	2b00      	cmp	r3, #0
 80025f0:	d001      	beq.n	80025f6 <HAL_SAI_MspInit+0x52>
    {
      Error_Handler();
 80025f2:	f7ff fe09 	bl	8002208 <Error_Handler>
    }

      if (SAI1_client == 0)
 80025f6:	4b3f      	ldr	r3, [pc, #252]	; (80026f4 <HAL_SAI_MspInit+0x150>)
 80025f8:	681b      	ldr	r3, [r3, #0]
 80025fa:	2b00      	cmp	r3, #0
 80025fc:	d10d      	bne.n	800261a <HAL_SAI_MspInit+0x76>
      {
       __HAL_RCC_SAI1_CLK_ENABLE();
 80025fe:	2300      	movs	r3, #0
 8002600:	60fb      	str	r3, [r7, #12]
 8002602:	4b3d      	ldr	r3, [pc, #244]	; (80026f8 <HAL_SAI_MspInit+0x154>)
 8002604:	6c5b      	ldr	r3, [r3, #68]	; 0x44
 8002606:	4a3c      	ldr	r2, [pc, #240]	; (80026f8 <HAL_SAI_MspInit+0x154>)
 8002608:	f443 0380 	orr.w	r3, r3, #4194304	; 0x400000
 800260c:	6453      	str	r3, [r2, #68]	; 0x44
 800260e:	4b3a      	ldr	r3, [pc, #232]	; (80026f8 <HAL_SAI_MspInit+0x154>)
 8002610:	6c5b      	ldr	r3, [r3, #68]	; 0x44
 8002612:	f403 0380 	and.w	r3, r3, #4194304	; 0x400000
 8002616:	60fb      	str	r3, [r7, #12]
 8002618:	68fb      	ldr	r3, [r7, #12]
      }
    SAI1_client ++;
 800261a:	4b36      	ldr	r3, [pc, #216]	; (80026f4 <HAL_SAI_MspInit+0x150>)
 800261c:	681b      	ldr	r3, [r3, #0]
 800261e:	3301      	adds	r3, #1
 8002620:	4a34      	ldr	r2, [pc, #208]	; (80026f4 <HAL_SAI_MspInit+0x150>)
 8002622:	6013      	str	r3, [r2, #0]
    /**SAI1_B_Block_B GPIO Configuration
    PE3     ------> SAI1_SD_B
    PF8     ------> SAI1_SCK_B
    PF9     ------> SAI1_FS_B
    */
    GPIO_InitStruct.Pin = GPIO_PIN_3;
 8002624:	2308      	movs	r3, #8
 8002626:	66fb      	str	r3, [r7, #108]	; 0x6c
    GPIO_InitStruct.Mode = GPIO_MODE_AF_PP;
 8002628:	2302      	movs	r3, #2
 800262a:	673b      	str	r3, [r7, #112]	; 0x70
    GPIO_InitStruct.Pull = GPIO_NOPULL;
 800262c:	2300      	movs	r3, #0
 800262e:	677b      	str	r3, [r7, #116]	; 0x74
    GPIO_InitStruct.Speed = GPIO_SPEED_FREQ_LOW;
 8002630:	2300      	movs	r3, #0
 8002632:	67bb      	str	r3, [r7, #120]	; 0x78
    GPIO_InitStruct.Alternate = GPIO_AF6_SAI1;
 8002634:	2306      	movs	r3, #6
 8002636:	67fb      	str	r3, [r7, #124]	; 0x7c
    HAL_GPIO_Init(GPIOE, &GPIO_InitStruct);
 8002638:	f107 036c 	add.w	r3, r7, #108	; 0x6c
 800263c:	4619      	mov	r1, r3
 800263e:	482f      	ldr	r0, [pc, #188]	; (80026fc <HAL_SAI_MspInit+0x158>)
 8002640:	f000 fedc 	bl	80033fc <HAL_GPIO_Init>

    GPIO_InitStruct.Pin = GPIO_PIN_8|GPIO_PIN_9;
 8002644:	f44f 7340 	mov.w	r3, #768	; 0x300
 8002648:	66fb      	str	r3, [r7, #108]	; 0x6c
    GPIO_InitStruct.Mode = GPIO_MODE_AF_PP;
 800264a:	2302      	movs	r3, #2
 800264c:	673b      	str	r3, [r7, #112]	; 0x70
    GPIO_InitStruct.Pull = GPIO_NOPULL;
 800264e:	2300      	movs	r3, #0
 8002650:	677b      	str	r3, [r7, #116]	; 0x74
    GPIO_InitStruct.Speed = GPIO_SPEED_FREQ_LOW;
 8002652:	2300      	movs	r3, #0
 8002654:	67bb      	str	r3, [r7, #120]	; 0x78
    GPIO_InitStruct.Alternate = GPIO_AF6_SAI1;
 8002656:	2306      	movs	r3, #6
 8002658:	67fb      	str	r3, [r7, #124]	; 0x7c
    HAL_GPIO_Init(GPIOF, &GPIO_InitStruct);
 800265a:	f107 036c 	add.w	r3, r7, #108	; 0x6c
 800265e:	4619      	mov	r1, r3
 8002660:	4827      	ldr	r0, [pc, #156]	; (8002700 <HAL_SAI_MspInit+0x15c>)
 8002662:	f000 fecb 	bl	80033fc <HAL_GPIO_Init>

      /* Peripheral DMA init*/

    hdma_sai1_b.Instance = DMA2_Stream4;
 8002666:	4b27      	ldr	r3, [pc, #156]	; (8002704 <HAL_SAI_MspInit+0x160>)
 8002668:	4a27      	ldr	r2, [pc, #156]	; (8002708 <HAL_SAI_MspInit+0x164>)
 800266a:	601a      	str	r2, [r3, #0]
    hdma_sai1_b.Init.Channel = DMA_CHANNEL_1;
 800266c:	4b25      	ldr	r3, [pc, #148]	; (8002704 <HAL_SAI_MspInit+0x160>)
 800266e:	f04f 7200 	mov.w	r2, #33554432	; 0x2000000
 8002672:	605a      	str	r2, [r3, #4]
    hdma_sai1_b.Init.Direction = DMA_PERIPH_TO_MEMORY;
 8002674:	4b23      	ldr	r3, [pc, #140]	; (8002704 <HAL_SAI_MspInit+0x160>)
 8002676:	2200      	movs	r2, #0
 8002678:	609a      	str	r2, [r3, #8]
    hdma_sai1_b.Init.PeriphInc = DMA_PINC_DISABLE;
 800267a:	4b22      	ldr	r3, [pc, #136]	; (8002704 <HAL_SAI_MspInit+0x160>)
 800267c:	2200      	movs	r2, #0
 800267e:	60da      	str	r2, [r3, #12]
    hdma_sai1_b.Init.MemInc = DMA_MINC_ENABLE;
 8002680:	4b20      	ldr	r3, [pc, #128]	; (8002704 <HAL_SAI_MspInit+0x160>)
 8002682:	f44f 6280 	mov.w	r2, #1024	; 0x400
 8002686:	611a      	str	r2, [r3, #16]
    hdma_sai1_b.Init.PeriphDataAlignment = DMA_PDATAALIGN_WORD;
 8002688:	4b1e      	ldr	r3, [pc, #120]	; (8002704 <HAL_SAI_MspInit+0x160>)
 800268a:	f44f 5280 	mov.w	r2, #4096	; 0x1000
 800268e:	615a      	str	r2, [r3, #20]
    hdma_sai1_b.Init.MemDataAlignment = DMA_MDATAALIGN_WORD;
 8002690:	4b1c      	ldr	r3, [pc, #112]	; (8002704 <HAL_SAI_MspInit+0x160>)
 8002692:	f44f 4280 	mov.w	r2, #16384	; 0x4000
 8002696:	619a      	str	r2, [r3, #24]
    hdma_sai1_b.Init.Mode = DMA_CIRCULAR;
 8002698:	4b1a      	ldr	r3, [pc, #104]	; (8002704 <HAL_SAI_MspInit+0x160>)
 800269a:	f44f 7280 	mov.w	r2, #256	; 0x100
 800269e:	61da      	str	r2, [r3, #28]
    hdma_sai1_b.Init.Priority = DMA_PRIORITY_LOW;
 80026a0:	4b18      	ldr	r3, [pc, #96]	; (8002704 <HAL_SAI_MspInit+0x160>)
 80026a2:	2200      	movs	r2, #0
 80026a4:	621a      	str	r2, [r3, #32]
    hdma_sai1_b.Init.FIFOMode = DMA_FIFOMODE_ENABLE;
 80026a6:	4b17      	ldr	r3, [pc, #92]	; (8002704 <HAL_SAI_MspInit+0x160>)
 80026a8:	2204      	movs	r2, #4
 80026aa:	625a      	str	r2, [r3, #36]	; 0x24
    hdma_sai1_b.Init.FIFOThreshold = DMA_FIFO_THRESHOLD_FULL;
 80026ac:	4b15      	ldr	r3, [pc, #84]	; (8002704 <HAL_SAI_MspInit+0x160>)
 80026ae:	2203      	movs	r2, #3
 80026b0:	629a      	str	r2, [r3, #40]	; 0x28
    hdma_sai1_b.Init.MemBurst = DMA_MBURST_SINGLE;
 80026b2:	4b14      	ldr	r3, [pc, #80]	; (8002704 <HAL_SAI_MspInit+0x160>)
 80026b4:	2200      	movs	r2, #0
 80026b6:	62da      	str	r2, [r3, #44]	; 0x2c
    hdma_sai1_b.Init.PeriphBurst = DMA_PBURST_SINGLE;
 80026b8:	4b12      	ldr	r3, [pc, #72]	; (8002704 <HAL_SAI_MspInit+0x160>)
 80026ba:	2200      	movs	r2, #0
 80026bc:	631a      	str	r2, [r3, #48]	; 0x30
    if (HAL_DMA_Init(&hdma_sai1_b) != HAL_OK)
 80026be:	4811      	ldr	r0, [pc, #68]	; (8002704 <HAL_SAI_MspInit+0x160>)
 80026c0:	f000 fa9a 	bl	8002bf8 <HAL_DMA_Init>
 80026c4:	4603      	mov	r3, r0
 80026c6:	2b00      	cmp	r3, #0
 80026c8:	d001      	beq.n	80026ce <HAL_SAI_MspInit+0x12a>
    {
      Error_Handler();
 80026ca:	f7ff fd9d 	bl	8002208 <Error_Handler>
    }

    /* Several peripheral DMA handle pointers point to the same DMA handle.
     Be aware that there is only one stream to perform all the requested DMAs. */
    __HAL_LINKDMA(hsai,hdmarx,hdma_sai1_b);
 80026ce:	687b      	ldr	r3, [r7, #4]
 80026d0:	4a0c      	ldr	r2, [pc, #48]	; (8002704 <HAL_SAI_MspInit+0x160>)
 80026d2:	675a      	str	r2, [r3, #116]	; 0x74
 80026d4:	4a0b      	ldr	r2, [pc, #44]	; (8002704 <HAL_SAI_MspInit+0x160>)
 80026d6:	687b      	ldr	r3, [r7, #4]
 80026d8:	6393      	str	r3, [r2, #56]	; 0x38
    __HAL_LINKDMA(hsai,hdmatx,hdma_sai1_b);
 80026da:	687b      	ldr	r3, [r7, #4]
 80026dc:	4a09      	ldr	r2, [pc, #36]	; (8002704 <HAL_SAI_MspInit+0x160>)
 80026de:	671a      	str	r2, [r3, #112]	; 0x70
 80026e0:	4a08      	ldr	r2, [pc, #32]	; (8002704 <HAL_SAI_MspInit+0x160>)
 80026e2:	687b      	ldr	r3, [r7, #4]
 80026e4:	6393      	str	r3, [r2, #56]	; 0x38
    }
}
 80026e6:	bf00      	nop
 80026e8:	3780      	adds	r7, #128	; 0x80
 80026ea:	46bd      	mov	sp, r7
 80026ec:	bd80      	pop	{r7, pc}
 80026ee:	bf00      	nop
 80026f0:	40015824 	.word	0x40015824
 80026f4:	2000f7a8 	.word	0x2000f7a8
 80026f8:	40023800 	.word	0x40023800
 80026fc:	40021000 	.word	0x40021000
 8002700:	40021400 	.word	0x40021400
 8002704:	20000124 	.word	0x20000124
 8002708:	40026470 	.word	0x40026470

0800270c <NMI_Handler>:
/******************************************************************************/
/**
  * @brief This function handles Non maskable interrupt.
  */
void NMI_Handler(void)
{
 800270c:	b480      	push	{r7}
 800270e:	af00      	add	r7, sp, #0
  /* USER CODE BEGIN NonMaskableInt_IRQn 0 */

  /* USER CODE END NonMaskableInt_IRQn 0 */
  /* USER CODE BEGIN NonMaskableInt_IRQn 1 */
  while (1)
 8002710:	e7fe      	b.n	8002710 <NMI_Handler+0x4>

08002712 <HardFault_Handler>:

/**
  * @brief This function handles Hard fault interrupt.
  */
void HardFault_Handler(void)
{
 8002712:	b480      	push	{r7}
 8002714:	af00      	add	r7, sp, #0
  /* USER CODE BEGIN HardFault_IRQn 0 */

  /* USER CODE END HardFault_IRQn 0 */
  while (1)
 8002716:	e7fe      	b.n	8002716 <HardFault_Handler+0x4>

08002718 <MemManage_Handler>:

/**
  * @brief This function handles Memory management fault.
  */
void MemManage_Handler(void)
{
 8002718:	b480      	push	{r7}
 800271a:	af00      	add	r7, sp, #0
  /* USER CODE BEGIN MemoryManagement_IRQn 0 */

  /* USER CODE END MemoryManagement_IRQn 0 */
  while (1)
 800271c:	e7fe      	b.n	800271c <MemManage_Handler+0x4>

0800271e <BusFault_Handler>:

/**
  * @brief This function handles Pre-fetch fault, memory access fault.
  */
void BusFault_Handler(void)
{
 800271e:	b480      	push	{r7}
 8002720:	af00      	add	r7, sp, #0
  /* USER CODE BEGIN BusFault_IRQn 0 */

  /* USER CODE END BusFault_IRQn 0 */
  while (1)
 8002722:	e7fe      	b.n	8002722 <BusFault_Handler+0x4>

08002724 <UsageFault_Handler>:

/**
  * @brief This function handles Undefined instruction or illegal state.
  */
void UsageFault_Handler(void)
{
 8002724:	b480      	push	{r7}
 8002726:	af00      	add	r7, sp, #0
  /* USER CODE BEGIN UsageFault_IRQn 0 */

  /* USER CODE END UsageFault_IRQn 0 */
  while (1)
 8002728:	e7fe      	b.n	8002728 <UsageFault_Handler+0x4>

0800272a <SVC_Handler>:

/**
  * @brief This function handles System service call via SWI instruction.
  */
void SVC_Handler(void)
{
 800272a:	b480      	push	{r7}
 800272c:	af00      	add	r7, sp, #0

  /* USER CODE END SVCall_IRQn 0 */
  /* USER CODE BEGIN SVCall_IRQn 1 */

  /* USER CODE END SVCall_IRQn 1 */
}
 800272e:	bf00      	nop
 8002730:	46bd      	mov	sp, r7
 8002732:	f85d 7b04 	ldr.w	r7, [sp], #4
 8002736:	4770      	bx	lr

08002738 <DebugMon_Handler>:

/**
  * @brief This function handles Debug monitor.
  */
void DebugMon_Handler(void)
{
 8002738:	b480      	push	{r7}
 800273a:	af00      	add	r7, sp, #0

  /* USER CODE END DebugMonitor_IRQn 0 */
  /* USER CODE BEGIN DebugMonitor_IRQn 1 */

  /* USER CODE END DebugMonitor_IRQn 1 */
}
 800273c:	bf00      	nop
 800273e:	46bd      	mov	sp, r7
 8002740:	f85d 7b04 	ldr.w	r7, [sp], #4
 8002744:	4770      	bx	lr

08002746 <PendSV_Handler>:

/**
  * @brief This function handles Pendable request for system service.
  */
void PendSV_Handler(void)
{
 8002746:	b480      	push	{r7}
 8002748:	af00      	add	r7, sp, #0

  /* USER CODE END PendSV_IRQn 0 */
  /* USER CODE BEGIN PendSV_IRQn 1 */

  /* USER CODE END PendSV_IRQn 1 */
}
 800274a:	bf00      	nop
 800274c:	46bd      	mov	sp, r7
 800274e:	f85d 7b04 	ldr.w	r7, [sp], #4
 8002752:	4770      	bx	lr

08002754 <SysTick_Handler>:

/**
  * @brief This function handles System tick timer.
  */
void SysTick_Handler(void)
{
 8002754:	b580      	push	{r7, lr}
 8002756:	af00      	add	r7, sp, #0
  /* USER CODE BEGIN SysTick_IRQn 0 */

  /* USER CODE END SysTick_IRQn 0 */
  HAL_IncTick();
 8002758:	f000 f8f8 	bl	800294c <HAL_IncTick>
  /* USER CODE BEGIN SysTick_IRQn 1 */

  /* USER CODE END SysTick_IRQn 1 */
}
 800275c:	bf00      	nop
 800275e:	bd80      	pop	{r7, pc}

08002760 <DMA1_Stream5_IRQHandler>:

/**
  * @brief This function handles DMA1 stream5 global interrupt.
  */
void DMA1_Stream5_IRQHandler(void)
{
 8002760:	b580      	push	{r7, lr}
 8002762:	af00      	add	r7, sp, #0
  /* USER CODE BEGIN DMA1_Stream5_IRQn 0 */

  /* USER CODE END DMA1_Stream5_IRQn 0 */
  HAL_DMA_IRQHandler(&hdma_usart2_rx);
 8002764:	4802      	ldr	r0, [pc, #8]	; (8002770 <DMA1_Stream5_IRQHandler+0x10>)
 8002766:	f000 fbdf 	bl	8002f28 <HAL_DMA_IRQHandler>
  /* USER CODE BEGIN DMA1_Stream5_IRQn 1 */

  /* USER CODE END DMA1_Stream5_IRQn 1 */
}
 800276a:	bf00      	nop
 800276c:	bd80      	pop	{r7, pc}
 800276e:	bf00      	nop
 8002770:	2000030c 	.word	0x2000030c

08002774 <TIM2_IRQHandler>:

/**
  * @brief This function handles TIM2 global interrupt.
  */
void TIM2_IRQHandler(void)
{
 8002774:	b580      	push	{r7, lr}
 8002776:	af00      	add	r7, sp, #0
  /* USER CODE BEGIN TIM2_IRQn 0 */

  /* USER CODE END TIM2_IRQn 0 */
  HAL_TIM_IRQHandler(&htim2);
 8002778:	4802      	ldr	r0, [pc, #8]	; (8002784 <TIM2_IRQHandler+0x10>)
 800277a:	f003 fe63 	bl	8006444 <HAL_TIM_IRQHandler>
  /* USER CODE BEGIN TIM2_IRQn 1 */

  /* USER CODE END TIM2_IRQn 1 */
}
 800277e:	bf00      	nop
 8002780:	bd80      	pop	{r7, pc}
 8002782:	bf00      	nop
 8002784:	200001dc 	.word	0x200001dc

08002788 <USART2_IRQHandler>:

/**
  * @brief This function handles USART2 global interrupt.
  */
void USART2_IRQHandler(void)
{
 8002788:	b580      	push	{r7, lr}
 800278a:	af00      	add	r7, sp, #0
  /* USER CODE BEGIN USART2_IRQn 0 */

  /* USER CODE END USART2_IRQn 0 */
  HAL_UART_IRQHandler(&huart2);
 800278c:	4802      	ldr	r0, [pc, #8]	; (8002798 <USART2_IRQHandler+0x10>)
 800278e:	f004 fbb5 	bl	8006efc <HAL_UART_IRQHandler>
  /* USER CODE BEGIN USART2_IRQn 1 */

  /* USER CODE END USART2_IRQn 1 */
}
 8002792:	bf00      	nop
 8002794:	bd80      	pop	{r7, pc}
 8002796:	bf00      	nop
 8002798:	20000268 	.word	0x20000268

0800279c <DMA2_Stream4_IRQHandler>:

/**
  * @brief This function handles DMA2 stream4 global interrupt.
  */
void DMA2_Stream4_IRQHandler(void)
{
 800279c:	b580      	push	{r7, lr}
 800279e:	af00      	add	r7, sp, #0
  /* USER CODE BEGIN DMA2_Stream4_IRQn 0 */

  /* USER CODE END DMA2_Stream4_IRQn 0 */
  HAL_DMA_IRQHandler(&hdma_sai1_b);
 80027a0:	4802      	ldr	r0, [pc, #8]	; (80027ac <DMA2_Stream4_IRQHandler+0x10>)
 80027a2:	f000 fbc1 	bl	8002f28 <HAL_DMA_IRQHandler>
  /* USER CODE BEGIN DMA2_Stream4_IRQn 1 */

  /* USER CODE END DMA2_Stream4_IRQn 1 */
}
 80027a6:	bf00      	nop
 80027a8:	bd80      	pop	{r7, pc}
 80027aa:	bf00      	nop
 80027ac:	20000124 	.word	0x20000124

080027b0 <DMA2_Stream7_IRQHandler>:

/**
  * @brief This function handles DMA2 stream7 global interrupt.
  */
void DMA2_Stream7_IRQHandler(void)
{
 80027b0:	b580      	push	{r7, lr}
 80027b2:	af00      	add	r7, sp, #0
  /* USER CODE BEGIN DMA2_Stream7_IRQn 0 */

  /* USER CODE END DMA2_Stream7_IRQn 0 */
  HAL_DMA_IRQHandler(&hdma_usart1_tx);
 80027b4:	4802      	ldr	r0, [pc, #8]	; (80027c0 <DMA2_Stream7_IRQHandler+0x10>)
 80027b6:	f000 fbb7 	bl	8002f28 <HAL_DMA_IRQHandler>
  /* USER CODE BEGIN DMA2_Stream7_IRQn 1 */

  /* USER CODE END DMA2_Stream7_IRQn 1 */
}
 80027ba:	bf00      	nop
 80027bc:	bd80      	pop	{r7, pc}
 80027be:	bf00      	nop
 80027c0:	200002ac 	.word	0x200002ac

080027c4 <_sbrk>:
 *
 * @param incr Memory size
 * @return Pointer to allocated memory
 */
void *_sbrk(ptrdiff_t incr)
{
 80027c4:	b580      	push	{r7, lr}
 80027c6:	b086      	sub	sp, #24
 80027c8:	af00      	add	r7, sp, #0
 80027ca:	6078      	str	r0, [r7, #4]
  extern uint8_t _end; /* Symbol defined in the linker script */
  extern uint8_t _estack; /* Symbol defined in the linker script */
  extern uint32_t _Min_Stack_Size; /* Symbol defined in the linker script */
  const uint32_t stack_limit = (uint32_t)&_estack - (uint32_t)&_Min_Stack_Size;
 80027cc:	4a14      	ldr	r2, [pc, #80]	; (8002820 <_sbrk+0x5c>)
 80027ce:	4b15      	ldr	r3, [pc, #84]	; (8002824 <_sbrk+0x60>)
 80027d0:	1ad3      	subs	r3, r2, r3
 80027d2:	617b      	str	r3, [r7, #20]
  const uint8_t *max_heap = (uint8_t *)stack_limit;
 80027d4:	697b      	ldr	r3, [r7, #20]
 80027d6:	613b      	str	r3, [r7, #16]
  uint8_t *prev_heap_end;

  /* Initialize heap end at first call */
  if (NULL == __sbrk_heap_end)
 80027d8:	4b13      	ldr	r3, [pc, #76]	; (8002828 <_sbrk+0x64>)
 80027da:	681b      	ldr	r3, [r3, #0]
 80027dc:	2b00      	cmp	r3, #0
 80027de:	d102      	bne.n	80027e6 <_sbrk+0x22>
  {
    __sbrk_heap_end = &_end;
 80027e0:	4b11      	ldr	r3, [pc, #68]	; (8002828 <_sbrk+0x64>)
 80027e2:	4a12      	ldr	r2, [pc, #72]	; (800282c <_sbrk+0x68>)
 80027e4:	601a      	str	r2, [r3, #0]
  }

  /* Protect heap from growing into the reserved MSP stack */
  if (__sbrk_heap_end + incr > max_heap)
 80027e6:	4b10      	ldr	r3, [pc, #64]	; (8002828 <_sbrk+0x64>)
 80027e8:	681a      	ldr	r2, [r3, #0]
 80027ea:	687b      	ldr	r3, [r7, #4]
 80027ec:	4413      	add	r3, r2
 80027ee:	693a      	ldr	r2, [r7, #16]
 80027f0:	429a      	cmp	r2, r3
 80027f2:	d207      	bcs.n	8002804 <_sbrk+0x40>
  {
    errno = ENOMEM;
 80027f4:	f005 fc70 	bl	80080d8 <__errno>
 80027f8:	4603      	mov	r3, r0
 80027fa:	220c      	movs	r2, #12
 80027fc:	601a      	str	r2, [r3, #0]
    return (void *)-1;
 80027fe:	f04f 33ff 	mov.w	r3, #4294967295	; 0xffffffff
 8002802:	e009      	b.n	8002818 <_sbrk+0x54>
  }

  prev_heap_end = __sbrk_heap_end;
 8002804:	4b08      	ldr	r3, [pc, #32]	; (8002828 <_sbrk+0x64>)
 8002806:	681b      	ldr	r3, [r3, #0]
 8002808:	60fb      	str	r3, [r7, #12]
  __sbrk_heap_end += incr;
 800280a:	4b07      	ldr	r3, [pc, #28]	; (8002828 <_sbrk+0x64>)
 800280c:	681a      	ldr	r2, [r3, #0]
 800280e:	687b      	ldr	r3, [r7, #4]
 8002810:	4413      	add	r3, r2
 8002812:	4a05      	ldr	r2, [pc, #20]	; (8002828 <_sbrk+0x64>)
 8002814:	6013      	str	r3, [r2, #0]

  return (void *)prev_heap_end;
 8002816:	68fb      	ldr	r3, [r7, #12]
}
 8002818:	4618      	mov	r0, r3
 800281a:	3718      	adds	r7, #24
 800281c:	46bd      	mov	sp, r7
 800281e:	bd80      	pop	{r7, pc}
 8002820:	20020000 	.word	0x20020000
 8002824:	00000400 	.word	0x00000400
 8002828:	2000f7ac 	.word	0x2000f7ac
 800282c:	2000f7c8 	.word	0x2000f7c8

08002830 <SystemInit>:
  *         configuration.
  * @param  None
  * @retval None
  */
void SystemInit(void)
{
 8002830:	b480      	push	{r7}
 8002832:	af00      	add	r7, sp, #0
  /* FPU settings ------------------------------------------------------------*/
  #if (__FPU_PRESENT == 1) && (__FPU_USED == 1)
    SCB->CPACR |= ((3UL << 10*2)|(3UL << 11*2));  /* set CP10 and CP11 Full Access */
 8002834:	4b06      	ldr	r3, [pc, #24]	; (8002850 <SystemInit+0x20>)
 8002836:	f8d3 3088 	ldr.w	r3, [r3, #136]	; 0x88
 800283a:	4a05      	ldr	r2, [pc, #20]	; (8002850 <SystemInit+0x20>)
 800283c:	f443 0370 	orr.w	r3, r3, #15728640	; 0xf00000
 8002840:	f8c2 3088 	str.w	r3, [r2, #136]	; 0x88

  /* Configure the Vector Table location -------------------------------------*/
#if defined(USER_VECT_TAB_ADDRESS)
  SCB->VTOR = VECT_TAB_BASE_ADDRESS | VECT_TAB_OFFSET; /* Vector Table Relocation in Internal SRAM */
#endif /* USER_VECT_TAB_ADDRESS */
}
 8002844:	bf00      	nop
 8002846:	46bd      	mov	sp, r7
 8002848:	f85d 7b04 	ldr.w	r7, [sp], #4
 800284c:	4770      	bx	lr
 800284e:	bf00      	nop
 8002850:	e000ed00 	.word	0xe000ed00

08002854 <Reset_Handler>:

    .section  .text.Reset_Handler
  .weak  Reset_Handler
  .type  Reset_Handler, %function
Reset_Handler:  
  ldr   sp, =_estack      /* set stack pointer */
 8002854:	f8df d034 	ldr.w	sp, [pc, #52]	; 800288c <LoopFillZerobss+0x12>

/* Copy the data segment initializers from flash to SRAM */  
  ldr r0, =_sdata
 8002858:	480d      	ldr	r0, [pc, #52]	; (8002890 <LoopFillZerobss+0x16>)
  ldr r1, =_edata
 800285a:	490e      	ldr	r1, [pc, #56]	; (8002894 <LoopFillZerobss+0x1a>)
  ldr r2, =_sidata
 800285c:	4a0e      	ldr	r2, [pc, #56]	; (8002898 <LoopFillZerobss+0x1e>)
  movs r3, #0
 800285e:	2300      	movs	r3, #0
  b LoopCopyDataInit
 8002860:	e002      	b.n	8002868 <LoopCopyDataInit>

08002862 <CopyDataInit>:

CopyDataInit:
  ldr r4, [r2, r3]
 8002862:	58d4      	ldr	r4, [r2, r3]
  str r4, [r0, r3]
 8002864:	50c4      	str	r4, [r0, r3]
  adds r3, r3, #4
 8002866:	3304      	adds	r3, #4

08002868 <LoopCopyDataInit>:

LoopCopyDataInit:
  adds r4, r0, r3
 8002868:	18c4      	adds	r4, r0, r3
  cmp r4, r1
 800286a:	428c      	cmp	r4, r1
  bcc CopyDataInit
 800286c:	d3f9      	bcc.n	8002862 <CopyDataInit>
  
/* Zero fill the bss segment. */
  ldr r2, =_sbss
 800286e:	4a0b      	ldr	r2, [pc, #44]	; (800289c <LoopFillZerobss+0x22>)
  ldr r4, =_ebss
 8002870:	4c0b      	ldr	r4, [pc, #44]	; (80028a0 <LoopFillZerobss+0x26>)
  movs r3, #0
 8002872:	2300      	movs	r3, #0
  b LoopFillZerobss
 8002874:	e001      	b.n	800287a <LoopFillZerobss>

08002876 <FillZerobss>:

FillZerobss:
  str  r3, [r2]
 8002876:	6013      	str	r3, [r2, #0]
  adds r2, r2, #4
 8002878:	3204      	adds	r2, #4

0800287a <LoopFillZerobss>:

LoopFillZerobss:
  cmp r2, r4
 800287a:	42a2      	cmp	r2, r4
  bcc FillZerobss
 800287c:	d3fb      	bcc.n	8002876 <FillZerobss>

/* Call the clock system intitialization function.*/
  bl  SystemInit   
 800287e:	f7ff ffd7 	bl	8002830 <SystemInit>
/* Call static constructors */
    bl __libc_init_array
 8002882:	f005 fc2f 	bl	80080e4 <__libc_init_array>
/* Call the application's entry point.*/
  bl  main
 8002886:	f7fe feeb 	bl	8001660 <main>
  bx  lr    
 800288a:	4770      	bx	lr
  ldr   sp, =_estack      /* set stack pointer */
 800288c:	20020000 	.word	0x20020000
  ldr r0, =_sdata
 8002890:	20000000 	.word	0x20000000
  ldr r1, =_edata
 8002894:	2000007c 	.word	0x2000007c
  ldr r2, =_sidata
 8002898:	08008d10 	.word	0x08008d10
  ldr r2, =_sbss
 800289c:	20000080 	.word	0x20000080
  ldr r4, =_ebss
 80028a0:	2000f7c4 	.word	0x2000f7c4

080028a4 <ADC_IRQHandler>:
 * @retval None       
*/
    .section  .text.Default_Handler,"ax",%progbits
Default_Handler:
Infinite_Loop:
  b  Infinite_Loop
 80028a4:	e7fe      	b.n	80028a4 <ADC_IRQHandler>
	...

080028a8 <HAL_Init>:
  *         need to ensure that the SysTick time base is always set to 1 millisecond
  *         to have correct HAL operation.
  * @retval HAL status
  */
HAL_StatusTypeDef HAL_Init(void)
{
 80028a8:	b580      	push	{r7, lr}
 80028aa:	af00      	add	r7, sp, #0
  /* Configure Flash prefetch, Instruction cache, Data cache */ 
#if (INSTRUCTION_CACHE_ENABLE != 0U)
  __HAL_FLASH_INSTRUCTION_CACHE_ENABLE();
 80028ac:	4b0e      	ldr	r3, [pc, #56]	; (80028e8 <HAL_Init+0x40>)
 80028ae:	681b      	ldr	r3, [r3, #0]
 80028b0:	4a0d      	ldr	r2, [pc, #52]	; (80028e8 <HAL_Init+0x40>)
 80028b2:	f443 7300 	orr.w	r3, r3, #512	; 0x200
 80028b6:	6013      	str	r3, [r2, #0]
#endif /* INSTRUCTION_CACHE_ENABLE */

#if (DATA_CACHE_ENABLE != 0U)
  __HAL_FLASH_DATA_CACHE_ENABLE();
 80028b8:	4b0b      	ldr	r3, [pc, #44]	; (80028e8 <HAL_Init+0x40>)
 80028ba:	681b      	ldr	r3, [r3, #0]
 80028bc:	4a0a      	ldr	r2, [pc, #40]	; (80028e8 <HAL_Init+0x40>)
 80028be:	f443 6380 	orr.w	r3, r3, #1024	; 0x400
 80028c2:	6013      	str	r3, [r2, #0]
#endif /* DATA_CACHE_ENABLE */

#if (PREFETCH_ENABLE != 0U)
  __HAL_FLASH_PREFETCH_BUFFER_ENABLE();
 80028c4:	4b08      	ldr	r3, [pc, #32]	; (80028e8 <HAL_Init+0x40>)
 80028c6:	681b      	ldr	r3, [r3, #0]
 80028c8:	4a07      	ldr	r2, [pc, #28]	; (80028e8 <HAL_Init+0x40>)
 80028ca:	f443 7380 	orr.w	r3, r3, #256	; 0x100
 80028ce:	6013      	str	r3, [r2, #0]
#endif /* PREFETCH_ENABLE */

  /* Set Interrupt Group Priority */
  HAL_NVIC_SetPriorityGrouping(NVIC_PRIORITYGROUP_4);
 80028d0:	2003      	movs	r0, #3
 80028d2:	f000 f94f 	bl	8002b74 <HAL_NVIC_SetPriorityGrouping>

  /* Use systick as time base source and configure 1ms tick (default clock after Reset is HSI) */
  HAL_InitTick(TICK_INT_PRIORITY);
 80028d6:	200f      	movs	r0, #15
 80028d8:	f000 f808 	bl	80028ec <HAL_InitTick>

  /* Init the low level hardware */
  HAL_MspInit();
 80028dc:	f7ff fc9a 	bl	8002214 <HAL_MspInit>

  /* Return function status */
  return HAL_OK;
 80028e0:	2300      	movs	r3, #0
}
 80028e2:	4618      	mov	r0, r3
 80028e4:	bd80      	pop	{r7, pc}
 80028e6:	bf00      	nop
 80028e8:	40023c00 	.word	0x40023c00

080028ec <HAL_InitTick>:
  *       implementation  in user file.
  * @param TickPriority Tick interrupt priority.
  * @retval HAL status
  */
__weak HAL_StatusTypeDef HAL_InitTick(uint32_t TickPriority)
{
 80028ec:	b580      	push	{r7, lr}
 80028ee:	b082      	sub	sp, #8
 80028f0:	af00      	add	r7, sp, #0
 80028f2:	6078      	str	r0, [r7, #4]
  /* Configure the SysTick to have interrupt in 1ms time basis*/
  if (HAL_SYSTICK_Config(SystemCoreClock / (1000U / uwTickFreq)) > 0U)
 80028f4:	4b12      	ldr	r3, [pc, #72]	; (8002940 <HAL_InitTick+0x54>)
 80028f6:	681a      	ldr	r2, [r3, #0]
 80028f8:	4b12      	ldr	r3, [pc, #72]	; (8002944 <HAL_InitTick+0x58>)
 80028fa:	781b      	ldrb	r3, [r3, #0]
 80028fc:	4619      	mov	r1, r3
 80028fe:	f44f 737a 	mov.w	r3, #1000	; 0x3e8
 8002902:	fbb3 f3f1 	udiv	r3, r3, r1
 8002906:	fbb2 f3f3 	udiv	r3, r2, r3
 800290a:	4618      	mov	r0, r3
 800290c:	f000 f967 	bl	8002bde <HAL_SYSTICK_Config>
 8002910:	4603      	mov	r3, r0
 8002912:	2b00      	cmp	r3, #0
 8002914:	d001      	beq.n	800291a <HAL_InitTick+0x2e>
  {
    return HAL_ERROR;
 8002916:	2301      	movs	r3, #1
 8002918:	e00e      	b.n	8002938 <HAL_InitTick+0x4c>
  }

  /* Configure the SysTick IRQ priority */
  if (TickPriority < (1UL << __NVIC_PRIO_BITS))
 800291a:	687b      	ldr	r3, [r7, #4]
 800291c:	2b0f      	cmp	r3, #15
 800291e:	d80a      	bhi.n	8002936 <HAL_InitTick+0x4a>
  {
    HAL_NVIC_SetPriority(SysTick_IRQn, TickPriority, 0U);
 8002920:	2200      	movs	r2, #0
 8002922:	6879      	ldr	r1, [r7, #4]
 8002924:	f04f 30ff 	mov.w	r0, #4294967295	; 0xffffffff
 8002928:	f000 f92f 	bl	8002b8a <HAL_NVIC_SetPriority>
    uwTickPrio = TickPriority;
 800292c:	4a06      	ldr	r2, [pc, #24]	; (8002948 <HAL_InitTick+0x5c>)
 800292e:	687b      	ldr	r3, [r7, #4]
 8002930:	6013      	str	r3, [r2, #0]
  {
    return HAL_ERROR;
  }

  /* Return function status */
  return HAL_OK;
 8002932:	2300      	movs	r3, #0
 8002934:	e000      	b.n	8002938 <HAL_InitTick+0x4c>
    return HAL_ERROR;
 8002936:	2301      	movs	r3, #1
}
 8002938:	4618      	mov	r0, r3
 800293a:	3708      	adds	r7, #8
 800293c:	46bd      	mov	sp, r7
 800293e:	bd80      	pop	{r7, pc}
 8002940:	2000000c 	.word	0x2000000c
 8002944:	20000014 	.word	0x20000014
 8002948:	20000010 	.word	0x20000010

0800294c <HAL_IncTick>:
 * @note This function is declared as __weak to be overwritten in case of other 
  *      implementations in user file.
  * @retval None
  */
__weak void HAL_IncTick(void)
{
 800294c:	b480      	push	{r7}
 800294e:	af00      	add	r7, sp, #0
  uwTick += uwTickFreq;
 8002950:	4b06      	ldr	r3, [pc, #24]	; (800296c <HAL_IncTick+0x20>)
 8002952:	781b      	ldrb	r3, [r3, #0]
 8002954:	461a      	mov	r2, r3
 8002956:	4b06      	ldr	r3, [pc, #24]	; (8002970 <HAL_IncTick+0x24>)
 8002958:	681b      	ldr	r3, [r3, #0]
 800295a:	4413      	add	r3, r2
 800295c:	4a04      	ldr	r2, [pc, #16]	; (8002970 <HAL_IncTick+0x24>)
 800295e:	6013      	str	r3, [r2, #0]
}
 8002960:	bf00      	nop
 8002962:	46bd      	mov	sp, r7
 8002964:	f85d 7b04 	ldr.w	r7, [sp], #4
 8002968:	4770      	bx	lr
 800296a:	bf00      	nop
 800296c:	20000014 	.word	0x20000014
 8002970:	2000f7b0 	.word	0x2000f7b0

08002974 <HAL_GetTick>:
  * @note This function is declared as __weak to be overwritten in case of other 
  *       implementations in user file.
  * @retval tick value
  */
__weak uint32_t HAL_GetTick(void)
{
 8002974:	b480      	push	{r7}
 8002976:	af00      	add	r7, sp, #0
  return uwTick;
 8002978:	4b03      	ldr	r3, [pc, #12]	; (8002988 <HAL_GetTick+0x14>)
 800297a:	681b      	ldr	r3, [r3, #0]
}
 800297c:	4618      	mov	r0, r3
 800297e:	46bd      	mov	sp, r7
 8002980:	f85d 7b04 	ldr.w	r7, [sp], #4
 8002984:	4770      	bx	lr
 8002986:	bf00      	nop
 8002988:	2000f7b0 	.word	0x2000f7b0

0800298c <HAL_Delay>:
  *       implementations in user file.
  * @param Delay specifies the delay time length, in milliseconds.
  * @retval None
  */
__weak void HAL_Delay(uint32_t Delay)
{
 800298c:	b580      	push	{r7, lr}
 800298e:	b084      	sub	sp, #16
 8002990:	af00      	add	r7, sp, #0
 8002992:	6078      	str	r0, [r7, #4]
  uint32_t tickstart = HAL_GetTick();
 8002994:	f7ff ffee 	bl	8002974 <HAL_GetTick>
 8002998:	60b8      	str	r0, [r7, #8]
  uint32_t wait = Delay;
 800299a:	687b      	ldr	r3, [r7, #4]
 800299c:	60fb      	str	r3, [r7, #12]

  /* Add a freq to guarantee minimum wait */
  if (wait < HAL_MAX_DELAY)
 800299e:	68fb      	ldr	r3, [r7, #12]
 80029a0:	f1b3 3fff 	cmp.w	r3, #4294967295	; 0xffffffff
 80029a4:	d005      	beq.n	80029b2 <HAL_Delay+0x26>
  {
    wait += (uint32_t)(uwTickFreq);
 80029a6:	4b0a      	ldr	r3, [pc, #40]	; (80029d0 <HAL_Delay+0x44>)
 80029a8:	781b      	ldrb	r3, [r3, #0]
 80029aa:	461a      	mov	r2, r3
 80029ac:	68fb      	ldr	r3, [r7, #12]
 80029ae:	4413      	add	r3, r2
 80029b0:	60fb      	str	r3, [r7, #12]
  }

  while((HAL_GetTick() - tickstart) < wait)
 80029b2:	bf00      	nop
 80029b4:	f7ff ffde 	bl	8002974 <HAL_GetTick>
 80029b8:	4602      	mov	r2, r0
 80029ba:	68bb      	ldr	r3, [r7, #8]
 80029bc:	1ad3      	subs	r3, r2, r3
 80029be:	68fa      	ldr	r2, [r7, #12]
 80029c0:	429a      	cmp	r2, r3
 80029c2:	d8f7      	bhi.n	80029b4 <HAL_Delay+0x28>
  {
  }
}
 80029c4:	bf00      	nop
 80029c6:	bf00      	nop
 80029c8:	3710      	adds	r7, #16
 80029ca:	46bd      	mov	sp, r7
 80029cc:	bd80      	pop	{r7, pc}
 80029ce:	bf00      	nop
 80029d0:	20000014 	.word	0x20000014

080029d4 <__NVIC_SetPriorityGrouping>:
           In case of a conflict between priority grouping and available
           priority bits (__NVIC_PRIO_BITS), the smallest possible priority group is set.
  \param [in]      PriorityGroup  Priority grouping field.
 */
__STATIC_INLINE void __NVIC_SetPriorityGrouping(uint32_t PriorityGroup)
{
 80029d4:	b480      	push	{r7}
 80029d6:	b085      	sub	sp, #20
 80029d8:	af00      	add	r7, sp, #0
 80029da:	6078      	str	r0, [r7, #4]
  uint32_t reg_value;
  uint32_t PriorityGroupTmp = (PriorityGroup & (uint32_t)0x07UL);             /* only values 0..7 are used          */
 80029dc:	687b      	ldr	r3, [r7, #4]
 80029de:	f003 0307 	and.w	r3, r3, #7
 80029e2:	60fb      	str	r3, [r7, #12]

  reg_value  =  SCB->AIRCR;                                                   /* read old register configuration    */
 80029e4:	4b0c      	ldr	r3, [pc, #48]	; (8002a18 <__NVIC_SetPriorityGrouping+0x44>)
 80029e6:	68db      	ldr	r3, [r3, #12]
 80029e8:	60bb      	str	r3, [r7, #8]
  reg_value &= ~((uint32_t)(SCB_AIRCR_VECTKEY_Msk | SCB_AIRCR_PRIGROUP_Msk)); /* clear bits to change               */
 80029ea:	68ba      	ldr	r2, [r7, #8]
 80029ec:	f64f 03ff 	movw	r3, #63743	; 0xf8ff
 80029f0:	4013      	ands	r3, r2
 80029f2:	60bb      	str	r3, [r7, #8]
  reg_value  =  (reg_value                                   |
                ((uint32_t)0x5FAUL << SCB_AIRCR_VECTKEY_Pos) |
                (PriorityGroupTmp << SCB_AIRCR_PRIGROUP_Pos)  );              /* Insert write key and priority group */
 80029f4:	68fb      	ldr	r3, [r7, #12]
 80029f6:	021a      	lsls	r2, r3, #8
                ((uint32_t)0x5FAUL << SCB_AIRCR_VECTKEY_Pos) |
 80029f8:	68bb      	ldr	r3, [r7, #8]
 80029fa:	4313      	orrs	r3, r2
  reg_value  =  (reg_value                                   |
 80029fc:	f043 63bf 	orr.w	r3, r3, #100139008	; 0x5f80000
 8002a00:	f443 3300 	orr.w	r3, r3, #131072	; 0x20000
 8002a04:	60bb      	str	r3, [r7, #8]
  SCB->AIRCR =  reg_value;
 8002a06:	4a04      	ldr	r2, [pc, #16]	; (8002a18 <__NVIC_SetPriorityGrouping+0x44>)
 8002a08:	68bb      	ldr	r3, [r7, #8]
 8002a0a:	60d3      	str	r3, [r2, #12]
}
 8002a0c:	bf00      	nop
 8002a0e:	3714      	adds	r7, #20
 8002a10:	46bd      	mov	sp, r7
 8002a12:	f85d 7b04 	ldr.w	r7, [sp], #4
 8002a16:	4770      	bx	lr
 8002a18:	e000ed00 	.word	0xe000ed00

08002a1c <__NVIC_GetPriorityGrouping>:
  \brief   Get Priority Grouping
  \details Reads the priority grouping field from the NVIC Interrupt Controller.
  \return                Priority grouping field (SCB->AIRCR [10:8] PRIGROUP field).
 */
__STATIC_INLINE uint32_t __NVIC_GetPriorityGrouping(void)
{
 8002a1c:	b480      	push	{r7}
 8002a1e:	af00      	add	r7, sp, #0
  return ((uint32_t)((SCB->AIRCR & SCB_AIRCR_PRIGROUP_Msk) >> SCB_AIRCR_PRIGROUP_Pos));
 8002a20:	4b04      	ldr	r3, [pc, #16]	; (8002a34 <__NVIC_GetPriorityGrouping+0x18>)
 8002a22:	68db      	ldr	r3, [r3, #12]
 8002a24:	0a1b      	lsrs	r3, r3, #8
 8002a26:	f003 0307 	and.w	r3, r3, #7
}
 8002a2a:	4618      	mov	r0, r3
 8002a2c:	46bd      	mov	sp, r7
 8002a2e:	f85d 7b04 	ldr.w	r7, [sp], #4
 8002a32:	4770      	bx	lr
 8002a34:	e000ed00 	.word	0xe000ed00

08002a38 <__NVIC_EnableIRQ>:
  \details Enables a device specific interrupt in the NVIC interrupt controller.
  \param [in]      IRQn  Device specific interrupt number.
  \note    IRQn must not be negative.
 */
__STATIC_INLINE void __NVIC_EnableIRQ(IRQn_Type IRQn)
{
 8002a38:	b480      	push	{r7}
 8002a3a:	b083      	sub	sp, #12
 8002a3c:	af00      	add	r7, sp, #0
 8002a3e:	4603      	mov	r3, r0
 8002a40:	71fb      	strb	r3, [r7, #7]
  if ((int32_t)(IRQn) >= 0)
 8002a42:	f997 3007 	ldrsb.w	r3, [r7, #7]
 8002a46:	2b00      	cmp	r3, #0
 8002a48:	db0b      	blt.n	8002a62 <__NVIC_EnableIRQ+0x2a>
  {
    NVIC->ISER[(((uint32_t)IRQn) >> 5UL)] = (uint32_t)(1UL << (((uint32_t)IRQn) & 0x1FUL));
 8002a4a:	79fb      	ldrb	r3, [r7, #7]
 8002a4c:	f003 021f 	and.w	r2, r3, #31
 8002a50:	4907      	ldr	r1, [pc, #28]	; (8002a70 <__NVIC_EnableIRQ+0x38>)
 8002a52:	f997 3007 	ldrsb.w	r3, [r7, #7]
 8002a56:	095b      	lsrs	r3, r3, #5
 8002a58:	2001      	movs	r0, #1
 8002a5a:	fa00 f202 	lsl.w	r2, r0, r2
 8002a5e:	f841 2023 	str.w	r2, [r1, r3, lsl #2]
  }
}
 8002a62:	bf00      	nop
 8002a64:	370c      	adds	r7, #12
 8002a66:	46bd      	mov	sp, r7
 8002a68:	f85d 7b04 	ldr.w	r7, [sp], #4
 8002a6c:	4770      	bx	lr
 8002a6e:	bf00      	nop
 8002a70:	e000e100 	.word	0xe000e100

08002a74 <__NVIC_SetPriority>:
  \param [in]      IRQn  Interrupt number.
  \param [in]  priority  Priority to set.
  \note    The priority cannot be set for every processor exception.
 */
__STATIC_INLINE void __NVIC_SetPriority(IRQn_Type IRQn, uint32_t priority)
{
 8002a74:	b480      	push	{r7}
 8002a76:	b083      	sub	sp, #12
 8002a78:	af00      	add	r7, sp, #0
 8002a7a:	4603      	mov	r3, r0
 8002a7c:	6039      	str	r1, [r7, #0]
 8002a7e:	71fb      	strb	r3, [r7, #7]
  if ((int32_t)(IRQn) >= 0)
 8002a80:	f997 3007 	ldrsb.w	r3, [r7, #7]
 8002a84:	2b00      	cmp	r3, #0
 8002a86:	db0a      	blt.n	8002a9e <__NVIC_SetPriority+0x2a>
  {
    NVIC->IP[((uint32_t)IRQn)]               = (uint8_t)((priority << (8U - __NVIC_PRIO_BITS)) & (uint32_t)0xFFUL);
 8002a88:	683b      	ldr	r3, [r7, #0]
 8002a8a:	b2da      	uxtb	r2, r3
 8002a8c:	490c      	ldr	r1, [pc, #48]	; (8002ac0 <__NVIC_SetPriority+0x4c>)
 8002a8e:	f997 3007 	ldrsb.w	r3, [r7, #7]
 8002a92:	0112      	lsls	r2, r2, #4
 8002a94:	b2d2      	uxtb	r2, r2
 8002a96:	440b      	add	r3, r1
 8002a98:	f883 2300 	strb.w	r2, [r3, #768]	; 0x300
  }
  else
  {
    SCB->SHP[(((uint32_t)IRQn) & 0xFUL)-4UL] = (uint8_t)((priority << (8U - __NVIC_PRIO_BITS)) & (uint32_t)0xFFUL);
  }
}
 8002a9c:	e00a      	b.n	8002ab4 <__NVIC_SetPriority+0x40>
    SCB->SHP[(((uint32_t)IRQn) & 0xFUL)-4UL] = (uint8_t)((priority << (8U - __NVIC_PRIO_BITS)) & (uint32_t)0xFFUL);
 8002a9e:	683b      	ldr	r3, [r7, #0]
 8002aa0:	b2da      	uxtb	r2, r3
 8002aa2:	4908      	ldr	r1, [pc, #32]	; (8002ac4 <__NVIC_SetPriority+0x50>)
 8002aa4:	79fb      	ldrb	r3, [r7, #7]
 8002aa6:	f003 030f 	and.w	r3, r3, #15
 8002aaa:	3b04      	subs	r3, #4
 8002aac:	0112      	lsls	r2, r2, #4
 8002aae:	b2d2      	uxtb	r2, r2
 8002ab0:	440b      	add	r3, r1
 8002ab2:	761a      	strb	r2, [r3, #24]
}
 8002ab4:	bf00      	nop
 8002ab6:	370c      	adds	r7, #12
 8002ab8:	46bd      	mov	sp, r7
 8002aba:	f85d 7b04 	ldr.w	r7, [sp], #4
 8002abe:	4770      	bx	lr
 8002ac0:	e000e100 	.word	0xe000e100
 8002ac4:	e000ed00 	.word	0xe000ed00

08002ac8 <NVIC_EncodePriority>:
  \param [in]   PreemptPriority  Preemptive priority value (starting from 0).
  \param [in]       SubPriority  Subpriority value (starting from 0).
  \return                        Encoded priority. Value can be used in the function \ref NVIC_SetPriority().
 */
__STATIC_INLINE uint32_t NVIC_EncodePriority (uint32_t PriorityGroup, uint32_t PreemptPriority, uint32_t SubPriority)
{
 8002ac8:	b480      	push	{r7}
 8002aca:	b089      	sub	sp, #36	; 0x24
 8002acc:	af00      	add	r7, sp, #0
 8002ace:	60f8      	str	r0, [r7, #12]
 8002ad0:	60b9      	str	r1, [r7, #8]
 8002ad2:	607a      	str	r2, [r7, #4]
  uint32_t PriorityGroupTmp = (PriorityGroup & (uint32_t)0x07UL);   /* only values 0..7 are used          */
 8002ad4:	68fb      	ldr	r3, [r7, #12]
 8002ad6:	f003 0307 	and.w	r3, r3, #7
 8002ada:	61fb      	str	r3, [r7, #28]
  uint32_t PreemptPriorityBits;
  uint32_t SubPriorityBits;

  PreemptPriorityBits = ((7UL - PriorityGroupTmp) > (uint32_t)(__NVIC_PRIO_BITS)) ? (uint32_t)(__NVIC_PRIO_BITS) : (uint32_t)(7UL - PriorityGroupTmp);
 8002adc:	69fb      	ldr	r3, [r7, #28]
 8002ade:	f1c3 0307 	rsb	r3, r3, #7
 8002ae2:	2b04      	cmp	r3, #4
 8002ae4:	bf28      	it	cs
 8002ae6:	2304      	movcs	r3, #4
 8002ae8:	61bb      	str	r3, [r7, #24]
  SubPriorityBits     = ((PriorityGroupTmp + (uint32_t)(__NVIC_PRIO_BITS)) < (uint32_t)7UL) ? (uint32_t)0UL : (uint32_t)((PriorityGroupTmp - 7UL) + (uint32_t)(__NVIC_PRIO_BITS));
 8002aea:	69fb      	ldr	r3, [r7, #28]
 8002aec:	3304      	adds	r3, #4
 8002aee:	2b06      	cmp	r3, #6
 8002af0:	d902      	bls.n	8002af8 <NVIC_EncodePriority+0x30>
 8002af2:	69fb      	ldr	r3, [r7, #28]
 8002af4:	3b03      	subs	r3, #3
 8002af6:	e000      	b.n	8002afa <NVIC_EncodePriority+0x32>
 8002af8:	2300      	movs	r3, #0
 8002afa:	617b      	str	r3, [r7, #20]

  return (
           ((PreemptPriority & (uint32_t)((1UL << (PreemptPriorityBits)) - 1UL)) << SubPriorityBits) |
 8002afc:	f04f 32ff 	mov.w	r2, #4294967295	; 0xffffffff
 8002b00:	69bb      	ldr	r3, [r7, #24]
 8002b02:	fa02 f303 	lsl.w	r3, r2, r3
 8002b06:	43da      	mvns	r2, r3
 8002b08:	68bb      	ldr	r3, [r7, #8]
 8002b0a:	401a      	ands	r2, r3
 8002b0c:	697b      	ldr	r3, [r7, #20]
 8002b0e:	409a      	lsls	r2, r3
           ((SubPriority     & (uint32_t)((1UL << (SubPriorityBits    )) - 1UL)))
 8002b10:	f04f 31ff 	mov.w	r1, #4294967295	; 0xffffffff
 8002b14:	697b      	ldr	r3, [r7, #20]
 8002b16:	fa01 f303 	lsl.w	r3, r1, r3
 8002b1a:	43d9      	mvns	r1, r3
 8002b1c:	687b      	ldr	r3, [r7, #4]
 8002b1e:	400b      	ands	r3, r1
           ((PreemptPriority & (uint32_t)((1UL << (PreemptPriorityBits)) - 1UL)) << SubPriorityBits) |
 8002b20:	4313      	orrs	r3, r2
         );
}
 8002b22:	4618      	mov	r0, r3
 8002b24:	3724      	adds	r7, #36	; 0x24
 8002b26:	46bd      	mov	sp, r7
 8002b28:	f85d 7b04 	ldr.w	r7, [sp], #4
 8002b2c:	4770      	bx	lr
	...

08002b30 <SysTick_Config>:
  \note    When the variable <b>__Vendor_SysTickConfig</b> is set to 1, then the
           function <b>SysTick_Config</b> is not included. In this case, the file <b><i>device</i>.h</b>
           must contain a vendor-specific implementation of this function.
 */
__STATIC_INLINE uint32_t SysTick_Config(uint32_t ticks)
{
 8002b30:	b580      	push	{r7, lr}
 8002b32:	b082      	sub	sp, #8
 8002b34:	af00      	add	r7, sp, #0
 8002b36:	6078      	str	r0, [r7, #4]
  if ((ticks - 1UL) > SysTick_LOAD_RELOAD_Msk)
 8002b38:	687b      	ldr	r3, [r7, #4]
 8002b3a:	3b01      	subs	r3, #1
 8002b3c:	f1b3 7f80 	cmp.w	r3, #16777216	; 0x1000000
 8002b40:	d301      	bcc.n	8002b46 <SysTick_Config+0x16>
  {
    return (1UL);                                                   /* Reload value impossible */
 8002b42:	2301      	movs	r3, #1
 8002b44:	e00f      	b.n	8002b66 <SysTick_Config+0x36>
  }

  SysTick->LOAD  = (uint32_t)(ticks - 1UL);                         /* set reload register */
 8002b46:	4a0a      	ldr	r2, [pc, #40]	; (8002b70 <SysTick_Config+0x40>)
 8002b48:	687b      	ldr	r3, [r7, #4]
 8002b4a:	3b01      	subs	r3, #1
 8002b4c:	6053      	str	r3, [r2, #4]
  NVIC_SetPriority (SysTick_IRQn, (1UL << __NVIC_PRIO_BITS) - 1UL); /* set Priority for Systick Interrupt */
 8002b4e:	210f      	movs	r1, #15
 8002b50:	f04f 30ff 	mov.w	r0, #4294967295	; 0xffffffff
 8002b54:	f7ff ff8e 	bl	8002a74 <__NVIC_SetPriority>
  SysTick->VAL   = 0UL;                                             /* Load the SysTick Counter Value */
 8002b58:	4b05      	ldr	r3, [pc, #20]	; (8002b70 <SysTick_Config+0x40>)
 8002b5a:	2200      	movs	r2, #0
 8002b5c:	609a      	str	r2, [r3, #8]
  SysTick->CTRL  = SysTick_CTRL_CLKSOURCE_Msk |
 8002b5e:	4b04      	ldr	r3, [pc, #16]	; (8002b70 <SysTick_Config+0x40>)
 8002b60:	2207      	movs	r2, #7
 8002b62:	601a      	str	r2, [r3, #0]
                   SysTick_CTRL_TICKINT_Msk   |
                   SysTick_CTRL_ENABLE_Msk;                         /* Enable SysTick IRQ and SysTick Timer */
  return (0UL);                                                     /* Function successful */
 8002b64:	2300      	movs	r3, #0
}
 8002b66:	4618      	mov	r0, r3
 8002b68:	3708      	adds	r7, #8
 8002b6a:	46bd      	mov	sp, r7
 8002b6c:	bd80      	pop	{r7, pc}
 8002b6e:	bf00      	nop
 8002b70:	e000e010 	.word	0xe000e010

08002b74 <HAL_NVIC_SetPriorityGrouping>:
  * @note   When the NVIC_PriorityGroup_0 is selected, IRQ preemption is no more possible. 
  *         The pending IRQ priority will be managed only by the subpriority. 
  * @retval None
  */
void HAL_NVIC_SetPriorityGrouping(uint32_t PriorityGroup)
{
 8002b74:	b580      	push	{r7, lr}
 8002b76:	b082      	sub	sp, #8
 8002b78:	af00      	add	r7, sp, #0
 8002b7a:	6078      	str	r0, [r7, #4]
  /* Check the parameters */
  assert_param(IS_NVIC_PRIORITY_GROUP(PriorityGroup));
  
  /* Set the PRIGROUP[10:8] bits according to the PriorityGroup parameter value */
  NVIC_SetPriorityGrouping(PriorityGroup);
 8002b7c:	6878      	ldr	r0, [r7, #4]
 8002b7e:	f7ff ff29 	bl	80029d4 <__NVIC_SetPriorityGrouping>
}
 8002b82:	bf00      	nop
 8002b84:	3708      	adds	r7, #8
 8002b86:	46bd      	mov	sp, r7
 8002b88:	bd80      	pop	{r7, pc}

08002b8a <HAL_NVIC_SetPriority>:
  *         This parameter can be a value between 0 and 15
  *         A lower priority value indicates a higher priority.          
  * @retval None
  */
void HAL_NVIC_SetPriority(IRQn_Type IRQn, uint32_t PreemptPriority, uint32_t SubPriority)
{ 
 8002b8a:	b580      	push	{r7, lr}
 8002b8c:	b086      	sub	sp, #24
 8002b8e:	af00      	add	r7, sp, #0
 8002b90:	4603      	mov	r3, r0
 8002b92:	60b9      	str	r1, [r7, #8]
 8002b94:	607a      	str	r2, [r7, #4]
 8002b96:	73fb      	strb	r3, [r7, #15]
  uint32_t prioritygroup = 0x00U;
 8002b98:	2300      	movs	r3, #0
 8002b9a:	617b      	str	r3, [r7, #20]
  
  /* Check the parameters */
  assert_param(IS_NVIC_SUB_PRIORITY(SubPriority));
  assert_param(IS_NVIC_PREEMPTION_PRIORITY(PreemptPriority));
  
  prioritygroup = NVIC_GetPriorityGrouping();
 8002b9c:	f7ff ff3e 	bl	8002a1c <__NVIC_GetPriorityGrouping>
 8002ba0:	6178      	str	r0, [r7, #20]
  
  NVIC_SetPriority(IRQn, NVIC_EncodePriority(prioritygroup, PreemptPriority, SubPriority));
 8002ba2:	687a      	ldr	r2, [r7, #4]
 8002ba4:	68b9      	ldr	r1, [r7, #8]
 8002ba6:	6978      	ldr	r0, [r7, #20]
 8002ba8:	f7ff ff8e 	bl	8002ac8 <NVIC_EncodePriority>
 8002bac:	4602      	mov	r2, r0
 8002bae:	f997 300f 	ldrsb.w	r3, [r7, #15]
 8002bb2:	4611      	mov	r1, r2
 8002bb4:	4618      	mov	r0, r3
 8002bb6:	f7ff ff5d 	bl	8002a74 <__NVIC_SetPriority>
}
 8002bba:	bf00      	nop
 8002bbc:	3718      	adds	r7, #24
 8002bbe:	46bd      	mov	sp, r7
 8002bc0:	bd80      	pop	{r7, pc}

08002bc2 <HAL_NVIC_EnableIRQ>:
  *         This parameter can be an enumerator of IRQn_Type enumeration
  *         (For the complete STM32 Devices IRQ Channels list, please refer to the appropriate CMSIS device file (stm32f4xxxx.h))
  * @retval None
  */
void HAL_NVIC_EnableIRQ(IRQn_Type IRQn)
{
 8002bc2:	b580      	push	{r7, lr}
 8002bc4:	b082      	sub	sp, #8
 8002bc6:	af00      	add	r7, sp, #0
 8002bc8:	4603      	mov	r3, r0
 8002bca:	71fb      	strb	r3, [r7, #7]
  /* Check the parameters */
  assert_param(IS_NVIC_DEVICE_IRQ(IRQn));
  
  /* Enable interrupt */
  NVIC_EnableIRQ(IRQn);
 8002bcc:	f997 3007 	ldrsb.w	r3, [r7, #7]
 8002bd0:	4618      	mov	r0, r3
 8002bd2:	f7ff ff31 	bl	8002a38 <__NVIC_EnableIRQ>
}
 8002bd6:	bf00      	nop
 8002bd8:	3708      	adds	r7, #8
 8002bda:	46bd      	mov	sp, r7
 8002bdc:	bd80      	pop	{r7, pc}

08002bde <HAL_SYSTICK_Config>:
  * @param  TicksNumb Specifies the ticks Number of ticks between two interrupts.
  * @retval status:  - 0  Function succeeded.
  *                  - 1  Function failed.
  */
uint32_t HAL_SYSTICK_Config(uint32_t TicksNumb)
{
 8002bde:	b580      	push	{r7, lr}
 8002be0:	b082      	sub	sp, #8
 8002be2:	af00      	add	r7, sp, #0
 8002be4:	6078      	str	r0, [r7, #4]
   return SysTick_Config(TicksNumb);
 8002be6:	6878      	ldr	r0, [r7, #4]
 8002be8:	f7ff ffa2 	bl	8002b30 <SysTick_Config>
 8002bec:	4603      	mov	r3, r0
}
 8002bee:	4618      	mov	r0, r3
 8002bf0:	3708      	adds	r7, #8
 8002bf2:	46bd      	mov	sp, r7
 8002bf4:	bd80      	pop	{r7, pc}
	...

08002bf8 <HAL_DMA_Init>:
  * @param  hdma Pointer to a DMA_HandleTypeDef structure that contains
  *               the configuration information for the specified DMA Stream.  
  * @retval HAL status
  */
HAL_StatusTypeDef HAL_DMA_Init(DMA_HandleTypeDef *hdma)
{
 8002bf8:	b580      	push	{r7, lr}
 8002bfa:	b086      	sub	sp, #24
 8002bfc:	af00      	add	r7, sp, #0
 8002bfe:	6078      	str	r0, [r7, #4]
  uint32_t tmp = 0U;
 8002c00:	2300      	movs	r3, #0
 8002c02:	617b      	str	r3, [r7, #20]
  uint32_t tickstart = HAL_GetTick();
 8002c04:	f7ff feb6 	bl	8002974 <HAL_GetTick>
 8002c08:	6138      	str	r0, [r7, #16]
  DMA_Base_Registers *regs;

  /* Check the DMA peripheral state */
  if(hdma == NULL)
 8002c0a:	687b      	ldr	r3, [r7, #4]
 8002c0c:	2b00      	cmp	r3, #0
 8002c0e:	d101      	bne.n	8002c14 <HAL_DMA_Init+0x1c>
  {
    return HAL_ERROR;
 8002c10:	2301      	movs	r3, #1
 8002c12:	e099      	b.n	8002d48 <HAL_DMA_Init+0x150>
    assert_param(IS_DMA_MEMORY_BURST(hdma->Init.MemBurst));
    assert_param(IS_DMA_PERIPHERAL_BURST(hdma->Init.PeriphBurst));
  }

  /* Change DMA peripheral state */
  hdma->State = HAL_DMA_STATE_BUSY;
 8002c14:	687b      	ldr	r3, [r7, #4]
 8002c16:	2202      	movs	r2, #2
 8002c18:	f883 2035 	strb.w	r2, [r3, #53]	; 0x35

  /* Allocate lock resource */
  __HAL_UNLOCK(hdma);
 8002c1c:	687b      	ldr	r3, [r7, #4]
 8002c1e:	2200      	movs	r2, #0
 8002c20:	f883 2034 	strb.w	r2, [r3, #52]	; 0x34
  
  /* Disable the peripheral */
  __HAL_DMA_DISABLE(hdma);
 8002c24:	687b      	ldr	r3, [r7, #4]
 8002c26:	681b      	ldr	r3, [r3, #0]
 8002c28:	681a      	ldr	r2, [r3, #0]
 8002c2a:	687b      	ldr	r3, [r7, #4]
 8002c2c:	681b      	ldr	r3, [r3, #0]
 8002c2e:	f022 0201 	bic.w	r2, r2, #1
 8002c32:	601a      	str	r2, [r3, #0]
  
  /* Check if the DMA Stream is effectively disabled */
  while((hdma->Instance->CR & DMA_SxCR_EN) != RESET)
 8002c34:	e00f      	b.n	8002c56 <HAL_DMA_Init+0x5e>
  {
    /* Check for the Timeout */
    if((HAL_GetTick() - tickstart ) > HAL_TIMEOUT_DMA_ABORT)
 8002c36:	f7ff fe9d 	bl	8002974 <HAL_GetTick>
 8002c3a:	4602      	mov	r2, r0
 8002c3c:	693b      	ldr	r3, [r7, #16]
 8002c3e:	1ad3      	subs	r3, r2, r3
 8002c40:	2b05      	cmp	r3, #5
 8002c42:	d908      	bls.n	8002c56 <HAL_DMA_Init+0x5e>
    {
      /* Update error code */
      hdma->ErrorCode = HAL_DMA_ERROR_TIMEOUT;
 8002c44:	687b      	ldr	r3, [r7, #4]
 8002c46:	2220      	movs	r2, #32
 8002c48:	655a      	str	r2, [r3, #84]	; 0x54
      
      /* Change the DMA state */
      hdma->State = HAL_DMA_STATE_TIMEOUT;
 8002c4a:	687b      	ldr	r3, [r7, #4]
 8002c4c:	2203      	movs	r2, #3
 8002c4e:	f883 2035 	strb.w	r2, [r3, #53]	; 0x35
      
      return HAL_TIMEOUT;
 8002c52:	2303      	movs	r3, #3
 8002c54:	e078      	b.n	8002d48 <HAL_DMA_Init+0x150>
  while((hdma->Instance->CR & DMA_SxCR_EN) != RESET)
 8002c56:	687b      	ldr	r3, [r7, #4]
 8002c58:	681b      	ldr	r3, [r3, #0]
 8002c5a:	681b      	ldr	r3, [r3, #0]
 8002c5c:	f003 0301 	and.w	r3, r3, #1
 8002c60:	2b00      	cmp	r3, #0
 8002c62:	d1e8      	bne.n	8002c36 <HAL_DMA_Init+0x3e>
    }
  }
  
  /* Get the CR register value */
  tmp = hdma->Instance->CR;
 8002c64:	687b      	ldr	r3, [r7, #4]
 8002c66:	681b      	ldr	r3, [r3, #0]
 8002c68:	681b      	ldr	r3, [r3, #0]
 8002c6a:	617b      	str	r3, [r7, #20]

  /* Clear CHSEL, MBURST, PBURST, PL, MSIZE, PSIZE, MINC, PINC, CIRC, DIR, CT and DBM bits */
  tmp &= ((uint32_t)~(DMA_SxCR_CHSEL | DMA_SxCR_MBURST | DMA_SxCR_PBURST | \
 8002c6c:	697a      	ldr	r2, [r7, #20]
 8002c6e:	4b38      	ldr	r3, [pc, #224]	; (8002d50 <HAL_DMA_Init+0x158>)
 8002c70:	4013      	ands	r3, r2
 8002c72:	617b      	str	r3, [r7, #20]
                      DMA_SxCR_PL    | DMA_SxCR_MSIZE  | DMA_SxCR_PSIZE  | \
                      DMA_SxCR_MINC  | DMA_SxCR_PINC   | DMA_SxCR_CIRC   | \
                      DMA_SxCR_DIR   | DMA_SxCR_CT     | DMA_SxCR_DBM));

  /* Prepare the DMA Stream configuration */
  tmp |=  hdma->Init.Channel             | hdma->Init.Direction        |
 8002c74:	687b      	ldr	r3, [r7, #4]
 8002c76:	685a      	ldr	r2, [r3, #4]
 8002c78:	687b      	ldr	r3, [r7, #4]
 8002c7a:	689b      	ldr	r3, [r3, #8]
 8002c7c:	431a      	orrs	r2, r3
          hdma->Init.PeriphInc           | hdma->Init.MemInc           |
 8002c7e:	687b      	ldr	r3, [r7, #4]
 8002c80:	68db      	ldr	r3, [r3, #12]
  tmp |=  hdma->Init.Channel             | hdma->Init.Direction        |
 8002c82:	431a      	orrs	r2, r3
          hdma->Init.PeriphInc           | hdma->Init.MemInc           |
 8002c84:	687b      	ldr	r3, [r7, #4]
 8002c86:	691b      	ldr	r3, [r3, #16]
 8002c88:	431a      	orrs	r2, r3
          hdma->Init.PeriphDataAlignment | hdma->Init.MemDataAlignment |
 8002c8a:	687b      	ldr	r3, [r7, #4]
 8002c8c:	695b      	ldr	r3, [r3, #20]
          hdma->Init.PeriphInc           | hdma->Init.MemInc           |
 8002c8e:	431a      	orrs	r2, r3
          hdma->Init.PeriphDataAlignment | hdma->Init.MemDataAlignment |
 8002c90:	687b      	ldr	r3, [r7, #4]
 8002c92:	699b      	ldr	r3, [r3, #24]
 8002c94:	431a      	orrs	r2, r3
          hdma->Init.Mode                | hdma->Init.Priority;
 8002c96:	687b      	ldr	r3, [r7, #4]
 8002c98:	69db      	ldr	r3, [r3, #28]
          hdma->Init.PeriphDataAlignment | hdma->Init.MemDataAlignment |
 8002c9a:	431a      	orrs	r2, r3
          hdma->Init.Mode                | hdma->Init.Priority;
 8002c9c:	687b      	ldr	r3, [r7, #4]
 8002c9e:	6a1b      	ldr	r3, [r3, #32]
 8002ca0:	4313      	orrs	r3, r2
  tmp |=  hdma->Init.Channel             | hdma->Init.Direction        |
 8002ca2:	697a      	ldr	r2, [r7, #20]
 8002ca4:	4313      	orrs	r3, r2
 8002ca6:	617b      	str	r3, [r7, #20]

  /* the Memory burst and peripheral burst are not used when the FIFO is disabled */
  if(hdma->Init.FIFOMode == DMA_FIFOMODE_ENABLE)
 8002ca8:	687b      	ldr	r3, [r7, #4]
 8002caa:	6a5b      	ldr	r3, [r3, #36]	; 0x24
 8002cac:	2b04      	cmp	r3, #4
 8002cae:	d107      	bne.n	8002cc0 <HAL_DMA_Init+0xc8>
  {
    /* Get memory burst and peripheral burst */
    tmp |=  hdma->Init.MemBurst | hdma->Init.PeriphBurst;
 8002cb0:	687b      	ldr	r3, [r7, #4]
 8002cb2:	6ada      	ldr	r2, [r3, #44]	; 0x2c
 8002cb4:	687b      	ldr	r3, [r7, #4]
 8002cb6:	6b1b      	ldr	r3, [r3, #48]	; 0x30
 8002cb8:	4313      	orrs	r3, r2
 8002cba:	697a      	ldr	r2, [r7, #20]
 8002cbc:	4313      	orrs	r3, r2
 8002cbe:	617b      	str	r3, [r7, #20]
  }
  
  /* Write to DMA Stream CR register */
  hdma->Instance->CR = tmp;  
 8002cc0:	687b      	ldr	r3, [r7, #4]
 8002cc2:	681b      	ldr	r3, [r3, #0]
 8002cc4:	697a      	ldr	r2, [r7, #20]
 8002cc6:	601a      	str	r2, [r3, #0]

  /* Get the FCR register value */
  tmp = hdma->Instance->FCR;
 8002cc8:	687b      	ldr	r3, [r7, #4]
 8002cca:	681b      	ldr	r3, [r3, #0]
 8002ccc:	695b      	ldr	r3, [r3, #20]
 8002cce:	617b      	str	r3, [r7, #20]

  /* Clear Direct mode and FIFO threshold bits */
  tmp &= (uint32_t)~(DMA_SxFCR_DMDIS | DMA_SxFCR_FTH);
 8002cd0:	697b      	ldr	r3, [r7, #20]
 8002cd2:	f023 0307 	bic.w	r3, r3, #7
 8002cd6:	617b      	str	r3, [r7, #20]

  /* Prepare the DMA Stream FIFO configuration */
  tmp |= hdma->Init.FIFOMode;
 8002cd8:	687b      	ldr	r3, [r7, #4]
 8002cda:	6a5b      	ldr	r3, [r3, #36]	; 0x24
 8002cdc:	697a      	ldr	r2, [r7, #20]
 8002cde:	4313      	orrs	r3, r2
 8002ce0:	617b      	str	r3, [r7, #20]

  /* The FIFO threshold is not used when the FIFO mode is disabled */
  if(hdma->Init.FIFOMode == DMA_FIFOMODE_ENABLE)
 8002ce2:	687b      	ldr	r3, [r7, #4]
 8002ce4:	6a5b      	ldr	r3, [r3, #36]	; 0x24
 8002ce6:	2b04      	cmp	r3, #4
 8002ce8:	d117      	bne.n	8002d1a <HAL_DMA_Init+0x122>
  {
    /* Get the FIFO threshold */
    tmp |= hdma->Init.FIFOThreshold;
 8002cea:	687b      	ldr	r3, [r7, #4]
 8002cec:	6a9b      	ldr	r3, [r3, #40]	; 0x28
 8002cee:	697a      	ldr	r2, [r7, #20]
 8002cf0:	4313      	orrs	r3, r2
 8002cf2:	617b      	str	r3, [r7, #20]
    
    /* Check compatibility between FIFO threshold level and size of the memory burst */
    /* for INCR4, INCR8, INCR16 bursts */
    if (hdma->Init.MemBurst != DMA_MBURST_SINGLE)
 8002cf4:	687b      	ldr	r3, [r7, #4]
 8002cf6:	6adb      	ldr	r3, [r3, #44]	; 0x2c
 8002cf8:	2b00      	cmp	r3, #0
 8002cfa:	d00e      	beq.n	8002d1a <HAL_DMA_Init+0x122>
    {
      if (DMA_CheckFifoParam(hdma) != HAL_OK)
 8002cfc:	6878      	ldr	r0, [r7, #4]
 8002cfe:	f000 fb01 	bl	8003304 <DMA_CheckFifoParam>
 8002d02:	4603      	mov	r3, r0
 8002d04:	2b00      	cmp	r3, #0
 8002d06:	d008      	beq.n	8002d1a <HAL_DMA_Init+0x122>
      {
        /* Update error code */
        hdma->ErrorCode = HAL_DMA_ERROR_PARAM;
 8002d08:	687b      	ldr	r3, [r7, #4]
 8002d0a:	2240      	movs	r2, #64	; 0x40
 8002d0c:	655a      	str	r2, [r3, #84]	; 0x54
        
        /* Change the DMA state */
        hdma->State = HAL_DMA_STATE_READY;
 8002d0e:	687b      	ldr	r3, [r7, #4]
 8002d10:	2201      	movs	r2, #1
 8002d12:	f883 2035 	strb.w	r2, [r3, #53]	; 0x35
        
        return HAL_ERROR; 
 8002d16:	2301      	movs	r3, #1
 8002d18:	e016      	b.n	8002d48 <HAL_DMA_Init+0x150>
      }
    }
  }
  
  /* Write to DMA Stream FCR */
  hdma->Instance->FCR = tmp;
 8002d1a:	687b      	ldr	r3, [r7, #4]
 8002d1c:	681b      	ldr	r3, [r3, #0]
 8002d1e:	697a      	ldr	r2, [r7, #20]
 8002d20:	615a      	str	r2, [r3, #20]

  /* Initialize StreamBaseAddress and StreamIndex parameters to be used to calculate
     DMA steam Base Address needed by HAL_DMA_IRQHandler() and HAL_DMA_PollForTransfer() */
  regs = (DMA_Base_Registers *)DMA_CalcBaseAndBitshift(hdma);
 8002d22:	6878      	ldr	r0, [r7, #4]
 8002d24:	f000 fab8 	bl	8003298 <DMA_CalcBaseAndBitshift>
 8002d28:	4603      	mov	r3, r0
 8002d2a:	60fb      	str	r3, [r7, #12]
  
  /* Clear all interrupt flags */
  regs->IFCR = 0x3FU << hdma->StreamIndex;
 8002d2c:	687b      	ldr	r3, [r7, #4]
 8002d2e:	6ddb      	ldr	r3, [r3, #92]	; 0x5c
 8002d30:	223f      	movs	r2, #63	; 0x3f
 8002d32:	409a      	lsls	r2, r3
 8002d34:	68fb      	ldr	r3, [r7, #12]
 8002d36:	609a      	str	r2, [r3, #8]

  /* Initialize the error code */
  hdma->ErrorCode = HAL_DMA_ERROR_NONE;
 8002d38:	687b      	ldr	r3, [r7, #4]
 8002d3a:	2200      	movs	r2, #0
 8002d3c:	655a      	str	r2, [r3, #84]	; 0x54
                                                                                     
  /* Initialize the DMA state */
  hdma->State = HAL_DMA_STATE_READY;
 8002d3e:	687b      	ldr	r3, [r7, #4]
 8002d40:	2201      	movs	r2, #1
 8002d42:	f883 2035 	strb.w	r2, [r3, #53]	; 0x35

  return HAL_OK;
 8002d46:	2300      	movs	r3, #0
}
 8002d48:	4618      	mov	r0, r3
 8002d4a:	3718      	adds	r7, #24
 8002d4c:	46bd      	mov	sp, r7
 8002d4e:	bd80      	pop	{r7, pc}
 8002d50:	f010803f 	.word	0xf010803f

08002d54 <HAL_DMA_Start_IT>:
  * @param  DstAddress The destination memory Buffer address
  * @param  DataLength The length of data to be transferred from source to destination
  * @retval HAL status
  */
HAL_StatusTypeDef HAL_DMA_Start_IT(DMA_HandleTypeDef *hdma, uint32_t SrcAddress, uint32_t DstAddress, uint32_t DataLength)
{
 8002d54:	b580      	push	{r7, lr}
 8002d56:	b086      	sub	sp, #24
 8002d58:	af00      	add	r7, sp, #0
 8002d5a:	60f8      	str	r0, [r7, #12]
 8002d5c:	60b9      	str	r1, [r7, #8]
 8002d5e:	607a      	str	r2, [r7, #4]
 8002d60:	603b      	str	r3, [r7, #0]
  HAL_StatusTypeDef status = HAL_OK;
 8002d62:	2300      	movs	r3, #0
 8002d64:	75fb      	strb	r3, [r7, #23]

  /* calculate DMA base and stream number */
  DMA_Base_Registers *regs = (DMA_Base_Registers *)hdma->StreamBaseAddress;
 8002d66:	68fb      	ldr	r3, [r7, #12]
 8002d68:	6d9b      	ldr	r3, [r3, #88]	; 0x58
 8002d6a:	613b      	str	r3, [r7, #16]
  
  /* Check the parameters */
  assert_param(IS_DMA_BUFFER_SIZE(DataLength));
 
  /* Process locked */
  __HAL_LOCK(hdma);
 8002d6c:	68fb      	ldr	r3, [r7, #12]
 8002d6e:	f893 3034 	ldrb.w	r3, [r3, #52]	; 0x34
 8002d72:	2b01      	cmp	r3, #1
 8002d74:	d101      	bne.n	8002d7a <HAL_DMA_Start_IT+0x26>
 8002d76:	2302      	movs	r3, #2
 8002d78:	e040      	b.n	8002dfc <HAL_DMA_Start_IT+0xa8>
 8002d7a:	68fb      	ldr	r3, [r7, #12]
 8002d7c:	2201      	movs	r2, #1
 8002d7e:	f883 2034 	strb.w	r2, [r3, #52]	; 0x34
  
  if(HAL_DMA_STATE_READY == hdma->State)
 8002d82:	68fb      	ldr	r3, [r7, #12]
 8002d84:	f893 3035 	ldrb.w	r3, [r3, #53]	; 0x35
 8002d88:	b2db      	uxtb	r3, r3
 8002d8a:	2b01      	cmp	r3, #1
 8002d8c:	d12f      	bne.n	8002dee <HAL_DMA_Start_IT+0x9a>
  {
    /* Change DMA peripheral state */
    hdma->State = HAL_DMA_STATE_BUSY;
 8002d8e:	68fb      	ldr	r3, [r7, #12]
 8002d90:	2202      	movs	r2, #2
 8002d92:	f883 2035 	strb.w	r2, [r3, #53]	; 0x35
    
    /* Initialize the error code */
    hdma->ErrorCode = HAL_DMA_ERROR_NONE;
 8002d96:	68fb      	ldr	r3, [r7, #12]
 8002d98:	2200      	movs	r2, #0
 8002d9a:	655a      	str	r2, [r3, #84]	; 0x54
    
    /* Configure the source, destination address and the data length */
    DMA_SetConfig(hdma, SrcAddress, DstAddress, DataLength);
 8002d9c:	683b      	ldr	r3, [r7, #0]
 8002d9e:	687a      	ldr	r2, [r7, #4]
 8002da0:	68b9      	ldr	r1, [r7, #8]
 8002da2:	68f8      	ldr	r0, [r7, #12]
 8002da4:	f000 fa4a 	bl	800323c <DMA_SetConfig>
    
    /* Clear all interrupt flags at correct offset within the register */
    regs->IFCR = 0x3FU << hdma->StreamIndex;
 8002da8:	68fb      	ldr	r3, [r7, #12]
 8002daa:	6ddb      	ldr	r3, [r3, #92]	; 0x5c
 8002dac:	223f      	movs	r2, #63	; 0x3f
 8002dae:	409a      	lsls	r2, r3
 8002db0:	693b      	ldr	r3, [r7, #16]
 8002db2:	609a      	str	r2, [r3, #8]
    
    /* Enable Common interrupts*/
    hdma->Instance->CR  |= DMA_IT_TC | DMA_IT_TE | DMA_IT_DME;
 8002db4:	68fb      	ldr	r3, [r7, #12]
 8002db6:	681b      	ldr	r3, [r3, #0]
 8002db8:	681a      	ldr	r2, [r3, #0]
 8002dba:	68fb      	ldr	r3, [r7, #12]
 8002dbc:	681b      	ldr	r3, [r3, #0]
 8002dbe:	f042 0216 	orr.w	r2, r2, #22
 8002dc2:	601a      	str	r2, [r3, #0]
    
    if(hdma->XferHalfCpltCallback != NULL)
 8002dc4:	68fb      	ldr	r3, [r7, #12]
 8002dc6:	6c1b      	ldr	r3, [r3, #64]	; 0x40
 8002dc8:	2b00      	cmp	r3, #0
 8002dca:	d007      	beq.n	8002ddc <HAL_DMA_Start_IT+0x88>
    {
      hdma->Instance->CR  |= DMA_IT_HT;
 8002dcc:	68fb      	ldr	r3, [r7, #12]
 8002dce:	681b      	ldr	r3, [r3, #0]
 8002dd0:	681a      	ldr	r2, [r3, #0]
 8002dd2:	68fb      	ldr	r3, [r7, #12]
 8002dd4:	681b      	ldr	r3, [r3, #0]
 8002dd6:	f042 0208 	orr.w	r2, r2, #8
 8002dda:	601a      	str	r2, [r3, #0]
    }
    
    /* Enable the Peripheral */
    __HAL_DMA_ENABLE(hdma);
 8002ddc:	68fb      	ldr	r3, [r7, #12]
 8002dde:	681b      	ldr	r3, [r3, #0]
 8002de0:	681a      	ldr	r2, [r3, #0]
 8002de2:	68fb      	ldr	r3, [r7, #12]
 8002de4:	681b      	ldr	r3, [r3, #0]
 8002de6:	f042 0201 	orr.w	r2, r2, #1
 8002dea:	601a      	str	r2, [r3, #0]
 8002dec:	e005      	b.n	8002dfa <HAL_DMA_Start_IT+0xa6>
  }
  else
  {
    /* Process unlocked */
    __HAL_UNLOCK(hdma);	  
 8002dee:	68fb      	ldr	r3, [r7, #12]
 8002df0:	2200      	movs	r2, #0
 8002df2:	f883 2034 	strb.w	r2, [r3, #52]	; 0x34
    
    /* Return error status */
    status = HAL_BUSY;
 8002df6:	2302      	movs	r3, #2
 8002df8:	75fb      	strb	r3, [r7, #23]
  }
  
  return status;
 8002dfa:	7dfb      	ldrb	r3, [r7, #23]
}
 8002dfc:	4618      	mov	r0, r3
 8002dfe:	3718      	adds	r7, #24
 8002e00:	46bd      	mov	sp, r7
 8002e02:	bd80      	pop	{r7, pc}

08002e04 <HAL_DMA_Abort>:
  *        and the Stream will be effectively disabled only after the transfer of
  *        this single data is finished.  
  * @retval HAL status
  */
HAL_StatusTypeDef HAL_DMA_Abort(DMA_HandleTypeDef *hdma)
{
 8002e04:	b580      	push	{r7, lr}
 8002e06:	b084      	sub	sp, #16
 8002e08:	af00      	add	r7, sp, #0
 8002e0a:	6078      	str	r0, [r7, #4]
  /* calculate DMA base and stream number */
  DMA_Base_Registers *regs = (DMA_Base_Registers *)hdma->StreamBaseAddress;
 8002e0c:	687b      	ldr	r3, [r7, #4]
 8002e0e:	6d9b      	ldr	r3, [r3, #88]	; 0x58
 8002e10:	60fb      	str	r3, [r7, #12]
  
  uint32_t tickstart = HAL_GetTick();
 8002e12:	f7ff fdaf 	bl	8002974 <HAL_GetTick>
 8002e16:	60b8      	str	r0, [r7, #8]
  
  if(hdma->State != HAL_DMA_STATE_BUSY)
 8002e18:	687b      	ldr	r3, [r7, #4]
 8002e1a:	f893 3035 	ldrb.w	r3, [r3, #53]	; 0x35
 8002e1e:	b2db      	uxtb	r3, r3
 8002e20:	2b02      	cmp	r3, #2
 8002e22:	d008      	beq.n	8002e36 <HAL_DMA_Abort+0x32>
  {
    hdma->ErrorCode = HAL_DMA_ERROR_NO_XFER;
 8002e24:	687b      	ldr	r3, [r7, #4]
 8002e26:	2280      	movs	r2, #128	; 0x80
 8002e28:	655a      	str	r2, [r3, #84]	; 0x54
    
    /* Process Unlocked */
    __HAL_UNLOCK(hdma);
 8002e2a:	687b      	ldr	r3, [r7, #4]
 8002e2c:	2200      	movs	r2, #0
 8002e2e:	f883 2034 	strb.w	r2, [r3, #52]	; 0x34
    
    return HAL_ERROR;
 8002e32:	2301      	movs	r3, #1
 8002e34:	e052      	b.n	8002edc <HAL_DMA_Abort+0xd8>
  }
  else
  {
    /* Disable all the transfer interrupts */
    hdma->Instance->CR  &= ~(DMA_IT_TC | DMA_IT_TE | DMA_IT_DME);
 8002e36:	687b      	ldr	r3, [r7, #4]
 8002e38:	681b      	ldr	r3, [r3, #0]
 8002e3a:	681a      	ldr	r2, [r3, #0]
 8002e3c:	687b      	ldr	r3, [r7, #4]
 8002e3e:	681b      	ldr	r3, [r3, #0]
 8002e40:	f022 0216 	bic.w	r2, r2, #22
 8002e44:	601a      	str	r2, [r3, #0]
    hdma->Instance->FCR &= ~(DMA_IT_FE);
 8002e46:	687b      	ldr	r3, [r7, #4]
 8002e48:	681b      	ldr	r3, [r3, #0]
 8002e4a:	695a      	ldr	r2, [r3, #20]
 8002e4c:	687b      	ldr	r3, [r7, #4]
 8002e4e:	681b      	ldr	r3, [r3, #0]
 8002e50:	f022 0280 	bic.w	r2, r2, #128	; 0x80
 8002e54:	615a      	str	r2, [r3, #20]
    
    if((hdma->XferHalfCpltCallback != NULL) || (hdma->XferM1HalfCpltCallback != NULL))
 8002e56:	687b      	ldr	r3, [r7, #4]
 8002e58:	6c1b      	ldr	r3, [r3, #64]	; 0x40
 8002e5a:	2b00      	cmp	r3, #0
 8002e5c:	d103      	bne.n	8002e66 <HAL_DMA_Abort+0x62>
 8002e5e:	687b      	ldr	r3, [r7, #4]
 8002e60:	6c9b      	ldr	r3, [r3, #72]	; 0x48
 8002e62:	2b00      	cmp	r3, #0
 8002e64:	d007      	beq.n	8002e76 <HAL_DMA_Abort+0x72>
    {
      hdma->Instance->CR  &= ~(DMA_IT_HT);
 8002e66:	687b      	ldr	r3, [r7, #4]
 8002e68:	681b      	ldr	r3, [r3, #0]
 8002e6a:	681a      	ldr	r2, [r3, #0]
 8002e6c:	687b      	ldr	r3, [r7, #4]
 8002e6e:	681b      	ldr	r3, [r3, #0]
 8002e70:	f022 0208 	bic.w	r2, r2, #8
 8002e74:	601a      	str	r2, [r3, #0]
    }
    
    /* Disable the stream */
    __HAL_DMA_DISABLE(hdma);
 8002e76:	687b      	ldr	r3, [r7, #4]
 8002e78:	681b      	ldr	r3, [r3, #0]
 8002e7a:	681a      	ldr	r2, [r3, #0]
 8002e7c:	687b      	ldr	r3, [r7, #4]
 8002e7e:	681b      	ldr	r3, [r3, #0]
 8002e80:	f022 0201 	bic.w	r2, r2, #1
 8002e84:	601a      	str	r2, [r3, #0]
    
    /* Check if the DMA Stream is effectively disabled */
    while((hdma->Instance->CR & DMA_SxCR_EN) != RESET)
 8002e86:	e013      	b.n	8002eb0 <HAL_DMA_Abort+0xac>
    {
      /* Check for the Timeout */
      if((HAL_GetTick() - tickstart ) > HAL_TIMEOUT_DMA_ABORT)
 8002e88:	f7ff fd74 	bl	8002974 <HAL_GetTick>
 8002e8c:	4602      	mov	r2, r0
 8002e8e:	68bb      	ldr	r3, [r7, #8]
 8002e90:	1ad3      	subs	r3, r2, r3
 8002e92:	2b05      	cmp	r3, #5
 8002e94:	d90c      	bls.n	8002eb0 <HAL_DMA_Abort+0xac>
      {
        /* Update error code */
        hdma->ErrorCode = HAL_DMA_ERROR_TIMEOUT;
 8002e96:	687b      	ldr	r3, [r7, #4]
 8002e98:	2220      	movs	r2, #32
 8002e9a:	655a      	str	r2, [r3, #84]	; 0x54
        
        /* Change the DMA state */
        hdma->State = HAL_DMA_STATE_TIMEOUT;
 8002e9c:	687b      	ldr	r3, [r7, #4]
 8002e9e:	2203      	movs	r2, #3
 8002ea0:	f883 2035 	strb.w	r2, [r3, #53]	; 0x35
        
        /* Process Unlocked */
        __HAL_UNLOCK(hdma);
 8002ea4:	687b      	ldr	r3, [r7, #4]
 8002ea6:	2200      	movs	r2, #0
 8002ea8:	f883 2034 	strb.w	r2, [r3, #52]	; 0x34
        
        return HAL_TIMEOUT;
 8002eac:	2303      	movs	r3, #3
 8002eae:	e015      	b.n	8002edc <HAL_DMA_Abort+0xd8>
    while((hdma->Instance->CR & DMA_SxCR_EN) != RESET)
 8002eb0:	687b      	ldr	r3, [r7, #4]
 8002eb2:	681b      	ldr	r3, [r3, #0]
 8002eb4:	681b      	ldr	r3, [r3, #0]
 8002eb6:	f003 0301 	and.w	r3, r3, #1
 8002eba:	2b00      	cmp	r3, #0
 8002ebc:	d1e4      	bne.n	8002e88 <HAL_DMA_Abort+0x84>
      }
    }
    
    /* Clear all interrupt flags at correct offset within the register */
    regs->IFCR = 0x3FU << hdma->StreamIndex;
 8002ebe:	687b      	ldr	r3, [r7, #4]
 8002ec0:	6ddb      	ldr	r3, [r3, #92]	; 0x5c
 8002ec2:	223f      	movs	r2, #63	; 0x3f
 8002ec4:	409a      	lsls	r2, r3
 8002ec6:	68fb      	ldr	r3, [r7, #12]
 8002ec8:	609a      	str	r2, [r3, #8]
    
    /* Change the DMA state*/
    hdma->State = HAL_DMA_STATE_READY;
 8002eca:	687b      	ldr	r3, [r7, #4]
 8002ecc:	2201      	movs	r2, #1
 8002ece:	f883 2035 	strb.w	r2, [r3, #53]	; 0x35
    
    /* Process Unlocked */
    __HAL_UNLOCK(hdma);
 8002ed2:	687b      	ldr	r3, [r7, #4]
 8002ed4:	2200      	movs	r2, #0
 8002ed6:	f883 2034 	strb.w	r2, [r3, #52]	; 0x34
  }
  return HAL_OK;
 8002eda:	2300      	movs	r3, #0
}
 8002edc:	4618      	mov	r0, r3
 8002ede:	3710      	adds	r7, #16
 8002ee0:	46bd      	mov	sp, r7
 8002ee2:	bd80      	pop	{r7, pc}

08002ee4 <HAL_DMA_Abort_IT>:
  * @param  hdma   pointer to a DMA_HandleTypeDef structure that contains
  *                 the configuration information for the specified DMA Stream.
  * @retval HAL status
  */
HAL_StatusTypeDef HAL_DMA_Abort_IT(DMA_HandleTypeDef *hdma)
{
 8002ee4:	b480      	push	{r7}
 8002ee6:	b083      	sub	sp, #12
 8002ee8:	af00      	add	r7, sp, #0
 8002eea:	6078      	str	r0, [r7, #4]
  if(hdma->State != HAL_DMA_STATE_BUSY)
 8002eec:	687b      	ldr	r3, [r7, #4]
 8002eee:	f893 3035 	ldrb.w	r3, [r3, #53]	; 0x35
 8002ef2:	b2db      	uxtb	r3, r3
 8002ef4:	2b02      	cmp	r3, #2
 8002ef6:	d004      	beq.n	8002f02 <HAL_DMA_Abort_IT+0x1e>
  {
    hdma->ErrorCode = HAL_DMA_ERROR_NO_XFER;
 8002ef8:	687b      	ldr	r3, [r7, #4]
 8002efa:	2280      	movs	r2, #128	; 0x80
 8002efc:	655a      	str	r2, [r3, #84]	; 0x54
    return HAL_ERROR;
 8002efe:	2301      	movs	r3, #1
 8002f00:	e00c      	b.n	8002f1c <HAL_DMA_Abort_IT+0x38>
  }
  else
  {
    /* Set Abort State  */
    hdma->State = HAL_DMA_STATE_ABORT;
 8002f02:	687b      	ldr	r3, [r7, #4]
 8002f04:	2205      	movs	r2, #5
 8002f06:	f883 2035 	strb.w	r2, [r3, #53]	; 0x35
    
    /* Disable the stream */
    __HAL_DMA_DISABLE(hdma);
 8002f0a:	687b      	ldr	r3, [r7, #4]
 8002f0c:	681b      	ldr	r3, [r3, #0]
 8002f0e:	681a      	ldr	r2, [r3, #0]
 8002f10:	687b      	ldr	r3, [r7, #4]
 8002f12:	681b      	ldr	r3, [r3, #0]
 8002f14:	f022 0201 	bic.w	r2, r2, #1
 8002f18:	601a      	str	r2, [r3, #0]
  }

  return HAL_OK;
 8002f1a:	2300      	movs	r3, #0
}
 8002f1c:	4618      	mov	r0, r3
 8002f1e:	370c      	adds	r7, #12
 8002f20:	46bd      	mov	sp, r7
 8002f22:	f85d 7b04 	ldr.w	r7, [sp], #4
 8002f26:	4770      	bx	lr

08002f28 <HAL_DMA_IRQHandler>:
  * @param  hdma pointer to a DMA_HandleTypeDef structure that contains
  *               the configuration information for the specified DMA Stream.  
  * @retval None
  */
void HAL_DMA_IRQHandler(DMA_HandleTypeDef *hdma)
{
 8002f28:	b580      	push	{r7, lr}
 8002f2a:	b086      	sub	sp, #24
 8002f2c:	af00      	add	r7, sp, #0
 8002f2e:	6078      	str	r0, [r7, #4]
  uint32_t tmpisr;
  __IO uint32_t count = 0U;
 8002f30:	2300      	movs	r3, #0
 8002f32:	60bb      	str	r3, [r7, #8]
  uint32_t timeout = SystemCoreClock / 9600U;
 8002f34:	4b8e      	ldr	r3, [pc, #568]	; (8003170 <HAL_DMA_IRQHandler+0x248>)
 8002f36:	681b      	ldr	r3, [r3, #0]
 8002f38:	4a8e      	ldr	r2, [pc, #568]	; (8003174 <HAL_DMA_IRQHandler+0x24c>)
 8002f3a:	fba2 2303 	umull	r2, r3, r2, r3
 8002f3e:	0a9b      	lsrs	r3, r3, #10
 8002f40:	617b      	str	r3, [r7, #20]

  /* calculate DMA base and stream number */
  DMA_Base_Registers *regs = (DMA_Base_Registers *)hdma->StreamBaseAddress;
 8002f42:	687b      	ldr	r3, [r7, #4]
 8002f44:	6d9b      	ldr	r3, [r3, #88]	; 0x58
 8002f46:	613b      	str	r3, [r7, #16]

  tmpisr = regs->ISR;
 8002f48:	693b      	ldr	r3, [r7, #16]
 8002f4a:	681b      	ldr	r3, [r3, #0]
 8002f4c:	60fb      	str	r3, [r7, #12]

  /* Transfer Error Interrupt management ***************************************/
  if ((tmpisr & (DMA_FLAG_TEIF0_4 << hdma->StreamIndex)) != RESET)
 8002f4e:	687b      	ldr	r3, [r7, #4]
 8002f50:	6ddb      	ldr	r3, [r3, #92]	; 0x5c
 8002f52:	2208      	movs	r2, #8
 8002f54:	409a      	lsls	r2, r3
 8002f56:	68fb      	ldr	r3, [r7, #12]
 8002f58:	4013      	ands	r3, r2
 8002f5a:	2b00      	cmp	r3, #0
 8002f5c:	d01a      	beq.n	8002f94 <HAL_DMA_IRQHandler+0x6c>
  {
    if(__HAL_DMA_GET_IT_SOURCE(hdma, DMA_IT_TE) != RESET)
 8002f5e:	687b      	ldr	r3, [r7, #4]
 8002f60:	681b      	ldr	r3, [r3, #0]
 8002f62:	681b      	ldr	r3, [r3, #0]
 8002f64:	f003 0304 	and.w	r3, r3, #4
 8002f68:	2b00      	cmp	r3, #0
 8002f6a:	d013      	beq.n	8002f94 <HAL_DMA_IRQHandler+0x6c>
    {
      /* Disable the transfer error interrupt */
      hdma->Instance->CR  &= ~(DMA_IT_TE);
 8002f6c:	687b      	ldr	r3, [r7, #4]
 8002f6e:	681b      	ldr	r3, [r3, #0]
 8002f70:	681a      	ldr	r2, [r3, #0]
 8002f72:	687b      	ldr	r3, [r7, #4]
 8002f74:	681b      	ldr	r3, [r3, #0]
 8002f76:	f022 0204 	bic.w	r2, r2, #4
 8002f7a:	601a      	str	r2, [r3, #0]
      
      /* Clear the transfer error flag */
      regs->IFCR = DMA_FLAG_TEIF0_4 << hdma->StreamIndex;
 8002f7c:	687b      	ldr	r3, [r7, #4]
 8002f7e:	6ddb      	ldr	r3, [r3, #92]	; 0x5c
 8002f80:	2208      	movs	r2, #8
 8002f82:	409a      	lsls	r2, r3
 8002f84:	693b      	ldr	r3, [r7, #16]
 8002f86:	609a      	str	r2, [r3, #8]
      
      /* Update error code */
      hdma->ErrorCode |= HAL_DMA_ERROR_TE;
 8002f88:	687b      	ldr	r3, [r7, #4]
 8002f8a:	6d5b      	ldr	r3, [r3, #84]	; 0x54
 8002f8c:	f043 0201 	orr.w	r2, r3, #1
 8002f90:	687b      	ldr	r3, [r7, #4]
 8002f92:	655a      	str	r2, [r3, #84]	; 0x54
    }
  }
  /* FIFO Error Interrupt management ******************************************/
  if ((tmpisr & (DMA_FLAG_FEIF0_4 << hdma->StreamIndex)) != RESET)
 8002f94:	687b      	ldr	r3, [r7, #4]
 8002f96:	6ddb      	ldr	r3, [r3, #92]	; 0x5c
 8002f98:	2201      	movs	r2, #1
 8002f9a:	409a      	lsls	r2, r3
 8002f9c:	68fb      	ldr	r3, [r7, #12]
 8002f9e:	4013      	ands	r3, r2
 8002fa0:	2b00      	cmp	r3, #0
 8002fa2:	d012      	beq.n	8002fca <HAL_DMA_IRQHandler+0xa2>
  {
    if(__HAL_DMA_GET_IT_SOURCE(hdma, DMA_IT_FE) != RESET)
 8002fa4:	687b      	ldr	r3, [r7, #4]
 8002fa6:	681b      	ldr	r3, [r3, #0]
 8002fa8:	695b      	ldr	r3, [r3, #20]
 8002faa:	f003 0380 	and.w	r3, r3, #128	; 0x80
 8002fae:	2b00      	cmp	r3, #0
 8002fb0:	d00b      	beq.n	8002fca <HAL_DMA_IRQHandler+0xa2>
    {
      /* Clear the FIFO error flag */
      regs->IFCR = DMA_FLAG_FEIF0_4 << hdma->StreamIndex;
 8002fb2:	687b      	ldr	r3, [r7, #4]
 8002fb4:	6ddb      	ldr	r3, [r3, #92]	; 0x5c
 8002fb6:	2201      	movs	r2, #1
 8002fb8:	409a      	lsls	r2, r3
 8002fba:	693b      	ldr	r3, [r7, #16]
 8002fbc:	609a      	str	r2, [r3, #8]

      /* Update error code */
      hdma->ErrorCode |= HAL_DMA_ERROR_FE;
 8002fbe:	687b      	ldr	r3, [r7, #4]
 8002fc0:	6d5b      	ldr	r3, [r3, #84]	; 0x54
 8002fc2:	f043 0202 	orr.w	r2, r3, #2
 8002fc6:	687b      	ldr	r3, [r7, #4]
 8002fc8:	655a      	str	r2, [r3, #84]	; 0x54
    }
  }
  /* Direct Mode Error Interrupt management ***********************************/
  if ((tmpisr & (DMA_FLAG_DMEIF0_4 << hdma->StreamIndex)) != RESET)
 8002fca:	687b      	ldr	r3, [r7, #4]
 8002fcc:	6ddb      	ldr	r3, [r3, #92]	; 0x5c
 8002fce:	2204      	movs	r2, #4
 8002fd0:	409a      	lsls	r2, r3
 8002fd2:	68fb      	ldr	r3, [r7, #12]
 8002fd4:	4013      	ands	r3, r2
 8002fd6:	2b00      	cmp	r3, #0
 8002fd8:	d012      	beq.n	8003000 <HAL_DMA_IRQHandler+0xd8>
  {
    if(__HAL_DMA_GET_IT_SOURCE(hdma, DMA_IT_DME) != RESET)
 8002fda:	687b      	ldr	r3, [r7, #4]
 8002fdc:	681b      	ldr	r3, [r3, #0]
 8002fde:	681b      	ldr	r3, [r3, #0]
 8002fe0:	f003 0302 	and.w	r3, r3, #2
 8002fe4:	2b00      	cmp	r3, #0
 8002fe6:	d00b      	beq.n	8003000 <HAL_DMA_IRQHandler+0xd8>
    {
      /* Clear the direct mode error flag */
      regs->IFCR = DMA_FLAG_DMEIF0_4 << hdma->StreamIndex;
 8002fe8:	687b      	ldr	r3, [r7, #4]
 8002fea:	6ddb      	ldr	r3, [r3, #92]	; 0x5c
 8002fec:	2204      	movs	r2, #4
 8002fee:	409a      	lsls	r2, r3
 8002ff0:	693b      	ldr	r3, [r7, #16]
 8002ff2:	609a      	str	r2, [r3, #8]

      /* Update error code */
      hdma->ErrorCode |= HAL_DMA_ERROR_DME;
 8002ff4:	687b      	ldr	r3, [r7, #4]
 8002ff6:	6d5b      	ldr	r3, [r3, #84]	; 0x54
 8002ff8:	f043 0204 	orr.w	r2, r3, #4
 8002ffc:	687b      	ldr	r3, [r7, #4]
 8002ffe:	655a      	str	r2, [r3, #84]	; 0x54
    }
  }
  /* Half Transfer Complete Interrupt management ******************************/
  if ((tmpisr & (DMA_FLAG_HTIF0_4 << hdma->StreamIndex)) != RESET)
 8003000:	687b      	ldr	r3, [r7, #4]
 8003002:	6ddb      	ldr	r3, [r3, #92]	; 0x5c
 8003004:	2210      	movs	r2, #16
 8003006:	409a      	lsls	r2, r3
 8003008:	68fb      	ldr	r3, [r7, #12]
 800300a:	4013      	ands	r3, r2
 800300c:	2b00      	cmp	r3, #0
 800300e:	d043      	beq.n	8003098 <HAL_DMA_IRQHandler+0x170>
  {
    if(__HAL_DMA_GET_IT_SOURCE(hdma, DMA_IT_HT) != RESET)
 8003010:	687b      	ldr	r3, [r7, #4]
 8003012:	681b      	ldr	r3, [r3, #0]
 8003014:	681b      	ldr	r3, [r3, #0]
 8003016:	f003 0308 	and.w	r3, r3, #8
 800301a:	2b00      	cmp	r3, #0
 800301c:	d03c      	beq.n	8003098 <HAL_DMA_IRQHandler+0x170>
    {
      /* Clear the half transfer complete flag */
      regs->IFCR = DMA_FLAG_HTIF0_4 << hdma->StreamIndex;
 800301e:	687b      	ldr	r3, [r7, #4]
 8003020:	6ddb      	ldr	r3, [r3, #92]	; 0x5c
 8003022:	2210      	movs	r2, #16
 8003024:	409a      	lsls	r2, r3
 8003026:	693b      	ldr	r3, [r7, #16]
 8003028:	609a      	str	r2, [r3, #8]
      
      /* Multi_Buffering mode enabled */
      if(((hdma->Instance->CR) & (uint32_t)(DMA_SxCR_DBM)) != RESET)
 800302a:	687b      	ldr	r3, [r7, #4]
 800302c:	681b      	ldr	r3, [r3, #0]
 800302e:	681b      	ldr	r3, [r3, #0]
 8003030:	f403 2380 	and.w	r3, r3, #262144	; 0x40000
 8003034:	2b00      	cmp	r3, #0
 8003036:	d018      	beq.n	800306a <HAL_DMA_IRQHandler+0x142>
      {
        /* Current memory buffer used is Memory 0 */
        if((hdma->Instance->CR & DMA_SxCR_CT) == RESET)
 8003038:	687b      	ldr	r3, [r7, #4]
 800303a:	681b      	ldr	r3, [r3, #0]
 800303c:	681b      	ldr	r3, [r3, #0]
 800303e:	f403 2300 	and.w	r3, r3, #524288	; 0x80000
 8003042:	2b00      	cmp	r3, #0
 8003044:	d108      	bne.n	8003058 <HAL_DMA_IRQHandler+0x130>
        {
          if(hdma->XferHalfCpltCallback != NULL)
 8003046:	687b      	ldr	r3, [r7, #4]
 8003048:	6c1b      	ldr	r3, [r3, #64]	; 0x40
 800304a:	2b00      	cmp	r3, #0
 800304c:	d024      	beq.n	8003098 <HAL_DMA_IRQHandler+0x170>
          {
            /* Half transfer callback */
            hdma->XferHalfCpltCallback(hdma);
 800304e:	687b      	ldr	r3, [r7, #4]
 8003050:	6c1b      	ldr	r3, [r3, #64]	; 0x40
 8003052:	6878      	ldr	r0, [r7, #4]
 8003054:	4798      	blx	r3
 8003056:	e01f      	b.n	8003098 <HAL_DMA_IRQHandler+0x170>
          }
        }
        /* Current memory buffer used is Memory 1 */
        else
        {
          if(hdma->XferM1HalfCpltCallback != NULL)
 8003058:	687b      	ldr	r3, [r7, #4]
 800305a:	6c9b      	ldr	r3, [r3, #72]	; 0x48
 800305c:	2b00      	cmp	r3, #0
 800305e:	d01b      	beq.n	8003098 <HAL_DMA_IRQHandler+0x170>
          {
            /* Half transfer callback */
            hdma->XferM1HalfCpltCallback(hdma);
 8003060:	687b      	ldr	r3, [r7, #4]
 8003062:	6c9b      	ldr	r3, [r3, #72]	; 0x48
 8003064:	6878      	ldr	r0, [r7, #4]
 8003066:	4798      	blx	r3
 8003068:	e016      	b.n	8003098 <HAL_DMA_IRQHandler+0x170>
        }
      }
      else
      {
        /* Disable the half transfer interrupt if the DMA mode is not CIRCULAR */
        if((hdma->Instance->CR & DMA_SxCR_CIRC) == RESET)
 800306a:	687b      	ldr	r3, [r7, #4]
 800306c:	681b      	ldr	r3, [r3, #0]
 800306e:	681b      	ldr	r3, [r3, #0]
 8003070:	f403 7380 	and.w	r3, r3, #256	; 0x100
 8003074:	2b00      	cmp	r3, #0
 8003076:	d107      	bne.n	8003088 <HAL_DMA_IRQHandler+0x160>
        {
          /* Disable the half transfer interrupt */
          hdma->Instance->CR  &= ~(DMA_IT_HT);
 8003078:	687b      	ldr	r3, [r7, #4]
 800307a:	681b      	ldr	r3, [r3, #0]
 800307c:	681a      	ldr	r2, [r3, #0]
 800307e:	687b      	ldr	r3, [r7, #4]
 8003080:	681b      	ldr	r3, [r3, #0]
 8003082:	f022 0208 	bic.w	r2, r2, #8
 8003086:	601a      	str	r2, [r3, #0]
        }
        
        if(hdma->XferHalfCpltCallback != NULL)
 8003088:	687b      	ldr	r3, [r7, #4]
 800308a:	6c1b      	ldr	r3, [r3, #64]	; 0x40
 800308c:	2b00      	cmp	r3, #0
 800308e:	d003      	beq.n	8003098 <HAL_DMA_IRQHandler+0x170>
        {
          /* Half transfer callback */
          hdma->XferHalfCpltCallback(hdma);
 8003090:	687b      	ldr	r3, [r7, #4]
 8003092:	6c1b      	ldr	r3, [r3, #64]	; 0x40
 8003094:	6878      	ldr	r0, [r7, #4]
 8003096:	4798      	blx	r3
        }
      }
    }
  }
  /* Transfer Complete Interrupt management ***********************************/
  if ((tmpisr & (DMA_FLAG_TCIF0_4 << hdma->StreamIndex)) != RESET)
 8003098:	687b      	ldr	r3, [r7, #4]
 800309a:	6ddb      	ldr	r3, [r3, #92]	; 0x5c
 800309c:	2220      	movs	r2, #32
 800309e:	409a      	lsls	r2, r3
 80030a0:	68fb      	ldr	r3, [r7, #12]
 80030a2:	4013      	ands	r3, r2
 80030a4:	2b00      	cmp	r3, #0
 80030a6:	f000 808f 	beq.w	80031c8 <HAL_DMA_IRQHandler+0x2a0>
  {
    if(__HAL_DMA_GET_IT_SOURCE(hdma, DMA_IT_TC) != RESET)
 80030aa:	687b      	ldr	r3, [r7, #4]
 80030ac:	681b      	ldr	r3, [r3, #0]
 80030ae:	681b      	ldr	r3, [r3, #0]
 80030b0:	f003 0310 	and.w	r3, r3, #16
 80030b4:	2b00      	cmp	r3, #0
 80030b6:	f000 8087 	beq.w	80031c8 <HAL_DMA_IRQHandler+0x2a0>
    {
      /* Clear the transfer complete flag */
      regs->IFCR = DMA_FLAG_TCIF0_4 << hdma->StreamIndex;
 80030ba:	687b      	ldr	r3, [r7, #4]
 80030bc:	6ddb      	ldr	r3, [r3, #92]	; 0x5c
 80030be:	2220      	movs	r2, #32
 80030c0:	409a      	lsls	r2, r3
 80030c2:	693b      	ldr	r3, [r7, #16]
 80030c4:	609a      	str	r2, [r3, #8]
      
      if(HAL_DMA_STATE_ABORT == hdma->State)
 80030c6:	687b      	ldr	r3, [r7, #4]
 80030c8:	f893 3035 	ldrb.w	r3, [r3, #53]	; 0x35
 80030cc:	b2db      	uxtb	r3, r3
 80030ce:	2b05      	cmp	r3, #5
 80030d0:	d136      	bne.n	8003140 <HAL_DMA_IRQHandler+0x218>
      {
        /* Disable all the transfer interrupts */
        hdma->Instance->CR  &= ~(DMA_IT_TC | DMA_IT_TE | DMA_IT_DME);
 80030d2:	687b      	ldr	r3, [r7, #4]
 80030d4:	681b      	ldr	r3, [r3, #0]
 80030d6:	681a      	ldr	r2, [r3, #0]
 80030d8:	687b      	ldr	r3, [r7, #4]
 80030da:	681b      	ldr	r3, [r3, #0]
 80030dc:	f022 0216 	bic.w	r2, r2, #22
 80030e0:	601a      	str	r2, [r3, #0]
        hdma->Instance->FCR &= ~(DMA_IT_FE);
 80030e2:	687b      	ldr	r3, [r7, #4]
 80030e4:	681b      	ldr	r3, [r3, #0]
 80030e6:	695a      	ldr	r2, [r3, #20]
 80030e8:	687b      	ldr	r3, [r7, #4]
 80030ea:	681b      	ldr	r3, [r3, #0]
 80030ec:	f022 0280 	bic.w	r2, r2, #128	; 0x80
 80030f0:	615a      	str	r2, [r3, #20]
        
        if((hdma->XferHalfCpltCallback != NULL) || (hdma->XferM1HalfCpltCallback != NULL))
 80030f2:	687b      	ldr	r3, [r7, #4]
 80030f4:	6c1b      	ldr	r3, [r3, #64]	; 0x40
 80030f6:	2b00      	cmp	r3, #0
 80030f8:	d103      	bne.n	8003102 <HAL_DMA_IRQHandler+0x1da>
 80030fa:	687b      	ldr	r3, [r7, #4]
 80030fc:	6c9b      	ldr	r3, [r3, #72]	; 0x48
 80030fe:	2b00      	cmp	r3, #0
 8003100:	d007      	beq.n	8003112 <HAL_DMA_IRQHandler+0x1ea>
        {
          hdma->Instance->CR  &= ~(DMA_IT_HT);
 8003102:	687b      	ldr	r3, [r7, #4]
 8003104:	681b      	ldr	r3, [r3, #0]
 8003106:	681a      	ldr	r2, [r3, #0]
 8003108:	687b      	ldr	r3, [r7, #4]
 800310a:	681b      	ldr	r3, [r3, #0]
 800310c:	f022 0208 	bic.w	r2, r2, #8
 8003110:	601a      	str	r2, [r3, #0]
        }

        /* Clear all interrupt flags at correct offset within the register */
        regs->IFCR = 0x3FU << hdma->StreamIndex;
 8003112:	687b      	ldr	r3, [r7, #4]
 8003114:	6ddb      	ldr	r3, [r3, #92]	; 0x5c
 8003116:	223f      	movs	r2, #63	; 0x3f
 8003118:	409a      	lsls	r2, r3
 800311a:	693b      	ldr	r3, [r7, #16]
 800311c:	609a      	str	r2, [r3, #8]

        /* Change the DMA state */
        hdma->State = HAL_DMA_STATE_READY;
 800311e:	687b      	ldr	r3, [r7, #4]
 8003120:	2201      	movs	r2, #1
 8003122:	f883 2035 	strb.w	r2, [r3, #53]	; 0x35

        /* Process Unlocked */
        __HAL_UNLOCK(hdma);
 8003126:	687b      	ldr	r3, [r7, #4]
 8003128:	2200      	movs	r2, #0
 800312a:	f883 2034 	strb.w	r2, [r3, #52]	; 0x34

        if(hdma->XferAbortCallback != NULL)
 800312e:	687b      	ldr	r3, [r7, #4]
 8003130:	6d1b      	ldr	r3, [r3, #80]	; 0x50
 8003132:	2b00      	cmp	r3, #0
 8003134:	d07e      	beq.n	8003234 <HAL_DMA_IRQHandler+0x30c>
        {
          hdma->XferAbortCallback(hdma);
 8003136:	687b      	ldr	r3, [r7, #4]
 8003138:	6d1b      	ldr	r3, [r3, #80]	; 0x50
 800313a:	6878      	ldr	r0, [r7, #4]
 800313c:	4798      	blx	r3
        }
        return;
 800313e:	e079      	b.n	8003234 <HAL_DMA_IRQHandler+0x30c>
      }

      if(((hdma->Instance->CR) & (uint32_t)(DMA_SxCR_DBM)) != RESET)
 8003140:	687b      	ldr	r3, [r7, #4]
 8003142:	681b      	ldr	r3, [r3, #0]
 8003144:	681b      	ldr	r3, [r3, #0]
 8003146:	f403 2380 	and.w	r3, r3, #262144	; 0x40000
 800314a:	2b00      	cmp	r3, #0
 800314c:	d01d      	beq.n	800318a <HAL_DMA_IRQHandler+0x262>
      {
        /* Current memory buffer used is Memory 0 */
        if((hdma->Instance->CR & DMA_SxCR_CT) == RESET)
 800314e:	687b      	ldr	r3, [r7, #4]
 8003150:	681b      	ldr	r3, [r3, #0]
 8003152:	681b      	ldr	r3, [r3, #0]
 8003154:	f403 2300 	and.w	r3, r3, #524288	; 0x80000
 8003158:	2b00      	cmp	r3, #0
 800315a:	d10d      	bne.n	8003178 <HAL_DMA_IRQHandler+0x250>
        {
          if(hdma->XferM1CpltCallback != NULL)
 800315c:	687b      	ldr	r3, [r7, #4]
 800315e:	6c5b      	ldr	r3, [r3, #68]	; 0x44
 8003160:	2b00      	cmp	r3, #0
 8003162:	d031      	beq.n	80031c8 <HAL_DMA_IRQHandler+0x2a0>
          {
            /* Transfer complete Callback for memory1 */
            hdma->XferM1CpltCallback(hdma);
 8003164:	687b      	ldr	r3, [r7, #4]
 8003166:	6c5b      	ldr	r3, [r3, #68]	; 0x44
 8003168:	6878      	ldr	r0, [r7, #4]
 800316a:	4798      	blx	r3
 800316c:	e02c      	b.n	80031c8 <HAL_DMA_IRQHandler+0x2a0>
 800316e:	bf00      	nop
 8003170:	2000000c 	.word	0x2000000c
 8003174:	1b4e81b5 	.word	0x1b4e81b5
          }
        }
        /* Current memory buffer used is Memory 1 */
        else
        {
          if(hdma->XferCpltCallback != NULL)
 8003178:	687b      	ldr	r3, [r7, #4]
 800317a:	6bdb      	ldr	r3, [r3, #60]	; 0x3c
 800317c:	2b00      	cmp	r3, #0
 800317e:	d023      	beq.n	80031c8 <HAL_DMA_IRQHandler+0x2a0>
          {
            /* Transfer complete Callback for memory0 */
            hdma->XferCpltCallback(hdma);
 8003180:	687b      	ldr	r3, [r7, #4]
 8003182:	6bdb      	ldr	r3, [r3, #60]	; 0x3c
 8003184:	6878      	ldr	r0, [r7, #4]
 8003186:	4798      	blx	r3
 8003188:	e01e      	b.n	80031c8 <HAL_DMA_IRQHandler+0x2a0>
        }
      }
      /* Disable the transfer complete interrupt if the DMA mode is not CIRCULAR */
      else
      {
        if((hdma->Instance->CR & DMA_SxCR_CIRC) == RESET)
 800318a:	687b      	ldr	r3, [r7, #4]
 800318c:	681b      	ldr	r3, [r3, #0]
 800318e:	681b      	ldr	r3, [r3, #0]
 8003190:	f403 7380 	and.w	r3, r3, #256	; 0x100
 8003194:	2b00      	cmp	r3, #0
 8003196:	d10f      	bne.n	80031b8 <HAL_DMA_IRQHandler+0x290>
        {
          /* Disable the transfer complete interrupt */
          hdma->Instance->CR  &= ~(DMA_IT_TC);
 8003198:	687b      	ldr	r3, [r7, #4]
 800319a:	681b      	ldr	r3, [r3, #0]
 800319c:	681a      	ldr	r2, [r3, #0]
 800319e:	687b      	ldr	r3, [r7, #4]
 80031a0:	681b      	ldr	r3, [r3, #0]
 80031a2:	f022 0210 	bic.w	r2, r2, #16
 80031a6:	601a      	str	r2, [r3, #0]

          /* Change the DMA state */
          hdma->State = HAL_DMA_STATE_READY;
 80031a8:	687b      	ldr	r3, [r7, #4]
 80031aa:	2201      	movs	r2, #1
 80031ac:	f883 2035 	strb.w	r2, [r3, #53]	; 0x35

          /* Process Unlocked */
          __HAL_UNLOCK(hdma);
 80031b0:	687b      	ldr	r3, [r7, #4]
 80031b2:	2200      	movs	r2, #0
 80031b4:	f883 2034 	strb.w	r2, [r3, #52]	; 0x34
        }

        if(hdma->XferCpltCallback != NULL)
 80031b8:	687b      	ldr	r3, [r7, #4]
 80031ba:	6bdb      	ldr	r3, [r3, #60]	; 0x3c
 80031bc:	2b00      	cmp	r3, #0
 80031be:	d003      	beq.n	80031c8 <HAL_DMA_IRQHandler+0x2a0>
        {
          /* Transfer complete callback */
          hdma->XferCpltCallback(hdma);
 80031c0:	687b      	ldr	r3, [r7, #4]
 80031c2:	6bdb      	ldr	r3, [r3, #60]	; 0x3c
 80031c4:	6878      	ldr	r0, [r7, #4]
 80031c6:	4798      	blx	r3
      }
    }
  }
  
  /* manage error case */
  if(hdma->ErrorCode != HAL_DMA_ERROR_NONE)
 80031c8:	687b      	ldr	r3, [r7, #4]
 80031ca:	6d5b      	ldr	r3, [r3, #84]	; 0x54
 80031cc:	2b00      	cmp	r3, #0
 80031ce:	d032      	beq.n	8003236 <HAL_DMA_IRQHandler+0x30e>
  {
    if((hdma->ErrorCode & HAL_DMA_ERROR_TE) != RESET)
 80031d0:	687b      	ldr	r3, [r7, #4]
 80031d2:	6d5b      	ldr	r3, [r3, #84]	; 0x54
 80031d4:	f003 0301 	and.w	r3, r3, #1
 80031d8:	2b00      	cmp	r3, #0
 80031da:	d022      	beq.n	8003222 <HAL_DMA_IRQHandler+0x2fa>
    {
      hdma->State = HAL_DMA_STATE_ABORT;
 80031dc:	687b      	ldr	r3, [r7, #4]
 80031de:	2205      	movs	r2, #5
 80031e0:	f883 2035 	strb.w	r2, [r3, #53]	; 0x35

      /* Disable the stream */
      __HAL_DMA_DISABLE(hdma);
 80031e4:	687b      	ldr	r3, [r7, #4]
 80031e6:	681b      	ldr	r3, [r3, #0]
 80031e8:	681a      	ldr	r2, [r3, #0]
 80031ea:	687b      	ldr	r3, [r7, #4]
 80031ec:	681b      	ldr	r3, [r3, #0]
 80031ee:	f022 0201 	bic.w	r2, r2, #1
 80031f2:	601a      	str	r2, [r3, #0]

      do
      {
        if (++count > timeout)
 80031f4:	68bb      	ldr	r3, [r7, #8]
 80031f6:	3301      	adds	r3, #1
 80031f8:	60bb      	str	r3, [r7, #8]
 80031fa:	697a      	ldr	r2, [r7, #20]
 80031fc:	429a      	cmp	r2, r3
 80031fe:	d307      	bcc.n	8003210 <HAL_DMA_IRQHandler+0x2e8>
        {
          break;
        }
      }
      while((hdma->Instance->CR & DMA_SxCR_EN) != RESET);
 8003200:	687b      	ldr	r3, [r7, #4]
 8003202:	681b      	ldr	r3, [r3, #0]
 8003204:	681b      	ldr	r3, [r3, #0]
 8003206:	f003 0301 	and.w	r3, r3, #1
 800320a:	2b00      	cmp	r3, #0
 800320c:	d1f2      	bne.n	80031f4 <HAL_DMA_IRQHandler+0x2cc>
 800320e:	e000      	b.n	8003212 <HAL_DMA_IRQHandler+0x2ea>
          break;
 8003210:	bf00      	nop

      /* Change the DMA state */
      hdma->State = HAL_DMA_STATE_READY;
 8003212:	687b      	ldr	r3, [r7, #4]
 8003214:	2201      	movs	r2, #1
 8003216:	f883 2035 	strb.w	r2, [r3, #53]	; 0x35

      /* Process Unlocked */
      __HAL_UNLOCK(hdma);
 800321a:	687b      	ldr	r3, [r7, #4]
 800321c:	2200      	movs	r2, #0
 800321e:	f883 2034 	strb.w	r2, [r3, #52]	; 0x34
    }

    if(hdma->XferErrorCallback != NULL)
 8003222:	687b      	ldr	r3, [r7, #4]
 8003224:	6cdb      	ldr	r3, [r3, #76]	; 0x4c
 8003226:	2b00      	cmp	r3, #0
 8003228:	d005      	beq.n	8003236 <HAL_DMA_IRQHandler+0x30e>
    {
      /* Transfer error callback */
      hdma->XferErrorCallback(hdma);
 800322a:	687b      	ldr	r3, [r7, #4]
 800322c:	6cdb      	ldr	r3, [r3, #76]	; 0x4c
 800322e:	6878      	ldr	r0, [r7, #4]
 8003230:	4798      	blx	r3
 8003232:	e000      	b.n	8003236 <HAL_DMA_IRQHandler+0x30e>
        return;
 8003234:	bf00      	nop
    }
  }
}
 8003236:	3718      	adds	r7, #24
 8003238:	46bd      	mov	sp, r7
 800323a:	bd80      	pop	{r7, pc}

0800323c <DMA_SetConfig>:
  * @param  DstAddress The destination memory Buffer address
  * @param  DataLength The length of data to be transferred from source to destination
  * @retval HAL status
  */
static void DMA_SetConfig(DMA_HandleTypeDef *hdma, uint32_t SrcAddress, uint32_t DstAddress, uint32_t DataLength)
{
 800323c:	b480      	push	{r7}
 800323e:	b085      	sub	sp, #20
 8003240:	af00      	add	r7, sp, #0
 8003242:	60f8      	str	r0, [r7, #12]
 8003244:	60b9      	str	r1, [r7, #8]
 8003246:	607a      	str	r2, [r7, #4]
 8003248:	603b      	str	r3, [r7, #0]
  /* Clear DBM bit */
  hdma->Instance->CR &= (uint32_t)(~DMA_SxCR_DBM);
 800324a:	68fb      	ldr	r3, [r7, #12]
 800324c:	681b      	ldr	r3, [r3, #0]
 800324e:	681a      	ldr	r2, [r3, #0]
 8003250:	68fb      	ldr	r3, [r7, #12]
 8003252:	681b      	ldr	r3, [r3, #0]
 8003254:	f422 2280 	bic.w	r2, r2, #262144	; 0x40000
 8003258:	601a      	str	r2, [r3, #0]

  /* Configure DMA Stream data length */
  hdma->Instance->NDTR = DataLength;
 800325a:	68fb      	ldr	r3, [r7, #12]
 800325c:	681b      	ldr	r3, [r3, #0]
 800325e:	683a      	ldr	r2, [r7, #0]
 8003260:	605a      	str	r2, [r3, #4]

  /* Memory to Peripheral */
  if((hdma->Init.Direction) == DMA_MEMORY_TO_PERIPH)
 8003262:	68fb      	ldr	r3, [r7, #12]
 8003264:	689b      	ldr	r3, [r3, #8]
 8003266:	2b40      	cmp	r3, #64	; 0x40
 8003268:	d108      	bne.n	800327c <DMA_SetConfig+0x40>
  {
    /* Configure DMA Stream destination address */
    hdma->Instance->PAR = DstAddress;
 800326a:	68fb      	ldr	r3, [r7, #12]
 800326c:	681b      	ldr	r3, [r3, #0]
 800326e:	687a      	ldr	r2, [r7, #4]
 8003270:	609a      	str	r2, [r3, #8]

    /* Configure DMA Stream source address */
    hdma->Instance->M0AR = SrcAddress;
 8003272:	68fb      	ldr	r3, [r7, #12]
 8003274:	681b      	ldr	r3, [r3, #0]
 8003276:	68ba      	ldr	r2, [r7, #8]
 8003278:	60da      	str	r2, [r3, #12]
    hdma->Instance->PAR = SrcAddress;

    /* Configure DMA Stream destination address */
    hdma->Instance->M0AR = DstAddress;
  }
}
 800327a:	e007      	b.n	800328c <DMA_SetConfig+0x50>
    hdma->Instance->PAR = SrcAddress;
 800327c:	68fb      	ldr	r3, [r7, #12]
 800327e:	681b      	ldr	r3, [r3, #0]
 8003280:	68ba      	ldr	r2, [r7, #8]
 8003282:	609a      	str	r2, [r3, #8]
    hdma->Instance->M0AR = DstAddress;
 8003284:	68fb      	ldr	r3, [r7, #12]
 8003286:	681b      	ldr	r3, [r3, #0]
 8003288:	687a      	ldr	r2, [r7, #4]
 800328a:	60da      	str	r2, [r3, #12]
}
 800328c:	bf00      	nop
 800328e:	3714      	adds	r7, #20
 8003290:	46bd      	mov	sp, r7
 8003292:	f85d 7b04 	ldr.w	r7, [sp], #4
 8003296:	4770      	bx	lr

08003298 <DMA_CalcBaseAndBitshift>:
  * @param  hdma       pointer to a DMA_HandleTypeDef structure that contains
  *                     the configuration information for the specified DMA Stream. 
  * @retval Stream base address
  */
static uint32_t DMA_CalcBaseAndBitshift(DMA_HandleTypeDef *hdma)
{
 8003298:	b480      	push	{r7}
 800329a:	b085      	sub	sp, #20
 800329c:	af00      	add	r7, sp, #0
 800329e:	6078      	str	r0, [r7, #4]
  uint32_t stream_number = (((uint32_t)hdma->Instance & 0xFFU) - 16U) / 24U;
 80032a0:	687b      	ldr	r3, [r7, #4]
 80032a2:	681b      	ldr	r3, [r3, #0]
 80032a4:	b2db      	uxtb	r3, r3
 80032a6:	3b10      	subs	r3, #16
 80032a8:	4a14      	ldr	r2, [pc, #80]	; (80032fc <DMA_CalcBaseAndBitshift+0x64>)
 80032aa:	fba2 2303 	umull	r2, r3, r2, r3
 80032ae:	091b      	lsrs	r3, r3, #4
 80032b0:	60fb      	str	r3, [r7, #12]
  
  /* lookup table for necessary bitshift of flags within status registers */
  static const uint8_t flagBitshiftOffset[8U] = {0U, 6U, 16U, 22U, 0U, 6U, 16U, 22U};
  hdma->StreamIndex = flagBitshiftOffset[stream_number];
 80032b2:	4a13      	ldr	r2, [pc, #76]	; (8003300 <DMA_CalcBaseAndBitshift+0x68>)
 80032b4:	68fb      	ldr	r3, [r7, #12]
 80032b6:	4413      	add	r3, r2
 80032b8:	781b      	ldrb	r3, [r3, #0]
 80032ba:	461a      	mov	r2, r3
 80032bc:	687b      	ldr	r3, [r7, #4]
 80032be:	65da      	str	r2, [r3, #92]	; 0x5c
  
  if (stream_number > 3U)
 80032c0:	68fb      	ldr	r3, [r7, #12]
 80032c2:	2b03      	cmp	r3, #3
 80032c4:	d909      	bls.n	80032da <DMA_CalcBaseAndBitshift+0x42>
  {
    /* return pointer to HISR and HIFCR */
    hdma->StreamBaseAddress = (((uint32_t)hdma->Instance & (uint32_t)(~0x3FFU)) + 4U);
 80032c6:	687b      	ldr	r3, [r7, #4]
 80032c8:	681b      	ldr	r3, [r3, #0]
 80032ca:	f423 737f 	bic.w	r3, r3, #1020	; 0x3fc
 80032ce:	f023 0303 	bic.w	r3, r3, #3
 80032d2:	1d1a      	adds	r2, r3, #4
 80032d4:	687b      	ldr	r3, [r7, #4]
 80032d6:	659a      	str	r2, [r3, #88]	; 0x58
 80032d8:	e007      	b.n	80032ea <DMA_CalcBaseAndBitshift+0x52>
  }
  else
  {
    /* return pointer to LISR and LIFCR */
    hdma->StreamBaseAddress = ((uint32_t)hdma->Instance & (uint32_t)(~0x3FFU));
 80032da:	687b      	ldr	r3, [r7, #4]
 80032dc:	681b      	ldr	r3, [r3, #0]
 80032de:	f423 737f 	bic.w	r3, r3, #1020	; 0x3fc
 80032e2:	f023 0303 	bic.w	r3, r3, #3
 80032e6:	687a      	ldr	r2, [r7, #4]
 80032e8:	6593      	str	r3, [r2, #88]	; 0x58
  }
  
  return hdma->StreamBaseAddress;
 80032ea:	687b      	ldr	r3, [r7, #4]
 80032ec:	6d9b      	ldr	r3, [r3, #88]	; 0x58
}
 80032ee:	4618      	mov	r0, r3
 80032f0:	3714      	adds	r7, #20
 80032f2:	46bd      	mov	sp, r7
 80032f4:	f85d 7b04 	ldr.w	r7, [sp], #4
 80032f8:	4770      	bx	lr
 80032fa:	bf00      	nop
 80032fc:	aaaaaaab 	.word	0xaaaaaaab
 8003300:	08008cc4 	.word	0x08008cc4

08003304 <DMA_CheckFifoParam>:
  * @param  hdma       pointer to a DMA_HandleTypeDef structure that contains
  *                     the configuration information for the specified DMA Stream. 
  * @retval HAL status
  */
static HAL_StatusTypeDef DMA_CheckFifoParam(DMA_HandleTypeDef *hdma)
{
 8003304:	b480      	push	{r7}
 8003306:	b085      	sub	sp, #20
 8003308:	af00      	add	r7, sp, #0
 800330a:	6078      	str	r0, [r7, #4]
  HAL_StatusTypeDef status = HAL_OK;
 800330c:	2300      	movs	r3, #0
 800330e:	73fb      	strb	r3, [r7, #15]
  uint32_t tmp = hdma->Init.FIFOThreshold;
 8003310:	687b      	ldr	r3, [r7, #4]
 8003312:	6a9b      	ldr	r3, [r3, #40]	; 0x28
 8003314:	60bb      	str	r3, [r7, #8]
  
  /* Memory Data size equal to Byte */
  if(hdma->Init.MemDataAlignment == DMA_MDATAALIGN_BYTE)
 8003316:	687b      	ldr	r3, [r7, #4]
 8003318:	699b      	ldr	r3, [r3, #24]
 800331a:	2b00      	cmp	r3, #0
 800331c:	d11f      	bne.n	800335e <DMA_CheckFifoParam+0x5a>
  {
    switch (tmp)
 800331e:	68bb      	ldr	r3, [r7, #8]
 8003320:	2b03      	cmp	r3, #3
 8003322:	d856      	bhi.n	80033d2 <DMA_CheckFifoParam+0xce>
 8003324:	a201      	add	r2, pc, #4	; (adr r2, 800332c <DMA_CheckFifoParam+0x28>)
 8003326:	f852 f023 	ldr.w	pc, [r2, r3, lsl #2]
 800332a:	bf00      	nop
 800332c:	0800333d 	.word	0x0800333d
 8003330:	0800334f 	.word	0x0800334f
 8003334:	0800333d 	.word	0x0800333d
 8003338:	080033d3 	.word	0x080033d3
    {
    case DMA_FIFO_THRESHOLD_1QUARTERFULL:
    case DMA_FIFO_THRESHOLD_3QUARTERSFULL:
      if ((hdma->Init.MemBurst & DMA_SxCR_MBURST_1) == DMA_SxCR_MBURST_1)
 800333c:	687b      	ldr	r3, [r7, #4]
 800333e:	6adb      	ldr	r3, [r3, #44]	; 0x2c
 8003340:	f003 7380 	and.w	r3, r3, #16777216	; 0x1000000
 8003344:	2b00      	cmp	r3, #0
 8003346:	d046      	beq.n	80033d6 <DMA_CheckFifoParam+0xd2>
      {
        status = HAL_ERROR;
 8003348:	2301      	movs	r3, #1
 800334a:	73fb      	strb	r3, [r7, #15]
      }
      break;
 800334c:	e043      	b.n	80033d6 <DMA_CheckFifoParam+0xd2>
    case DMA_FIFO_THRESHOLD_HALFFULL:
      if (hdma->Init.MemBurst == DMA_MBURST_INC16)
 800334e:	687b      	ldr	r3, [r7, #4]
 8003350:	6adb      	ldr	r3, [r3, #44]	; 0x2c
 8003352:	f1b3 7fc0 	cmp.w	r3, #25165824	; 0x1800000
 8003356:	d140      	bne.n	80033da <DMA_CheckFifoParam+0xd6>
      {
        status = HAL_ERROR;
 8003358:	2301      	movs	r3, #1
 800335a:	73fb      	strb	r3, [r7, #15]
      }
      break;
 800335c:	e03d      	b.n	80033da <DMA_CheckFifoParam+0xd6>
      break;
    }
  }
  
  /* Memory Data size equal to Half-Word */
  else if (hdma->Init.MemDataAlignment == DMA_MDATAALIGN_HALFWORD)
 800335e:	687b      	ldr	r3, [r7, #4]
 8003360:	699b      	ldr	r3, [r3, #24]
 8003362:	f5b3 5f00 	cmp.w	r3, #8192	; 0x2000
 8003366:	d121      	bne.n	80033ac <DMA_CheckFifoParam+0xa8>
  {
    switch (tmp)
 8003368:	68bb      	ldr	r3, [r7, #8]
 800336a:	2b03      	cmp	r3, #3
 800336c:	d837      	bhi.n	80033de <DMA_CheckFifoParam+0xda>
 800336e:	a201      	add	r2, pc, #4	; (adr r2, 8003374 <DMA_CheckFifoParam+0x70>)
 8003370:	f852 f023 	ldr.w	pc, [r2, r3, lsl #2]
 8003374:	08003385 	.word	0x08003385
 8003378:	0800338b 	.word	0x0800338b
 800337c:	08003385 	.word	0x08003385
 8003380:	0800339d 	.word	0x0800339d
    {
    case DMA_FIFO_THRESHOLD_1QUARTERFULL:
    case DMA_FIFO_THRESHOLD_3QUARTERSFULL:
      status = HAL_ERROR;
 8003384:	2301      	movs	r3, #1
 8003386:	73fb      	strb	r3, [r7, #15]
      break;
 8003388:	e030      	b.n	80033ec <DMA_CheckFifoParam+0xe8>
    case DMA_FIFO_THRESHOLD_HALFFULL:
      if ((hdma->Init.MemBurst & DMA_SxCR_MBURST_1) == DMA_SxCR_MBURST_1)
 800338a:	687b      	ldr	r3, [r7, #4]
 800338c:	6adb      	ldr	r3, [r3, #44]	; 0x2c
 800338e:	f003 7380 	and.w	r3, r3, #16777216	; 0x1000000
 8003392:	2b00      	cmp	r3, #0
 8003394:	d025      	beq.n	80033e2 <DMA_CheckFifoParam+0xde>
      {
        status = HAL_ERROR;
 8003396:	2301      	movs	r3, #1
 8003398:	73fb      	strb	r3, [r7, #15]
      }
      break;
 800339a:	e022      	b.n	80033e2 <DMA_CheckFifoParam+0xde>
    case DMA_FIFO_THRESHOLD_FULL:
      if (hdma->Init.MemBurst == DMA_MBURST_INC16)
 800339c:	687b      	ldr	r3, [r7, #4]
 800339e:	6adb      	ldr	r3, [r3, #44]	; 0x2c
 80033a0:	f1b3 7fc0 	cmp.w	r3, #25165824	; 0x1800000
 80033a4:	d11f      	bne.n	80033e6 <DMA_CheckFifoParam+0xe2>
      {
        status = HAL_ERROR;
 80033a6:	2301      	movs	r3, #1
 80033a8:	73fb      	strb	r3, [r7, #15]
      }
      break;   
 80033aa:	e01c      	b.n	80033e6 <DMA_CheckFifoParam+0xe2>
  }
  
  /* Memory Data size equal to Word */
  else
  {
    switch (tmp)
 80033ac:	68bb      	ldr	r3, [r7, #8]
 80033ae:	2b02      	cmp	r3, #2
 80033b0:	d903      	bls.n	80033ba <DMA_CheckFifoParam+0xb6>
 80033b2:	68bb      	ldr	r3, [r7, #8]
 80033b4:	2b03      	cmp	r3, #3
 80033b6:	d003      	beq.n	80033c0 <DMA_CheckFifoParam+0xbc>
      {
        status = HAL_ERROR;
      }
      break;
    default:
      break;
 80033b8:	e018      	b.n	80033ec <DMA_CheckFifoParam+0xe8>
      status = HAL_ERROR;
 80033ba:	2301      	movs	r3, #1
 80033bc:	73fb      	strb	r3, [r7, #15]
      break;
 80033be:	e015      	b.n	80033ec <DMA_CheckFifoParam+0xe8>
      if ((hdma->Init.MemBurst & DMA_SxCR_MBURST_1) == DMA_SxCR_MBURST_1)
 80033c0:	687b      	ldr	r3, [r7, #4]
 80033c2:	6adb      	ldr	r3, [r3, #44]	; 0x2c
 80033c4:	f003 7380 	and.w	r3, r3, #16777216	; 0x1000000
 80033c8:	2b00      	cmp	r3, #0
 80033ca:	d00e      	beq.n	80033ea <DMA_CheckFifoParam+0xe6>
        status = HAL_ERROR;
 80033cc:	2301      	movs	r3, #1
 80033ce:	73fb      	strb	r3, [r7, #15]
      break;
 80033d0:	e00b      	b.n	80033ea <DMA_CheckFifoParam+0xe6>
      break;
 80033d2:	bf00      	nop
 80033d4:	e00a      	b.n	80033ec <DMA_CheckFifoParam+0xe8>
      break;
 80033d6:	bf00      	nop
 80033d8:	e008      	b.n	80033ec <DMA_CheckFifoParam+0xe8>
      break;
 80033da:	bf00      	nop
 80033dc:	e006      	b.n	80033ec <DMA_CheckFifoParam+0xe8>
      break;
 80033de:	bf00      	nop
 80033e0:	e004      	b.n	80033ec <DMA_CheckFifoParam+0xe8>
      break;
 80033e2:	bf00      	nop
 80033e4:	e002      	b.n	80033ec <DMA_CheckFifoParam+0xe8>
      break;   
 80033e6:	bf00      	nop
 80033e8:	e000      	b.n	80033ec <DMA_CheckFifoParam+0xe8>
      break;
 80033ea:	bf00      	nop
    }
  } 
  
  return status; 
 80033ec:	7bfb      	ldrb	r3, [r7, #15]
}
 80033ee:	4618      	mov	r0, r3
 80033f0:	3714      	adds	r7, #20
 80033f2:	46bd      	mov	sp, r7
 80033f4:	f85d 7b04 	ldr.w	r7, [sp], #4
 80033f8:	4770      	bx	lr
 80033fa:	bf00      	nop

080033fc <HAL_GPIO_Init>:
  * @param  GPIO_Init pointer to a GPIO_InitTypeDef structure that contains
  *         the configuration information for the specified GPIO peripheral.
  * @retval None
  */
void HAL_GPIO_Init(GPIO_TypeDef  *GPIOx, GPIO_InitTypeDef *GPIO_Init)
{
 80033fc:	b480      	push	{r7}
 80033fe:	b089      	sub	sp, #36	; 0x24
 8003400:	af00      	add	r7, sp, #0
 8003402:	6078      	str	r0, [r7, #4]
 8003404:	6039      	str	r1, [r7, #0]
  uint32_t position;
  uint32_t ioposition = 0x00U;
 8003406:	2300      	movs	r3, #0
 8003408:	617b      	str	r3, [r7, #20]
  uint32_t iocurrent = 0x00U;
 800340a:	2300      	movs	r3, #0
 800340c:	613b      	str	r3, [r7, #16]
  uint32_t temp = 0x00U;
 800340e:	2300      	movs	r3, #0
 8003410:	61bb      	str	r3, [r7, #24]
  assert_param(IS_GPIO_ALL_INSTANCE(GPIOx));
  assert_param(IS_GPIO_PIN(GPIO_Init->Pin));
  assert_param(IS_GPIO_MODE(GPIO_Init->Mode));

  /* Configure the port pins */
  for(position = 0U; position < GPIO_NUMBER; position++)
 8003412:	2300      	movs	r3, #0
 8003414:	61fb      	str	r3, [r7, #28]
 8003416:	e165      	b.n	80036e4 <HAL_GPIO_Init+0x2e8>
  {
    /* Get the IO position */
    ioposition = 0x01U << position;
 8003418:	2201      	movs	r2, #1
 800341a:	69fb      	ldr	r3, [r7, #28]
 800341c:	fa02 f303 	lsl.w	r3, r2, r3
 8003420:	617b      	str	r3, [r7, #20]
    /* Get the current IO position */
    iocurrent = (uint32_t)(GPIO_Init->Pin) & ioposition;
 8003422:	683b      	ldr	r3, [r7, #0]
 8003424:	681b      	ldr	r3, [r3, #0]
 8003426:	697a      	ldr	r2, [r7, #20]
 8003428:	4013      	ands	r3, r2
 800342a:	613b      	str	r3, [r7, #16]

    if(iocurrent == ioposition)
 800342c:	693a      	ldr	r2, [r7, #16]
 800342e:	697b      	ldr	r3, [r7, #20]
 8003430:	429a      	cmp	r2, r3
 8003432:	f040 8154 	bne.w	80036de <HAL_GPIO_Init+0x2e2>
    {
      /*--------------------- GPIO Mode Configuration ------------------------*/
      /* In case of Output or Alternate function mode selection */
      if(((GPIO_Init->Mode & GPIO_MODE) == MODE_OUTPUT) || \
 8003436:	683b      	ldr	r3, [r7, #0]
 8003438:	685b      	ldr	r3, [r3, #4]
 800343a:	f003 0303 	and.w	r3, r3, #3
 800343e:	2b01      	cmp	r3, #1
 8003440:	d005      	beq.n	800344e <HAL_GPIO_Init+0x52>
          (GPIO_Init->Mode & GPIO_MODE) == MODE_AF)
 8003442:	683b      	ldr	r3, [r7, #0]
 8003444:	685b      	ldr	r3, [r3, #4]
 8003446:	f003 0303 	and.w	r3, r3, #3
      if(((GPIO_Init->Mode & GPIO_MODE) == MODE_OUTPUT) || \
 800344a:	2b02      	cmp	r3, #2
 800344c:	d130      	bne.n	80034b0 <HAL_GPIO_Init+0xb4>
      {
        /* Check the Speed parameter */
        assert_param(IS_GPIO_SPEED(GPIO_Init->Speed));
        /* Configure the IO Speed */
        temp = GPIOx->OSPEEDR; 
 800344e:	687b      	ldr	r3, [r7, #4]
 8003450:	689b      	ldr	r3, [r3, #8]
 8003452:	61bb      	str	r3, [r7, #24]
        temp &= ~(GPIO_OSPEEDER_OSPEEDR0 << (position * 2U));
 8003454:	69fb      	ldr	r3, [r7, #28]
 8003456:	005b      	lsls	r3, r3, #1
 8003458:	2203      	movs	r2, #3
 800345a:	fa02 f303 	lsl.w	r3, r2, r3
 800345e:	43db      	mvns	r3, r3
 8003460:	69ba      	ldr	r2, [r7, #24]
 8003462:	4013      	ands	r3, r2
 8003464:	61bb      	str	r3, [r7, #24]
        temp |= (GPIO_Init->Speed << (position * 2U));
 8003466:	683b      	ldr	r3, [r7, #0]
 8003468:	68da      	ldr	r2, [r3, #12]
 800346a:	69fb      	ldr	r3, [r7, #28]
 800346c:	005b      	lsls	r3, r3, #1
 800346e:	fa02 f303 	lsl.w	r3, r2, r3
 8003472:	69ba      	ldr	r2, [r7, #24]
 8003474:	4313      	orrs	r3, r2
 8003476:	61bb      	str	r3, [r7, #24]
        GPIOx->OSPEEDR = temp;
 8003478:	687b      	ldr	r3, [r7, #4]
 800347a:	69ba      	ldr	r2, [r7, #24]
 800347c:	609a      	str	r2, [r3, #8]

        /* Configure the IO Output Type */
        temp = GPIOx->OTYPER;
 800347e:	687b      	ldr	r3, [r7, #4]
 8003480:	685b      	ldr	r3, [r3, #4]
 8003482:	61bb      	str	r3, [r7, #24]
        temp &= ~(GPIO_OTYPER_OT_0 << position) ;
 8003484:	2201      	movs	r2, #1
 8003486:	69fb      	ldr	r3, [r7, #28]
 8003488:	fa02 f303 	lsl.w	r3, r2, r3
 800348c:	43db      	mvns	r3, r3
 800348e:	69ba      	ldr	r2, [r7, #24]
 8003490:	4013      	ands	r3, r2
 8003492:	61bb      	str	r3, [r7, #24]
        temp |= (((GPIO_Init->Mode & OUTPUT_TYPE) >> OUTPUT_TYPE_Pos) << position);
 8003494:	683b      	ldr	r3, [r7, #0]
 8003496:	685b      	ldr	r3, [r3, #4]
 8003498:	091b      	lsrs	r3, r3, #4
 800349a:	f003 0201 	and.w	r2, r3, #1
 800349e:	69fb      	ldr	r3, [r7, #28]
 80034a0:	fa02 f303 	lsl.w	r3, r2, r3
 80034a4:	69ba      	ldr	r2, [r7, #24]
 80034a6:	4313      	orrs	r3, r2
 80034a8:	61bb      	str	r3, [r7, #24]
        GPIOx->OTYPER = temp;
 80034aa:	687b      	ldr	r3, [r7, #4]
 80034ac:	69ba      	ldr	r2, [r7, #24]
 80034ae:	605a      	str	r2, [r3, #4]
       }

      if((GPIO_Init->Mode & GPIO_MODE) != MODE_ANALOG)
 80034b0:	683b      	ldr	r3, [r7, #0]
 80034b2:	685b      	ldr	r3, [r3, #4]
 80034b4:	f003 0303 	and.w	r3, r3, #3
 80034b8:	2b03      	cmp	r3, #3
 80034ba:	d017      	beq.n	80034ec <HAL_GPIO_Init+0xf0>
      {
        /* Check the parameters */
        assert_param(IS_GPIO_PULL(GPIO_Init->Pull));
        
        /* Activate the Pull-up or Pull down resistor for the current IO */
        temp = GPIOx->PUPDR;
 80034bc:	687b      	ldr	r3, [r7, #4]
 80034be:	68db      	ldr	r3, [r3, #12]
 80034c0:	61bb      	str	r3, [r7, #24]
        temp &= ~(GPIO_PUPDR_PUPDR0 << (position * 2U));
 80034c2:	69fb      	ldr	r3, [r7, #28]
 80034c4:	005b      	lsls	r3, r3, #1
 80034c6:	2203      	movs	r2, #3
 80034c8:	fa02 f303 	lsl.w	r3, r2, r3
 80034cc:	43db      	mvns	r3, r3
 80034ce:	69ba      	ldr	r2, [r7, #24]
 80034d0:	4013      	ands	r3, r2
 80034d2:	61bb      	str	r3, [r7, #24]
        temp |= ((GPIO_Init->Pull) << (position * 2U));
 80034d4:	683b      	ldr	r3, [r7, #0]
 80034d6:	689a      	ldr	r2, [r3, #8]
 80034d8:	69fb      	ldr	r3, [r7, #28]
 80034da:	005b      	lsls	r3, r3, #1
 80034dc:	fa02 f303 	lsl.w	r3, r2, r3
 80034e0:	69ba      	ldr	r2, [r7, #24]
 80034e2:	4313      	orrs	r3, r2
 80034e4:	61bb      	str	r3, [r7, #24]
        GPIOx->PUPDR = temp;
 80034e6:	687b      	ldr	r3, [r7, #4]
 80034e8:	69ba      	ldr	r2, [r7, #24]
 80034ea:	60da      	str	r2, [r3, #12]
      }

      /* In case of Alternate function mode selection */
      if((GPIO_Init->Mode & GPIO_MODE) == MODE_AF)
 80034ec:	683b      	ldr	r3, [r7, #0]
 80034ee:	685b      	ldr	r3, [r3, #4]
 80034f0:	f003 0303 	and.w	r3, r3, #3
 80034f4:	2b02      	cmp	r3, #2
 80034f6:	d123      	bne.n	8003540 <HAL_GPIO_Init+0x144>
      {
        /* Check the Alternate function parameter */
        assert_param(IS_GPIO_AF(GPIO_Init->Alternate));
        /* Configure Alternate function mapped with the current IO */
        temp = GPIOx->AFR[position >> 3U];
 80034f8:	69fb      	ldr	r3, [r7, #28]
 80034fa:	08da      	lsrs	r2, r3, #3
 80034fc:	687b      	ldr	r3, [r7, #4]
 80034fe:	3208      	adds	r2, #8
 8003500:	f853 3022 	ldr.w	r3, [r3, r2, lsl #2]
 8003504:	61bb      	str	r3, [r7, #24]
        temp &= ~(0xFU << ((uint32_t)(position & 0x07U) * 4U)) ;
 8003506:	69fb      	ldr	r3, [r7, #28]
 8003508:	f003 0307 	and.w	r3, r3, #7
 800350c:	009b      	lsls	r3, r3, #2
 800350e:	220f      	movs	r2, #15
 8003510:	fa02 f303 	lsl.w	r3, r2, r3
 8003514:	43db      	mvns	r3, r3
 8003516:	69ba      	ldr	r2, [r7, #24]
 8003518:	4013      	ands	r3, r2
 800351a:	61bb      	str	r3, [r7, #24]
        temp |= ((uint32_t)(GPIO_Init->Alternate) << (((uint32_t)position & 0x07U) * 4U));
 800351c:	683b      	ldr	r3, [r7, #0]
 800351e:	691a      	ldr	r2, [r3, #16]
 8003520:	69fb      	ldr	r3, [r7, #28]
 8003522:	f003 0307 	and.w	r3, r3, #7
 8003526:	009b      	lsls	r3, r3, #2
 8003528:	fa02 f303 	lsl.w	r3, r2, r3
 800352c:	69ba      	ldr	r2, [r7, #24]
 800352e:	4313      	orrs	r3, r2
 8003530:	61bb      	str	r3, [r7, #24]
        GPIOx->AFR[position >> 3U] = temp;
 8003532:	69fb      	ldr	r3, [r7, #28]
 8003534:	08da      	lsrs	r2, r3, #3
 8003536:	687b      	ldr	r3, [r7, #4]
 8003538:	3208      	adds	r2, #8
 800353a:	69b9      	ldr	r1, [r7, #24]
 800353c:	f843 1022 	str.w	r1, [r3, r2, lsl #2]
      }

      /* Configure IO Direction mode (Input, Output, Alternate or Analog) */
      temp = GPIOx->MODER;
 8003540:	687b      	ldr	r3, [r7, #4]
 8003542:	681b      	ldr	r3, [r3, #0]
 8003544:	61bb      	str	r3, [r7, #24]
      temp &= ~(GPIO_MODER_MODER0 << (position * 2U));
 8003546:	69fb      	ldr	r3, [r7, #28]
 8003548:	005b      	lsls	r3, r3, #1
 800354a:	2203      	movs	r2, #3
 800354c:	fa02 f303 	lsl.w	r3, r2, r3
 8003550:	43db      	mvns	r3, r3
 8003552:	69ba      	ldr	r2, [r7, #24]
 8003554:	4013      	ands	r3, r2
 8003556:	61bb      	str	r3, [r7, #24]
      temp |= ((GPIO_Init->Mode & GPIO_MODE) << (position * 2U));
 8003558:	683b      	ldr	r3, [r7, #0]
 800355a:	685b      	ldr	r3, [r3, #4]
 800355c:	f003 0203 	and.w	r2, r3, #3
 8003560:	69fb      	ldr	r3, [r7, #28]
 8003562:	005b      	lsls	r3, r3, #1
 8003564:	fa02 f303 	lsl.w	r3, r2, r3
 8003568:	69ba      	ldr	r2, [r7, #24]
 800356a:	4313      	orrs	r3, r2
 800356c:	61bb      	str	r3, [r7, #24]
      GPIOx->MODER = temp;
 800356e:	687b      	ldr	r3, [r7, #4]
 8003570:	69ba      	ldr	r2, [r7, #24]
 8003572:	601a      	str	r2, [r3, #0]

      /*--------------------- EXTI Mode Configuration ------------------------*/
      /* Configure the External Interrupt or event for the current IO */
      if((GPIO_Init->Mode & EXTI_MODE) != 0x00U)
 8003574:	683b      	ldr	r3, [r7, #0]
 8003576:	685b      	ldr	r3, [r3, #4]
 8003578:	f403 3340 	and.w	r3, r3, #196608	; 0x30000
 800357c:	2b00      	cmp	r3, #0
 800357e:	f000 80ae 	beq.w	80036de <HAL_GPIO_Init+0x2e2>
      {
        /* Enable SYSCFG Clock */
        __HAL_RCC_SYSCFG_CLK_ENABLE();
 8003582:	2300      	movs	r3, #0
 8003584:	60fb      	str	r3, [r7, #12]
 8003586:	4b5d      	ldr	r3, [pc, #372]	; (80036fc <HAL_GPIO_Init+0x300>)
 8003588:	6c5b      	ldr	r3, [r3, #68]	; 0x44
 800358a:	4a5c      	ldr	r2, [pc, #368]	; (80036fc <HAL_GPIO_Init+0x300>)
 800358c:	f443 4380 	orr.w	r3, r3, #16384	; 0x4000
 8003590:	6453      	str	r3, [r2, #68]	; 0x44
 8003592:	4b5a      	ldr	r3, [pc, #360]	; (80036fc <HAL_GPIO_Init+0x300>)
 8003594:	6c5b      	ldr	r3, [r3, #68]	; 0x44
 8003596:	f403 4380 	and.w	r3, r3, #16384	; 0x4000
 800359a:	60fb      	str	r3, [r7, #12]
 800359c:	68fb      	ldr	r3, [r7, #12]

        temp = SYSCFG->EXTICR[position >> 2U];
 800359e:	4a58      	ldr	r2, [pc, #352]	; (8003700 <HAL_GPIO_Init+0x304>)
 80035a0:	69fb      	ldr	r3, [r7, #28]
 80035a2:	089b      	lsrs	r3, r3, #2
 80035a4:	3302      	adds	r3, #2
 80035a6:	f852 3023 	ldr.w	r3, [r2, r3, lsl #2]
 80035aa:	61bb      	str	r3, [r7, #24]
        temp &= ~(0x0FU << (4U * (position & 0x03U)));
 80035ac:	69fb      	ldr	r3, [r7, #28]
 80035ae:	f003 0303 	and.w	r3, r3, #3
 80035b2:	009b      	lsls	r3, r3, #2
 80035b4:	220f      	movs	r2, #15
 80035b6:	fa02 f303 	lsl.w	r3, r2, r3
 80035ba:	43db      	mvns	r3, r3
 80035bc:	69ba      	ldr	r2, [r7, #24]
 80035be:	4013      	ands	r3, r2
 80035c0:	61bb      	str	r3, [r7, #24]
        temp |= ((uint32_t)(GPIO_GET_INDEX(GPIOx)) << (4U * (position & 0x03U)));
 80035c2:	687b      	ldr	r3, [r7, #4]
 80035c4:	4a4f      	ldr	r2, [pc, #316]	; (8003704 <HAL_GPIO_Init+0x308>)
 80035c6:	4293      	cmp	r3, r2
 80035c8:	d025      	beq.n	8003616 <HAL_GPIO_Init+0x21a>
 80035ca:	687b      	ldr	r3, [r7, #4]
 80035cc:	4a4e      	ldr	r2, [pc, #312]	; (8003708 <HAL_GPIO_Init+0x30c>)
 80035ce:	4293      	cmp	r3, r2
 80035d0:	d01f      	beq.n	8003612 <HAL_GPIO_Init+0x216>
 80035d2:	687b      	ldr	r3, [r7, #4]
 80035d4:	4a4d      	ldr	r2, [pc, #308]	; (800370c <HAL_GPIO_Init+0x310>)
 80035d6:	4293      	cmp	r3, r2
 80035d8:	d019      	beq.n	800360e <HAL_GPIO_Init+0x212>
 80035da:	687b      	ldr	r3, [r7, #4]
 80035dc:	4a4c      	ldr	r2, [pc, #304]	; (8003710 <HAL_GPIO_Init+0x314>)
 80035de:	4293      	cmp	r3, r2
 80035e0:	d013      	beq.n	800360a <HAL_GPIO_Init+0x20e>
 80035e2:	687b      	ldr	r3, [r7, #4]
 80035e4:	4a4b      	ldr	r2, [pc, #300]	; (8003714 <HAL_GPIO_Init+0x318>)
 80035e6:	4293      	cmp	r3, r2
 80035e8:	d00d      	beq.n	8003606 <HAL_GPIO_Init+0x20a>
 80035ea:	687b      	ldr	r3, [r7, #4]
 80035ec:	4a4a      	ldr	r2, [pc, #296]	; (8003718 <HAL_GPIO_Init+0x31c>)
 80035ee:	4293      	cmp	r3, r2
 80035f0:	d007      	beq.n	8003602 <HAL_GPIO_Init+0x206>
 80035f2:	687b      	ldr	r3, [r7, #4]
 80035f4:	4a49      	ldr	r2, [pc, #292]	; (800371c <HAL_GPIO_Init+0x320>)
 80035f6:	4293      	cmp	r3, r2
 80035f8:	d101      	bne.n	80035fe <HAL_GPIO_Init+0x202>
 80035fa:	2306      	movs	r3, #6
 80035fc:	e00c      	b.n	8003618 <HAL_GPIO_Init+0x21c>
 80035fe:	2307      	movs	r3, #7
 8003600:	e00a      	b.n	8003618 <HAL_GPIO_Init+0x21c>
 8003602:	2305      	movs	r3, #5
 8003604:	e008      	b.n	8003618 <HAL_GPIO_Init+0x21c>
 8003606:	2304      	movs	r3, #4
 8003608:	e006      	b.n	8003618 <HAL_GPIO_Init+0x21c>
 800360a:	2303      	movs	r3, #3
 800360c:	e004      	b.n	8003618 <HAL_GPIO_Init+0x21c>
 800360e:	2302      	movs	r3, #2
 8003610:	e002      	b.n	8003618 <HAL_GPIO_Init+0x21c>
 8003612:	2301      	movs	r3, #1
 8003614:	e000      	b.n	8003618 <HAL_GPIO_Init+0x21c>
 8003616:	2300      	movs	r3, #0
 8003618:	69fa      	ldr	r2, [r7, #28]
 800361a:	f002 0203 	and.w	r2, r2, #3
 800361e:	0092      	lsls	r2, r2, #2
 8003620:	4093      	lsls	r3, r2
 8003622:	69ba      	ldr	r2, [r7, #24]
 8003624:	4313      	orrs	r3, r2
 8003626:	61bb      	str	r3, [r7, #24]
        SYSCFG->EXTICR[position >> 2U] = temp;
 8003628:	4935      	ldr	r1, [pc, #212]	; (8003700 <HAL_GPIO_Init+0x304>)
 800362a:	69fb      	ldr	r3, [r7, #28]
 800362c:	089b      	lsrs	r3, r3, #2
 800362e:	3302      	adds	r3, #2
 8003630:	69ba      	ldr	r2, [r7, #24]
 8003632:	f841 2023 	str.w	r2, [r1, r3, lsl #2]

        /* Clear EXTI line configuration */
        temp = EXTI->IMR;
 8003636:	4b3a      	ldr	r3, [pc, #232]	; (8003720 <HAL_GPIO_Init+0x324>)
 8003638:	681b      	ldr	r3, [r3, #0]
 800363a:	61bb      	str	r3, [r7, #24]
        temp &= ~((uint32_t)iocurrent);
 800363c:	693b      	ldr	r3, [r7, #16]
 800363e:	43db      	mvns	r3, r3
 8003640:	69ba      	ldr	r2, [r7, #24]
 8003642:	4013      	ands	r3, r2
 8003644:	61bb      	str	r3, [r7, #24]
        if((GPIO_Init->Mode & EXTI_IT) != 0x00U)
 8003646:	683b      	ldr	r3, [r7, #0]
 8003648:	685b      	ldr	r3, [r3, #4]
 800364a:	f403 3380 	and.w	r3, r3, #65536	; 0x10000
 800364e:	2b00      	cmp	r3, #0
 8003650:	d003      	beq.n	800365a <HAL_GPIO_Init+0x25e>
        {
          temp |= iocurrent;
 8003652:	69ba      	ldr	r2, [r7, #24]
 8003654:	693b      	ldr	r3, [r7, #16]
 8003656:	4313      	orrs	r3, r2
 8003658:	61bb      	str	r3, [r7, #24]
        }
        EXTI->IMR = temp;
 800365a:	4a31      	ldr	r2, [pc, #196]	; (8003720 <HAL_GPIO_Init+0x324>)
 800365c:	69bb      	ldr	r3, [r7, #24]
 800365e:	6013      	str	r3, [r2, #0]

        temp = EXTI->EMR;
 8003660:	4b2f      	ldr	r3, [pc, #188]	; (8003720 <HAL_GPIO_Init+0x324>)
 8003662:	685b      	ldr	r3, [r3, #4]
 8003664:	61bb      	str	r3, [r7, #24]
        temp &= ~((uint32_t)iocurrent);
 8003666:	693b      	ldr	r3, [r7, #16]
 8003668:	43db      	mvns	r3, r3
 800366a:	69ba      	ldr	r2, [r7, #24]
 800366c:	4013      	ands	r3, r2
 800366e:	61bb      	str	r3, [r7, #24]
        if((GPIO_Init->Mode & EXTI_EVT) != 0x00U)
 8003670:	683b      	ldr	r3, [r7, #0]
 8003672:	685b      	ldr	r3, [r3, #4]
 8003674:	f403 3300 	and.w	r3, r3, #131072	; 0x20000
 8003678:	2b00      	cmp	r3, #0
 800367a:	d003      	beq.n	8003684 <HAL_GPIO_Init+0x288>
        {
          temp |= iocurrent;
 800367c:	69ba      	ldr	r2, [r7, #24]
 800367e:	693b      	ldr	r3, [r7, #16]
 8003680:	4313      	orrs	r3, r2
 8003682:	61bb      	str	r3, [r7, #24]
        }
        EXTI->EMR = temp;
 8003684:	4a26      	ldr	r2, [pc, #152]	; (8003720 <HAL_GPIO_Init+0x324>)
 8003686:	69bb      	ldr	r3, [r7, #24]
 8003688:	6053      	str	r3, [r2, #4]

        /* Clear Rising Falling edge configuration */
        temp = EXTI->RTSR;
 800368a:	4b25      	ldr	r3, [pc, #148]	; (8003720 <HAL_GPIO_Init+0x324>)
 800368c:	689b      	ldr	r3, [r3, #8]
 800368e:	61bb      	str	r3, [r7, #24]
        temp &= ~((uint32_t)iocurrent);
 8003690:	693b      	ldr	r3, [r7, #16]
 8003692:	43db      	mvns	r3, r3
 8003694:	69ba      	ldr	r2, [r7, #24]
 8003696:	4013      	ands	r3, r2
 8003698:	61bb      	str	r3, [r7, #24]
        if((GPIO_Init->Mode & TRIGGER_RISING) != 0x00U)
 800369a:	683b      	ldr	r3, [r7, #0]
 800369c:	685b      	ldr	r3, [r3, #4]
 800369e:	f403 1380 	and.w	r3, r3, #1048576	; 0x100000
 80036a2:	2b00      	cmp	r3, #0
 80036a4:	d003      	beq.n	80036ae <HAL_GPIO_Init+0x2b2>
        {
          temp |= iocurrent;
 80036a6:	69ba      	ldr	r2, [r7, #24]
 80036a8:	693b      	ldr	r3, [r7, #16]
 80036aa:	4313      	orrs	r3, r2
 80036ac:	61bb      	str	r3, [r7, #24]
        }
        EXTI->RTSR = temp;
 80036ae:	4a1c      	ldr	r2, [pc, #112]	; (8003720 <HAL_GPIO_Init+0x324>)
 80036b0:	69bb      	ldr	r3, [r7, #24]
 80036b2:	6093      	str	r3, [r2, #8]

        temp = EXTI->FTSR;
 80036b4:	4b1a      	ldr	r3, [pc, #104]	; (8003720 <HAL_GPIO_Init+0x324>)
 80036b6:	68db      	ldr	r3, [r3, #12]
 80036b8:	61bb      	str	r3, [r7, #24]
        temp &= ~((uint32_t)iocurrent);
 80036ba:	693b      	ldr	r3, [r7, #16]
 80036bc:	43db      	mvns	r3, r3
 80036be:	69ba      	ldr	r2, [r7, #24]
 80036c0:	4013      	ands	r3, r2
 80036c2:	61bb      	str	r3, [r7, #24]
        if((GPIO_Init->Mode & TRIGGER_FALLING) != 0x00U)
 80036c4:	683b      	ldr	r3, [r7, #0]
 80036c6:	685b      	ldr	r3, [r3, #4]
 80036c8:	f403 1300 	and.w	r3, r3, #2097152	; 0x200000
 80036cc:	2b00      	cmp	r3, #0
 80036ce:	d003      	beq.n	80036d8 <HAL_GPIO_Init+0x2dc>
        {
          temp |= iocurrent;
 80036d0:	69ba      	ldr	r2, [r7, #24]
 80036d2:	693b      	ldr	r3, [r7, #16]
 80036d4:	4313      	orrs	r3, r2
 80036d6:	61bb      	str	r3, [r7, #24]
        }
        EXTI->FTSR = temp;
 80036d8:	4a11      	ldr	r2, [pc, #68]	; (8003720 <HAL_GPIO_Init+0x324>)
 80036da:	69bb      	ldr	r3, [r7, #24]
 80036dc:	60d3      	str	r3, [r2, #12]
  for(position = 0U; position < GPIO_NUMBER; position++)
 80036de:	69fb      	ldr	r3, [r7, #28]
 80036e0:	3301      	adds	r3, #1
 80036e2:	61fb      	str	r3, [r7, #28]
 80036e4:	69fb      	ldr	r3, [r7, #28]
 80036e6:	2b0f      	cmp	r3, #15
 80036e8:	f67f ae96 	bls.w	8003418 <HAL_GPIO_Init+0x1c>
      }
    }
  }
}
 80036ec:	bf00      	nop
 80036ee:	bf00      	nop
 80036f0:	3724      	adds	r7, #36	; 0x24
 80036f2:	46bd      	mov	sp, r7
 80036f4:	f85d 7b04 	ldr.w	r7, [sp], #4
 80036f8:	4770      	bx	lr
 80036fa:	bf00      	nop
 80036fc:	40023800 	.word	0x40023800
 8003700:	40013800 	.word	0x40013800
 8003704:	40020000 	.word	0x40020000
 8003708:	40020400 	.word	0x40020400
 800370c:	40020800 	.word	0x40020800
 8003710:	40020c00 	.word	0x40020c00
 8003714:	40021000 	.word	0x40021000
 8003718:	40021400 	.word	0x40021400
 800371c:	40021800 	.word	0x40021800
 8003720:	40013c00 	.word	0x40013c00

08003724 <HAL_GPIO_WritePin>:
  *            @arg GPIO_PIN_RESET: to clear the port pin
  *            @arg GPIO_PIN_SET: to set the port pin
  * @retval None
  */
void HAL_GPIO_WritePin(GPIO_TypeDef* GPIOx, uint16_t GPIO_Pin, GPIO_PinState PinState)
{
 8003724:	b480      	push	{r7}
 8003726:	b083      	sub	sp, #12
 8003728:	af00      	add	r7, sp, #0
 800372a:	6078      	str	r0, [r7, #4]
 800372c:	460b      	mov	r3, r1
 800372e:	807b      	strh	r3, [r7, #2]
 8003730:	4613      	mov	r3, r2
 8003732:	707b      	strb	r3, [r7, #1]
  /* Check the parameters */
  assert_param(IS_GPIO_PIN(GPIO_Pin));
  assert_param(IS_GPIO_PIN_ACTION(PinState));

  if(PinState != GPIO_PIN_RESET)
 8003734:	787b      	ldrb	r3, [r7, #1]
 8003736:	2b00      	cmp	r3, #0
 8003738:	d003      	beq.n	8003742 <HAL_GPIO_WritePin+0x1e>
  {
    GPIOx->BSRR = GPIO_Pin;
 800373a:	887a      	ldrh	r2, [r7, #2]
 800373c:	687b      	ldr	r3, [r7, #4]
 800373e:	619a      	str	r2, [r3, #24]
  }
  else
  {
    GPIOx->BSRR = (uint32_t)GPIO_Pin << 16U;
  }
}
 8003740:	e003      	b.n	800374a <HAL_GPIO_WritePin+0x26>
    GPIOx->BSRR = (uint32_t)GPIO_Pin << 16U;
 8003742:	887b      	ldrh	r3, [r7, #2]
 8003744:	041a      	lsls	r2, r3, #16
 8003746:	687b      	ldr	r3, [r7, #4]
 8003748:	619a      	str	r2, [r3, #24]
}
 800374a:	bf00      	nop
 800374c:	370c      	adds	r7, #12
 800374e:	46bd      	mov	sp, r7
 8003750:	f85d 7b04 	ldr.w	r7, [sp], #4
 8003754:	4770      	bx	lr

08003756 <HAL_GPIO_TogglePin>:
  *                      x can be (A..I) to select the GPIO peripheral for STM32F40XX and STM32F427X devices.
  * @param  GPIO_Pin Specifies the pins to be toggled.
  * @retval None
  */
void HAL_GPIO_TogglePin(GPIO_TypeDef* GPIOx, uint16_t GPIO_Pin)
{
 8003756:	b480      	push	{r7}
 8003758:	b085      	sub	sp, #20
 800375a:	af00      	add	r7, sp, #0
 800375c:	6078      	str	r0, [r7, #4]
 800375e:	460b      	mov	r3, r1
 8003760:	807b      	strh	r3, [r7, #2]

  /* Check the parameters */
  assert_param(IS_GPIO_PIN(GPIO_Pin));

  /* get current Ouput Data Register value */
  odr = GPIOx->ODR;
 8003762:	687b      	ldr	r3, [r7, #4]
 8003764:	695b      	ldr	r3, [r3, #20]
 8003766:	60fb      	str	r3, [r7, #12]

  /* Set selected pins that were at low level, and reset ones that were high */
  GPIOx->BSRR = ((odr & GPIO_Pin) << GPIO_NUMBER) | (~odr & GPIO_Pin);
 8003768:	887a      	ldrh	r2, [r7, #2]
 800376a:	68fb      	ldr	r3, [r7, #12]
 800376c:	4013      	ands	r3, r2
 800376e:	041a      	lsls	r2, r3, #16
 8003770:	68fb      	ldr	r3, [r7, #12]
 8003772:	43d9      	mvns	r1, r3
 8003774:	887b      	ldrh	r3, [r7, #2]
 8003776:	400b      	ands	r3, r1
 8003778:	431a      	orrs	r2, r3
 800377a:	687b      	ldr	r3, [r7, #4]
 800377c:	619a      	str	r2, [r3, #24]
}
 800377e:	bf00      	nop
 8003780:	3714      	adds	r7, #20
 8003782:	46bd      	mov	sp, r7
 8003784:	f85d 7b04 	ldr.w	r7, [sp], #4
 8003788:	4770      	bx	lr
	...

0800378c <HAL_RCC_ClockConfig>:
  *         HPRE[3:0] bits to ensure that HCLK not exceed the maximum allowed frequency
  *         (for more details refer to section above "Initialization/de-initialization functions")
  * @retval None
  */
HAL_StatusTypeDef HAL_RCC_ClockConfig(RCC_ClkInitTypeDef  *RCC_ClkInitStruct, uint32_t FLatency)
{
 800378c:	b580      	push	{r7, lr}
 800378e:	b084      	sub	sp, #16
 8003790:	af00      	add	r7, sp, #0
 8003792:	6078      	str	r0, [r7, #4]
 8003794:	6039      	str	r1, [r7, #0]
  uint32_t tickstart;

  /* Check Null pointer */
  if(RCC_ClkInitStruct == NULL)
 8003796:	687b      	ldr	r3, [r7, #4]
 8003798:	2b00      	cmp	r3, #0
 800379a:	d101      	bne.n	80037a0 <HAL_RCC_ClockConfig+0x14>
  {
    return HAL_ERROR;
 800379c:	2301      	movs	r3, #1
 800379e:	e0cc      	b.n	800393a <HAL_RCC_ClockConfig+0x1ae>
  /* To correctly read data from FLASH memory, the number of wait states (LATENCY)
    must be correctly programmed according to the frequency of the CPU clock
    (HCLK) and the supply voltage of the device. */

  /* Increasing the number of wait states because of higher CPU frequency */
  if(FLatency > __HAL_FLASH_GET_LATENCY())
 80037a0:	4b68      	ldr	r3, [pc, #416]	; (8003944 <HAL_RCC_ClockConfig+0x1b8>)
 80037a2:	681b      	ldr	r3, [r3, #0]
 80037a4:	f003 030f 	and.w	r3, r3, #15
 80037a8:	683a      	ldr	r2, [r7, #0]
 80037aa:	429a      	cmp	r2, r3
 80037ac:	d90c      	bls.n	80037c8 <HAL_RCC_ClockConfig+0x3c>
  {
    /* Program the new number of wait states to the LATENCY bits in the FLASH_ACR register */
    __HAL_FLASH_SET_LATENCY(FLatency);
 80037ae:	4b65      	ldr	r3, [pc, #404]	; (8003944 <HAL_RCC_ClockConfig+0x1b8>)
 80037b0:	683a      	ldr	r2, [r7, #0]
 80037b2:	b2d2      	uxtb	r2, r2
 80037b4:	701a      	strb	r2, [r3, #0]

    /* Check that the new number of wait states is taken into account to access the Flash
    memory by reading the FLASH_ACR register */
    if(__HAL_FLASH_GET_LATENCY() != FLatency)
 80037b6:	4b63      	ldr	r3, [pc, #396]	; (8003944 <HAL_RCC_ClockConfig+0x1b8>)
 80037b8:	681b      	ldr	r3, [r3, #0]
 80037ba:	f003 030f 	and.w	r3, r3, #15
 80037be:	683a      	ldr	r2, [r7, #0]
 80037c0:	429a      	cmp	r2, r3
 80037c2:	d001      	beq.n	80037c8 <HAL_RCC_ClockConfig+0x3c>
    {
      return HAL_ERROR;
 80037c4:	2301      	movs	r3, #1
 80037c6:	e0b8      	b.n	800393a <HAL_RCC_ClockConfig+0x1ae>
    }
  }

  /*-------------------------- HCLK Configuration --------------------------*/
  if(((RCC_ClkInitStruct->ClockType) & RCC_CLOCKTYPE_HCLK) == RCC_CLOCKTYPE_HCLK)
 80037c8:	687b      	ldr	r3, [r7, #4]
 80037ca:	681b      	ldr	r3, [r3, #0]
 80037cc:	f003 0302 	and.w	r3, r3, #2
 80037d0:	2b00      	cmp	r3, #0
 80037d2:	d020      	beq.n	8003816 <HAL_RCC_ClockConfig+0x8a>
  {
    /* Set the highest APBx dividers in order to ensure that we do not go through
       a non-spec phase whatever we decrease or increase HCLK. */
    if(((RCC_ClkInitStruct->ClockType) & RCC_CLOCKTYPE_PCLK1) == RCC_CLOCKTYPE_PCLK1)
 80037d4:	687b      	ldr	r3, [r7, #4]
 80037d6:	681b      	ldr	r3, [r3, #0]
 80037d8:	f003 0304 	and.w	r3, r3, #4
 80037dc:	2b00      	cmp	r3, #0
 80037de:	d005      	beq.n	80037ec <HAL_RCC_ClockConfig+0x60>
    {
      MODIFY_REG(RCC->CFGR, RCC_CFGR_PPRE1, RCC_HCLK_DIV16);
 80037e0:	4b59      	ldr	r3, [pc, #356]	; (8003948 <HAL_RCC_ClockConfig+0x1bc>)
 80037e2:	689b      	ldr	r3, [r3, #8]
 80037e4:	4a58      	ldr	r2, [pc, #352]	; (8003948 <HAL_RCC_ClockConfig+0x1bc>)
 80037e6:	f443 53e0 	orr.w	r3, r3, #7168	; 0x1c00
 80037ea:	6093      	str	r3, [r2, #8]
    }

    if(((RCC_ClkInitStruct->ClockType) & RCC_CLOCKTYPE_PCLK2) == RCC_CLOCKTYPE_PCLK2)
 80037ec:	687b      	ldr	r3, [r7, #4]
 80037ee:	681b      	ldr	r3, [r3, #0]
 80037f0:	f003 0308 	and.w	r3, r3, #8
 80037f4:	2b00      	cmp	r3, #0
 80037f6:	d005      	beq.n	8003804 <HAL_RCC_ClockConfig+0x78>
    {
      MODIFY_REG(RCC->CFGR, RCC_CFGR_PPRE2, (RCC_HCLK_DIV16 << 3));
 80037f8:	4b53      	ldr	r3, [pc, #332]	; (8003948 <HAL_RCC_ClockConfig+0x1bc>)
 80037fa:	689b      	ldr	r3, [r3, #8]
 80037fc:	4a52      	ldr	r2, [pc, #328]	; (8003948 <HAL_RCC_ClockConfig+0x1bc>)
 80037fe:	f443 4360 	orr.w	r3, r3, #57344	; 0xe000
 8003802:	6093      	str	r3, [r2, #8]
    }

    assert_param(IS_RCC_HCLK(RCC_ClkInitStruct->AHBCLKDivider));
    MODIFY_REG(RCC->CFGR, RCC_CFGR_HPRE, RCC_ClkInitStruct->AHBCLKDivider);
 8003804:	4b50      	ldr	r3, [pc, #320]	; (8003948 <HAL_RCC_ClockConfig+0x1bc>)
 8003806:	689b      	ldr	r3, [r3, #8]
 8003808:	f023 02f0 	bic.w	r2, r3, #240	; 0xf0
 800380c:	687b      	ldr	r3, [r7, #4]
 800380e:	689b      	ldr	r3, [r3, #8]
 8003810:	494d      	ldr	r1, [pc, #308]	; (8003948 <HAL_RCC_ClockConfig+0x1bc>)
 8003812:	4313      	orrs	r3, r2
 8003814:	608b      	str	r3, [r1, #8]
  }

  /*------------------------- SYSCLK Configuration ---------------------------*/
  if(((RCC_ClkInitStruct->ClockType) & RCC_CLOCKTYPE_SYSCLK) == RCC_CLOCKTYPE_SYSCLK)
 8003816:	687b      	ldr	r3, [r7, #4]
 8003818:	681b      	ldr	r3, [r3, #0]
 800381a:	f003 0301 	and.w	r3, r3, #1
 800381e:	2b00      	cmp	r3, #0
 8003820:	d044      	beq.n	80038ac <HAL_RCC_ClockConfig+0x120>
  {
    assert_param(IS_RCC_SYSCLKSOURCE(RCC_ClkInitStruct->SYSCLKSource));

    /* HSE is selected as System Clock Source */
    if(RCC_ClkInitStruct->SYSCLKSource == RCC_SYSCLKSOURCE_HSE)
 8003822:	687b      	ldr	r3, [r7, #4]
 8003824:	685b      	ldr	r3, [r3, #4]
 8003826:	2b01      	cmp	r3, #1
 8003828:	d107      	bne.n	800383a <HAL_RCC_ClockConfig+0xae>
    {
      /* Check the HSE ready flag */
      if(__HAL_RCC_GET_FLAG(RCC_FLAG_HSERDY) == RESET)
 800382a:	4b47      	ldr	r3, [pc, #284]	; (8003948 <HAL_RCC_ClockConfig+0x1bc>)
 800382c:	681b      	ldr	r3, [r3, #0]
 800382e:	f403 3300 	and.w	r3, r3, #131072	; 0x20000
 8003832:	2b00      	cmp	r3, #0
 8003834:	d119      	bne.n	800386a <HAL_RCC_ClockConfig+0xde>
      {
        return HAL_ERROR;
 8003836:	2301      	movs	r3, #1
 8003838:	e07f      	b.n	800393a <HAL_RCC_ClockConfig+0x1ae>
      }
    }
    /* PLL is selected as System Clock Source */
    else if((RCC_ClkInitStruct->SYSCLKSource == RCC_SYSCLKSOURCE_PLLCLK)   ||
 800383a:	687b      	ldr	r3, [r7, #4]
 800383c:	685b      	ldr	r3, [r3, #4]
 800383e:	2b02      	cmp	r3, #2
 8003840:	d003      	beq.n	800384a <HAL_RCC_ClockConfig+0xbe>
            (RCC_ClkInitStruct->SYSCLKSource == RCC_SYSCLKSOURCE_PLLRCLK))
 8003842:	687b      	ldr	r3, [r7, #4]
 8003844:	685b      	ldr	r3, [r3, #4]
    else if((RCC_ClkInitStruct->SYSCLKSource == RCC_SYSCLKSOURCE_PLLCLK)   ||
 8003846:	2b03      	cmp	r3, #3
 8003848:	d107      	bne.n	800385a <HAL_RCC_ClockConfig+0xce>
    {
      /* Check the PLL ready flag */
      if(__HAL_RCC_GET_FLAG(RCC_FLAG_PLLRDY) == RESET)
 800384a:	4b3f      	ldr	r3, [pc, #252]	; (8003948 <HAL_RCC_ClockConfig+0x1bc>)
 800384c:	681b      	ldr	r3, [r3, #0]
 800384e:	f003 7300 	and.w	r3, r3, #33554432	; 0x2000000
 8003852:	2b00      	cmp	r3, #0
 8003854:	d109      	bne.n	800386a <HAL_RCC_ClockConfig+0xde>
      {
        return HAL_ERROR;
 8003856:	2301      	movs	r3, #1
 8003858:	e06f      	b.n	800393a <HAL_RCC_ClockConfig+0x1ae>
    }
    /* HSI is selected as System Clock Source */
    else
    {
      /* Check the HSI ready flag */
      if(__HAL_RCC_GET_FLAG(RCC_FLAG_HSIRDY) == RESET)
 800385a:	4b3b      	ldr	r3, [pc, #236]	; (8003948 <HAL_RCC_ClockConfig+0x1bc>)
 800385c:	681b      	ldr	r3, [r3, #0]
 800385e:	f003 0302 	and.w	r3, r3, #2
 8003862:	2b00      	cmp	r3, #0
 8003864:	d101      	bne.n	800386a <HAL_RCC_ClockConfig+0xde>
      {
        return HAL_ERROR;
 8003866:	2301      	movs	r3, #1
 8003868:	e067      	b.n	800393a <HAL_RCC_ClockConfig+0x1ae>
      }
    }

    __HAL_RCC_SYSCLK_CONFIG(RCC_ClkInitStruct->SYSCLKSource);
 800386a:	4b37      	ldr	r3, [pc, #220]	; (8003948 <HAL_RCC_ClockConfig+0x1bc>)
 800386c:	689b      	ldr	r3, [r3, #8]
 800386e:	f023 0203 	bic.w	r2, r3, #3
 8003872:	687b      	ldr	r3, [r7, #4]
 8003874:	685b      	ldr	r3, [r3, #4]
 8003876:	4934      	ldr	r1, [pc, #208]	; (8003948 <HAL_RCC_ClockConfig+0x1bc>)
 8003878:	4313      	orrs	r3, r2
 800387a:	608b      	str	r3, [r1, #8]

    /* Get Start Tick */
    tickstart = HAL_GetTick();
 800387c:	f7ff f87a 	bl	8002974 <HAL_GetTick>
 8003880:	60f8      	str	r0, [r7, #12]

    while (__HAL_RCC_GET_SYSCLK_SOURCE() != (RCC_ClkInitStruct->SYSCLKSource << RCC_CFGR_SWS_Pos))
 8003882:	e00a      	b.n	800389a <HAL_RCC_ClockConfig+0x10e>
    {
      if ((HAL_GetTick() - tickstart) > CLOCKSWITCH_TIMEOUT_VALUE)
 8003884:	f7ff f876 	bl	8002974 <HAL_GetTick>
 8003888:	4602      	mov	r2, r0
 800388a:	68fb      	ldr	r3, [r7, #12]
 800388c:	1ad3      	subs	r3, r2, r3
 800388e:	f241 3288 	movw	r2, #5000	; 0x1388
 8003892:	4293      	cmp	r3, r2
 8003894:	d901      	bls.n	800389a <HAL_RCC_ClockConfig+0x10e>
      {
        return HAL_TIMEOUT;
 8003896:	2303      	movs	r3, #3
 8003898:	e04f      	b.n	800393a <HAL_RCC_ClockConfig+0x1ae>
    while (__HAL_RCC_GET_SYSCLK_SOURCE() != (RCC_ClkInitStruct->SYSCLKSource << RCC_CFGR_SWS_Pos))
 800389a:	4b2b      	ldr	r3, [pc, #172]	; (8003948 <HAL_RCC_ClockConfig+0x1bc>)
 800389c:	689b      	ldr	r3, [r3, #8]
 800389e:	f003 020c 	and.w	r2, r3, #12
 80038a2:	687b      	ldr	r3, [r7, #4]
 80038a4:	685b      	ldr	r3, [r3, #4]
 80038a6:	009b      	lsls	r3, r3, #2
 80038a8:	429a      	cmp	r2, r3
 80038aa:	d1eb      	bne.n	8003884 <HAL_RCC_ClockConfig+0xf8>
      }
    }
  }

  /* Decreasing the number of wait states because of lower CPU frequency */
  if(FLatency < __HAL_FLASH_GET_LATENCY())
 80038ac:	4b25      	ldr	r3, [pc, #148]	; (8003944 <HAL_RCC_ClockConfig+0x1b8>)
 80038ae:	681b      	ldr	r3, [r3, #0]
 80038b0:	f003 030f 	and.w	r3, r3, #15
 80038b4:	683a      	ldr	r2, [r7, #0]
 80038b6:	429a      	cmp	r2, r3
 80038b8:	d20c      	bcs.n	80038d4 <HAL_RCC_ClockConfig+0x148>
  {
     /* Program the new number of wait states to the LATENCY bits in the FLASH_ACR register */
    __HAL_FLASH_SET_LATENCY(FLatency);
 80038ba:	4b22      	ldr	r3, [pc, #136]	; (8003944 <HAL_RCC_ClockConfig+0x1b8>)
 80038bc:	683a      	ldr	r2, [r7, #0]
 80038be:	b2d2      	uxtb	r2, r2
 80038c0:	701a      	strb	r2, [r3, #0]

    /* Check that the new number of wait states is taken into account to access the Flash
    memory by reading the FLASH_ACR register */
    if(__HAL_FLASH_GET_LATENCY() != FLatency)
 80038c2:	4b20      	ldr	r3, [pc, #128]	; (8003944 <HAL_RCC_ClockConfig+0x1b8>)
 80038c4:	681b      	ldr	r3, [r3, #0]
 80038c6:	f003 030f 	and.w	r3, r3, #15
 80038ca:	683a      	ldr	r2, [r7, #0]
 80038cc:	429a      	cmp	r2, r3
 80038ce:	d001      	beq.n	80038d4 <HAL_RCC_ClockConfig+0x148>
    {
      return HAL_ERROR;
 80038d0:	2301      	movs	r3, #1
 80038d2:	e032      	b.n	800393a <HAL_RCC_ClockConfig+0x1ae>
    }
  }

  /*-------------------------- PCLK1 Configuration ---------------------------*/
  if(((RCC_ClkInitStruct->ClockType) & RCC_CLOCKTYPE_PCLK1) == RCC_CLOCKTYPE_PCLK1)
 80038d4:	687b      	ldr	r3, [r7, #4]
 80038d6:	681b      	ldr	r3, [r3, #0]
 80038d8:	f003 0304 	and.w	r3, r3, #4
 80038dc:	2b00      	cmp	r3, #0
 80038de:	d008      	beq.n	80038f2 <HAL_RCC_ClockConfig+0x166>
  {
    assert_param(IS_RCC_PCLK(RCC_ClkInitStruct->APB1CLKDivider));
    MODIFY_REG(RCC->CFGR, RCC_CFGR_PPRE1, RCC_ClkInitStruct->APB1CLKDivider);
 80038e0:	4b19      	ldr	r3, [pc, #100]	; (8003948 <HAL_RCC_ClockConfig+0x1bc>)
 80038e2:	689b      	ldr	r3, [r3, #8]
 80038e4:	f423 52e0 	bic.w	r2, r3, #7168	; 0x1c00
 80038e8:	687b      	ldr	r3, [r7, #4]
 80038ea:	68db      	ldr	r3, [r3, #12]
 80038ec:	4916      	ldr	r1, [pc, #88]	; (8003948 <HAL_RCC_ClockConfig+0x1bc>)
 80038ee:	4313      	orrs	r3, r2
 80038f0:	608b      	str	r3, [r1, #8]
  }

  /*-------------------------- PCLK2 Configuration ---------------------------*/
  if(((RCC_ClkInitStruct->ClockType) & RCC_CLOCKTYPE_PCLK2) == RCC_CLOCKTYPE_PCLK2)
 80038f2:	687b      	ldr	r3, [r7, #4]
 80038f4:	681b      	ldr	r3, [r3, #0]
 80038f6:	f003 0308 	and.w	r3, r3, #8
 80038fa:	2b00      	cmp	r3, #0
 80038fc:	d009      	beq.n	8003912 <HAL_RCC_ClockConfig+0x186>
  {
    assert_param(IS_RCC_PCLK(RCC_ClkInitStruct->APB2CLKDivider));
    MODIFY_REG(RCC->CFGR, RCC_CFGR_PPRE2, ((RCC_ClkInitStruct->APB2CLKDivider) << 3U));
 80038fe:	4b12      	ldr	r3, [pc, #72]	; (8003948 <HAL_RCC_ClockConfig+0x1bc>)
 8003900:	689b      	ldr	r3, [r3, #8]
 8003902:	f423 4260 	bic.w	r2, r3, #57344	; 0xe000
 8003906:	687b      	ldr	r3, [r7, #4]
 8003908:	691b      	ldr	r3, [r3, #16]
 800390a:	00db      	lsls	r3, r3, #3
 800390c:	490e      	ldr	r1, [pc, #56]	; (8003948 <HAL_RCC_ClockConfig+0x1bc>)
 800390e:	4313      	orrs	r3, r2
 8003910:	608b      	str	r3, [r1, #8]
  }

  /* Update the SystemCoreClock global variable */
  SystemCoreClock = HAL_RCC_GetSysClockFreq() >> AHBPrescTable[(RCC->CFGR & RCC_CFGR_HPRE)>> RCC_CFGR_HPRE_Pos];
 8003912:	f000 fdc7 	bl	80044a4 <HAL_RCC_GetSysClockFreq>
 8003916:	4602      	mov	r2, r0
 8003918:	4b0b      	ldr	r3, [pc, #44]	; (8003948 <HAL_RCC_ClockConfig+0x1bc>)
 800391a:	689b      	ldr	r3, [r3, #8]
 800391c:	091b      	lsrs	r3, r3, #4
 800391e:	f003 030f 	and.w	r3, r3, #15
 8003922:	490a      	ldr	r1, [pc, #40]	; (800394c <HAL_RCC_ClockConfig+0x1c0>)
 8003924:	5ccb      	ldrb	r3, [r1, r3]
 8003926:	fa22 f303 	lsr.w	r3, r2, r3
 800392a:	4a09      	ldr	r2, [pc, #36]	; (8003950 <HAL_RCC_ClockConfig+0x1c4>)
 800392c:	6013      	str	r3, [r2, #0]

  /* Configure the source of time base considering new system clocks settings */
  HAL_InitTick (uwTickPrio);
 800392e:	4b09      	ldr	r3, [pc, #36]	; (8003954 <HAL_RCC_ClockConfig+0x1c8>)
 8003930:	681b      	ldr	r3, [r3, #0]
 8003932:	4618      	mov	r0, r3
 8003934:	f7fe ffda 	bl	80028ec <HAL_InitTick>

  return HAL_OK;
 8003938:	2300      	movs	r3, #0
}
 800393a:	4618      	mov	r0, r3
 800393c:	3710      	adds	r7, #16
 800393e:	46bd      	mov	sp, r7
 8003940:	bd80      	pop	{r7, pc}
 8003942:	bf00      	nop
 8003944:	40023c00 	.word	0x40023c00
 8003948:	40023800 	.word	0x40023800
 800394c:	08008cac 	.word	0x08008cac
 8003950:	2000000c 	.word	0x2000000c
 8003954:	20000010 	.word	0x20000010

08003958 <HAL_RCC_GetHCLKFreq>:
  * @note   The SystemCoreClock CMSIS variable is used to store System Clock Frequency
  *         and updated within this function
  * @retval HCLK frequency
  */
uint32_t HAL_RCC_GetHCLKFreq(void)
{
 8003958:	b480      	push	{r7}
 800395a:	af00      	add	r7, sp, #0
  return SystemCoreClock;
 800395c:	4b03      	ldr	r3, [pc, #12]	; (800396c <HAL_RCC_GetHCLKFreq+0x14>)
 800395e:	681b      	ldr	r3, [r3, #0]
}
 8003960:	4618      	mov	r0, r3
 8003962:	46bd      	mov	sp, r7
 8003964:	f85d 7b04 	ldr.w	r7, [sp], #4
 8003968:	4770      	bx	lr
 800396a:	bf00      	nop
 800396c:	2000000c 	.word	0x2000000c

08003970 <HAL_RCC_GetPCLK1Freq>:
  * @note   Each time PCLK1 changes, this function must be called to update the
  *         right PCLK1 value. Otherwise, any configuration based on this function will be incorrect.
  * @retval PCLK1 frequency
  */
uint32_t HAL_RCC_GetPCLK1Freq(void)
{
 8003970:	b580      	push	{r7, lr}
 8003972:	af00      	add	r7, sp, #0
  /* Get HCLK source and Compute PCLK1 frequency ---------------------------*/
  return (HAL_RCC_GetHCLKFreq() >> APBPrescTable[(RCC->CFGR & RCC_CFGR_PPRE1)>> RCC_CFGR_PPRE1_Pos]);
 8003974:	f7ff fff0 	bl	8003958 <HAL_RCC_GetHCLKFreq>
 8003978:	4602      	mov	r2, r0
 800397a:	4b05      	ldr	r3, [pc, #20]	; (8003990 <HAL_RCC_GetPCLK1Freq+0x20>)
 800397c:	689b      	ldr	r3, [r3, #8]
 800397e:	0a9b      	lsrs	r3, r3, #10
 8003980:	f003 0307 	and.w	r3, r3, #7
 8003984:	4903      	ldr	r1, [pc, #12]	; (8003994 <HAL_RCC_GetPCLK1Freq+0x24>)
 8003986:	5ccb      	ldrb	r3, [r1, r3]
 8003988:	fa22 f303 	lsr.w	r3, r2, r3
}
 800398c:	4618      	mov	r0, r3
 800398e:	bd80      	pop	{r7, pc}
 8003990:	40023800 	.word	0x40023800
 8003994:	08008cbc 	.word	0x08008cbc

08003998 <HAL_RCC_GetPCLK2Freq>:
  * @note   Each time PCLK2 changes, this function must be called to update the
  *         right PCLK2 value. Otherwise, any configuration based on this function will be incorrect.
  * @retval PCLK2 frequency
  */
uint32_t HAL_RCC_GetPCLK2Freq(void)
{
 8003998:	b580      	push	{r7, lr}
 800399a:	af00      	add	r7, sp, #0
  /* Get HCLK source and Compute PCLK2 frequency ---------------------------*/
  return (HAL_RCC_GetHCLKFreq()>> APBPrescTable[(RCC->CFGR & RCC_CFGR_PPRE2)>> RCC_CFGR_PPRE2_Pos]);
 800399c:	f7ff ffdc 	bl	8003958 <HAL_RCC_GetHCLKFreq>
 80039a0:	4602      	mov	r2, r0
 80039a2:	4b05      	ldr	r3, [pc, #20]	; (80039b8 <HAL_RCC_GetPCLK2Freq+0x20>)
 80039a4:	689b      	ldr	r3, [r3, #8]
 80039a6:	0b5b      	lsrs	r3, r3, #13
 80039a8:	f003 0307 	and.w	r3, r3, #7
 80039ac:	4903      	ldr	r1, [pc, #12]	; (80039bc <HAL_RCC_GetPCLK2Freq+0x24>)
 80039ae:	5ccb      	ldrb	r3, [r1, r3]
 80039b0:	fa22 f303 	lsr.w	r3, r2, r3
}
 80039b4:	4618      	mov	r0, r3
 80039b6:	bd80      	pop	{r7, pc}
 80039b8:	40023800 	.word	0x40023800
 80039bc:	08008cbc 	.word	0x08008cbc

080039c0 <HAL_RCCEx_PeriphCLKConfig>:
  *         the backup registers) and RCC_BDCR register are set to their reset values.
  *
  * @retval HAL status
  */
HAL_StatusTypeDef HAL_RCCEx_PeriphCLKConfig(RCC_PeriphCLKInitTypeDef  *PeriphClkInit)
{
 80039c0:	b580      	push	{r7, lr}
 80039c2:	b08c      	sub	sp, #48	; 0x30
 80039c4:	af00      	add	r7, sp, #0
 80039c6:	6078      	str	r0, [r7, #4]
  uint32_t tickstart = 0U;
 80039c8:	2300      	movs	r3, #0
 80039ca:	627b      	str	r3, [r7, #36]	; 0x24
  uint32_t tmpreg1 = 0U;
 80039cc:	2300      	movs	r3, #0
 80039ce:	623b      	str	r3, [r7, #32]
  uint32_t plli2sp = 0U;
 80039d0:	2300      	movs	r3, #0
 80039d2:	61fb      	str	r3, [r7, #28]
  uint32_t plli2sq = 0U;
 80039d4:	2300      	movs	r3, #0
 80039d6:	61bb      	str	r3, [r7, #24]
  uint32_t plli2sr = 0U;
 80039d8:	2300      	movs	r3, #0
 80039da:	617b      	str	r3, [r7, #20]
  uint32_t pllsaip = 0U;
 80039dc:	2300      	movs	r3, #0
 80039de:	613b      	str	r3, [r7, #16]
  uint32_t pllsaiq = 0U;
 80039e0:	2300      	movs	r3, #0
 80039e2:	60fb      	str	r3, [r7, #12]
  uint32_t plli2sused = 0U;
 80039e4:	2300      	movs	r3, #0
 80039e6:	62fb      	str	r3, [r7, #44]	; 0x2c
  uint32_t pllsaiused = 0U;
 80039e8:	2300      	movs	r3, #0
 80039ea:	62bb      	str	r3, [r7, #40]	; 0x28

  /* Check the peripheral clock selection parameters */
  assert_param(IS_RCC_PERIPHCLOCK(PeriphClkInit->PeriphClockSelection));

  /*------------------------ I2S APB1 configuration --------------------------*/
  if(((PeriphClkInit->PeriphClockSelection) & RCC_PERIPHCLK_I2S_APB1) == (RCC_PERIPHCLK_I2S_APB1))
 80039ec:	687b      	ldr	r3, [r7, #4]
 80039ee:	681b      	ldr	r3, [r3, #0]
 80039f0:	f003 0301 	and.w	r3, r3, #1
 80039f4:	2b00      	cmp	r3, #0
 80039f6:	d010      	beq.n	8003a1a <HAL_RCCEx_PeriphCLKConfig+0x5a>
  {
    /* Check the parameters */
    assert_param(IS_RCC_I2SAPB1CLKSOURCE(PeriphClkInit->I2sApb1ClockSelection));

    /* Configure I2S Clock source */
    __HAL_RCC_I2S_APB1_CONFIG(PeriphClkInit->I2sApb1ClockSelection);
 80039f8:	4b6f      	ldr	r3, [pc, #444]	; (8003bb8 <HAL_RCCEx_PeriphCLKConfig+0x1f8>)
 80039fa:	f8d3 308c 	ldr.w	r3, [r3, #140]	; 0x8c
 80039fe:	f023 62c0 	bic.w	r2, r3, #100663296	; 0x6000000
 8003a02:	687b      	ldr	r3, [r7, #4]
 8003a04:	6b9b      	ldr	r3, [r3, #56]	; 0x38
 8003a06:	496c      	ldr	r1, [pc, #432]	; (8003bb8 <HAL_RCCEx_PeriphCLKConfig+0x1f8>)
 8003a08:	4313      	orrs	r3, r2
 8003a0a:	f8c1 308c 	str.w	r3, [r1, #140]	; 0x8c
    /* Enable the PLLI2S when it's used as clock source for I2S */
    if(PeriphClkInit->I2sApb1ClockSelection == RCC_I2SAPB1CLKSOURCE_PLLI2S)
 8003a0e:	687b      	ldr	r3, [r7, #4]
 8003a10:	6b9b      	ldr	r3, [r3, #56]	; 0x38
 8003a12:	2b00      	cmp	r3, #0
 8003a14:	d101      	bne.n	8003a1a <HAL_RCCEx_PeriphCLKConfig+0x5a>
    {
      plli2sused = 1U;
 8003a16:	2301      	movs	r3, #1
 8003a18:	62fb      	str	r3, [r7, #44]	; 0x2c
    }
  }
  /*--------------------------------------------------------------------------*/

  /*---------------------------- I2S APB2 configuration ----------------------*/
  if(((PeriphClkInit->PeriphClockSelection) & RCC_PERIPHCLK_I2S_APB2) == (RCC_PERIPHCLK_I2S_APB2))
 8003a1a:	687b      	ldr	r3, [r7, #4]
 8003a1c:	681b      	ldr	r3, [r3, #0]
 8003a1e:	f003 0302 	and.w	r3, r3, #2
 8003a22:	2b00      	cmp	r3, #0
 8003a24:	d010      	beq.n	8003a48 <HAL_RCCEx_PeriphCLKConfig+0x88>
  {
    /* Check the parameters */
    assert_param(IS_RCC_I2SAPB2CLKSOURCE(PeriphClkInit->I2sApb2ClockSelection));

    /* Configure I2S Clock source */
    __HAL_RCC_I2S_APB2_CONFIG(PeriphClkInit->I2sApb2ClockSelection);
 8003a26:	4b64      	ldr	r3, [pc, #400]	; (8003bb8 <HAL_RCCEx_PeriphCLKConfig+0x1f8>)
 8003a28:	f8d3 308c 	ldr.w	r3, [r3, #140]	; 0x8c
 8003a2c:	f023 52c0 	bic.w	r2, r3, #402653184	; 0x18000000
 8003a30:	687b      	ldr	r3, [r7, #4]
 8003a32:	6bdb      	ldr	r3, [r3, #60]	; 0x3c
 8003a34:	4960      	ldr	r1, [pc, #384]	; (8003bb8 <HAL_RCCEx_PeriphCLKConfig+0x1f8>)
 8003a36:	4313      	orrs	r3, r2
 8003a38:	f8c1 308c 	str.w	r3, [r1, #140]	; 0x8c
    /* Enable the PLLI2S when it's used as clock source for I2S */
    if(PeriphClkInit->I2sApb2ClockSelection == RCC_I2SAPB2CLKSOURCE_PLLI2S)
 8003a3c:	687b      	ldr	r3, [r7, #4]
 8003a3e:	6bdb      	ldr	r3, [r3, #60]	; 0x3c
 8003a40:	2b00      	cmp	r3, #0
 8003a42:	d101      	bne.n	8003a48 <HAL_RCCEx_PeriphCLKConfig+0x88>
    {
      plli2sused = 1U;
 8003a44:	2301      	movs	r3, #1
 8003a46:	62fb      	str	r3, [r7, #44]	; 0x2c
    }
  }
  /*--------------------------------------------------------------------------*/

  /*--------------------------- SAI1 configuration ---------------------------*/
  if(((PeriphClkInit->PeriphClockSelection) & RCC_PERIPHCLK_SAI1) == (RCC_PERIPHCLK_SAI1))
 8003a48:	687b      	ldr	r3, [r7, #4]
 8003a4a:	681b      	ldr	r3, [r3, #0]
 8003a4c:	f003 0304 	and.w	r3, r3, #4
 8003a50:	2b00      	cmp	r3, #0
 8003a52:	d017      	beq.n	8003a84 <HAL_RCCEx_PeriphCLKConfig+0xc4>
  {
    /* Check the parameters */
    assert_param(IS_RCC_SAI1CLKSOURCE(PeriphClkInit->Sai1ClockSelection));

    /* Configure SAI1 Clock source */
    __HAL_RCC_SAI1_CONFIG(PeriphClkInit->Sai1ClockSelection);
 8003a54:	4b58      	ldr	r3, [pc, #352]	; (8003bb8 <HAL_RCCEx_PeriphCLKConfig+0x1f8>)
 8003a56:	f8d3 308c 	ldr.w	r3, [r3, #140]	; 0x8c
 8003a5a:	f423 1240 	bic.w	r2, r3, #3145728	; 0x300000
 8003a5e:	687b      	ldr	r3, [r7, #4]
 8003a60:	6b1b      	ldr	r3, [r3, #48]	; 0x30
 8003a62:	4955      	ldr	r1, [pc, #340]	; (8003bb8 <HAL_RCCEx_PeriphCLKConfig+0x1f8>)
 8003a64:	4313      	orrs	r3, r2
 8003a66:	f8c1 308c 	str.w	r3, [r1, #140]	; 0x8c
    /* Enable the PLLI2S when it's used as clock source for SAI */
    if(PeriphClkInit->Sai1ClockSelection == RCC_SAI1CLKSOURCE_PLLI2S)
 8003a6a:	687b      	ldr	r3, [r7, #4]
 8003a6c:	6b1b      	ldr	r3, [r3, #48]	; 0x30
 8003a6e:	f5b3 1f80 	cmp.w	r3, #1048576	; 0x100000
 8003a72:	d101      	bne.n	8003a78 <HAL_RCCEx_PeriphCLKConfig+0xb8>
    {
      plli2sused = 1U;
 8003a74:	2301      	movs	r3, #1
 8003a76:	62fb      	str	r3, [r7, #44]	; 0x2c
    }
    /* Enable the PLLSAI when it's used as clock source for SAI */
    if(PeriphClkInit->Sai1ClockSelection == RCC_SAI1CLKSOURCE_PLLSAI)
 8003a78:	687b      	ldr	r3, [r7, #4]
 8003a7a:	6b1b      	ldr	r3, [r3, #48]	; 0x30
 8003a7c:	2b00      	cmp	r3, #0
 8003a7e:	d101      	bne.n	8003a84 <HAL_RCCEx_PeriphCLKConfig+0xc4>
    {
      pllsaiused = 1U;
 8003a80:	2301      	movs	r3, #1
 8003a82:	62bb      	str	r3, [r7, #40]	; 0x28
    }
  }
  /*--------------------------------------------------------------------------*/

  /*-------------------------- SAI2 configuration ----------------------------*/
  if(((PeriphClkInit->PeriphClockSelection) & RCC_PERIPHCLK_SAI2) == (RCC_PERIPHCLK_SAI2))
 8003a84:	687b      	ldr	r3, [r7, #4]
 8003a86:	681b      	ldr	r3, [r3, #0]
 8003a88:	f003 0308 	and.w	r3, r3, #8
 8003a8c:	2b00      	cmp	r3, #0
 8003a8e:	d017      	beq.n	8003ac0 <HAL_RCCEx_PeriphCLKConfig+0x100>
  {
    /* Check the parameters */
    assert_param(IS_RCC_SAI2CLKSOURCE(PeriphClkInit->Sai2ClockSelection));

    /* Configure SAI2 Clock source */
    __HAL_RCC_SAI2_CONFIG(PeriphClkInit->Sai2ClockSelection);
 8003a90:	4b49      	ldr	r3, [pc, #292]	; (8003bb8 <HAL_RCCEx_PeriphCLKConfig+0x1f8>)
 8003a92:	f8d3 308c 	ldr.w	r3, [r3, #140]	; 0x8c
 8003a96:	f423 0240 	bic.w	r2, r3, #12582912	; 0xc00000
 8003a9a:	687b      	ldr	r3, [r7, #4]
 8003a9c:	6b5b      	ldr	r3, [r3, #52]	; 0x34
 8003a9e:	4946      	ldr	r1, [pc, #280]	; (8003bb8 <HAL_RCCEx_PeriphCLKConfig+0x1f8>)
 8003aa0:	4313      	orrs	r3, r2
 8003aa2:	f8c1 308c 	str.w	r3, [r1, #140]	; 0x8c

    /* Enable the PLLI2S when it's used as clock source for SAI */
    if(PeriphClkInit->Sai2ClockSelection == RCC_SAI2CLKSOURCE_PLLI2S)
 8003aa6:	687b      	ldr	r3, [r7, #4]
 8003aa8:	6b5b      	ldr	r3, [r3, #52]	; 0x34
 8003aaa:	f5b3 0f80 	cmp.w	r3, #4194304	; 0x400000
 8003aae:	d101      	bne.n	8003ab4 <HAL_RCCEx_PeriphCLKConfig+0xf4>
    {
      plli2sused = 1U;
 8003ab0:	2301      	movs	r3, #1
 8003ab2:	62fb      	str	r3, [r7, #44]	; 0x2c
    }
    /* Enable the PLLSAI when it's used as clock source for SAI */
    if(PeriphClkInit->Sai2ClockSelection == RCC_SAI2CLKSOURCE_PLLSAI)
 8003ab4:	687b      	ldr	r3, [r7, #4]
 8003ab6:	6b5b      	ldr	r3, [r3, #52]	; 0x34
 8003ab8:	2b00      	cmp	r3, #0
 8003aba:	d101      	bne.n	8003ac0 <HAL_RCCEx_PeriphCLKConfig+0x100>
    {
      pllsaiused = 1U;
 8003abc:	2301      	movs	r3, #1
 8003abe:	62bb      	str	r3, [r7, #40]	; 0x28
    }
  }
  /*--------------------------------------------------------------------------*/

  /*----------------------------- RTC configuration --------------------------*/
  if(((PeriphClkInit->PeriphClockSelection) & RCC_PERIPHCLK_RTC) == (RCC_PERIPHCLK_RTC))
 8003ac0:	687b      	ldr	r3, [r7, #4]
 8003ac2:	681b      	ldr	r3, [r3, #0]
 8003ac4:	f003 0320 	and.w	r3, r3, #32
 8003ac8:	2b00      	cmp	r3, #0
 8003aca:	f000 808a 	beq.w	8003be2 <HAL_RCCEx_PeriphCLKConfig+0x222>
  {
    /* Check for RTC Parameters used to output RTCCLK */
    assert_param(IS_RCC_RTCCLKSOURCE(PeriphClkInit->RTCClockSelection));

    /* Enable Power Clock*/
    __HAL_RCC_PWR_CLK_ENABLE();
 8003ace:	2300      	movs	r3, #0
 8003ad0:	60bb      	str	r3, [r7, #8]
 8003ad2:	4b39      	ldr	r3, [pc, #228]	; (8003bb8 <HAL_RCCEx_PeriphCLKConfig+0x1f8>)
 8003ad4:	6c1b      	ldr	r3, [r3, #64]	; 0x40
 8003ad6:	4a38      	ldr	r2, [pc, #224]	; (8003bb8 <HAL_RCCEx_PeriphCLKConfig+0x1f8>)
 8003ad8:	f043 5380 	orr.w	r3, r3, #268435456	; 0x10000000
 8003adc:	6413      	str	r3, [r2, #64]	; 0x40
 8003ade:	4b36      	ldr	r3, [pc, #216]	; (8003bb8 <HAL_RCCEx_PeriphCLKConfig+0x1f8>)
 8003ae0:	6c1b      	ldr	r3, [r3, #64]	; 0x40
 8003ae2:	f003 5380 	and.w	r3, r3, #268435456	; 0x10000000
 8003ae6:	60bb      	str	r3, [r7, #8]
 8003ae8:	68bb      	ldr	r3, [r7, #8]

    /* Enable write access to Backup domain */
    PWR->CR |= PWR_CR_DBP;
 8003aea:	4b34      	ldr	r3, [pc, #208]	; (8003bbc <HAL_RCCEx_PeriphCLKConfig+0x1fc>)
 8003aec:	681b      	ldr	r3, [r3, #0]
 8003aee:	4a33      	ldr	r2, [pc, #204]	; (8003bbc <HAL_RCCEx_PeriphCLKConfig+0x1fc>)
 8003af0:	f443 7380 	orr.w	r3, r3, #256	; 0x100
 8003af4:	6013      	str	r3, [r2, #0]

    /* Get tick */
    tickstart = HAL_GetTick();
 8003af6:	f7fe ff3d 	bl	8002974 <HAL_GetTick>
 8003afa:	6278      	str	r0, [r7, #36]	; 0x24

    while((PWR->CR & PWR_CR_DBP) == RESET)
 8003afc:	e008      	b.n	8003b10 <HAL_RCCEx_PeriphCLKConfig+0x150>
    {
      if((HAL_GetTick() - tickstart ) > RCC_DBP_TIMEOUT_VALUE)
 8003afe:	f7fe ff39 	bl	8002974 <HAL_GetTick>
 8003b02:	4602      	mov	r2, r0
 8003b04:	6a7b      	ldr	r3, [r7, #36]	; 0x24
 8003b06:	1ad3      	subs	r3, r2, r3
 8003b08:	2b02      	cmp	r3, #2
 8003b0a:	d901      	bls.n	8003b10 <HAL_RCCEx_PeriphCLKConfig+0x150>
      {
        return HAL_TIMEOUT;
 8003b0c:	2303      	movs	r3, #3
 8003b0e:	e278      	b.n	8004002 <HAL_RCCEx_PeriphCLKConfig+0x642>
    while((PWR->CR & PWR_CR_DBP) == RESET)
 8003b10:	4b2a      	ldr	r3, [pc, #168]	; (8003bbc <HAL_RCCEx_PeriphCLKConfig+0x1fc>)
 8003b12:	681b      	ldr	r3, [r3, #0]
 8003b14:	f403 7380 	and.w	r3, r3, #256	; 0x100
 8003b18:	2b00      	cmp	r3, #0
 8003b1a:	d0f0      	beq.n	8003afe <HAL_RCCEx_PeriphCLKConfig+0x13e>
      }
    }
    /* Reset the Backup domain only if the RTC Clock source selection is modified from reset value */
    tmpreg1 = (RCC->BDCR & RCC_BDCR_RTCSEL);
 8003b1c:	4b26      	ldr	r3, [pc, #152]	; (8003bb8 <HAL_RCCEx_PeriphCLKConfig+0x1f8>)
 8003b1e:	6f1b      	ldr	r3, [r3, #112]	; 0x70
 8003b20:	f403 7340 	and.w	r3, r3, #768	; 0x300
 8003b24:	623b      	str	r3, [r7, #32]
    if((tmpreg1 != 0x00000000U) && ((tmpreg1) != (PeriphClkInit->RTCClockSelection & RCC_BDCR_RTCSEL)))
 8003b26:	6a3b      	ldr	r3, [r7, #32]
 8003b28:	2b00      	cmp	r3, #0
 8003b2a:	d02f      	beq.n	8003b8c <HAL_RCCEx_PeriphCLKConfig+0x1cc>
 8003b2c:	687b      	ldr	r3, [r7, #4]
 8003b2e:	6c1b      	ldr	r3, [r3, #64]	; 0x40
 8003b30:	f403 7340 	and.w	r3, r3, #768	; 0x300
 8003b34:	6a3a      	ldr	r2, [r7, #32]
 8003b36:	429a      	cmp	r2, r3
 8003b38:	d028      	beq.n	8003b8c <HAL_RCCEx_PeriphCLKConfig+0x1cc>
    {
      /* Store the content of BDCR register before the reset of Backup Domain */
      tmpreg1 = (RCC->BDCR & ~(RCC_BDCR_RTCSEL));
 8003b3a:	4b1f      	ldr	r3, [pc, #124]	; (8003bb8 <HAL_RCCEx_PeriphCLKConfig+0x1f8>)
 8003b3c:	6f1b      	ldr	r3, [r3, #112]	; 0x70
 8003b3e:	f423 7340 	bic.w	r3, r3, #768	; 0x300
 8003b42:	623b      	str	r3, [r7, #32]
      /* RTC Clock selection can be changed only if the Backup Domain is reset */
      __HAL_RCC_BACKUPRESET_FORCE();
 8003b44:	4b1e      	ldr	r3, [pc, #120]	; (8003bc0 <HAL_RCCEx_PeriphCLKConfig+0x200>)
 8003b46:	2201      	movs	r2, #1
 8003b48:	601a      	str	r2, [r3, #0]
      __HAL_RCC_BACKUPRESET_RELEASE();
 8003b4a:	4b1d      	ldr	r3, [pc, #116]	; (8003bc0 <HAL_RCCEx_PeriphCLKConfig+0x200>)
 8003b4c:	2200      	movs	r2, #0
 8003b4e:	601a      	str	r2, [r3, #0]
      /* Restore the Content of BDCR register */
      RCC->BDCR = tmpreg1;
 8003b50:	4a19      	ldr	r2, [pc, #100]	; (8003bb8 <HAL_RCCEx_PeriphCLKConfig+0x1f8>)
 8003b52:	6a3b      	ldr	r3, [r7, #32]
 8003b54:	6713      	str	r3, [r2, #112]	; 0x70

      /* Wait for LSE reactivation if LSE was enable prior to Backup Domain reset */
      if(HAL_IS_BIT_SET(RCC->BDCR, RCC_BDCR_LSEON))
 8003b56:	4b18      	ldr	r3, [pc, #96]	; (8003bb8 <HAL_RCCEx_PeriphCLKConfig+0x1f8>)
 8003b58:	6f1b      	ldr	r3, [r3, #112]	; 0x70
 8003b5a:	f003 0301 	and.w	r3, r3, #1
 8003b5e:	2b01      	cmp	r3, #1
 8003b60:	d114      	bne.n	8003b8c <HAL_RCCEx_PeriphCLKConfig+0x1cc>
      {
        /* Get tick */
        tickstart = HAL_GetTick();
 8003b62:	f7fe ff07 	bl	8002974 <HAL_GetTick>
 8003b66:	6278      	str	r0, [r7, #36]	; 0x24

        /* Wait till LSE is ready */
        while(__HAL_RCC_GET_FLAG(RCC_FLAG_LSERDY) == RESET)
 8003b68:	e00a      	b.n	8003b80 <HAL_RCCEx_PeriphCLKConfig+0x1c0>
        {
          if((HAL_GetTick() - tickstart ) > RCC_LSE_TIMEOUT_VALUE)
 8003b6a:	f7fe ff03 	bl	8002974 <HAL_GetTick>
 8003b6e:	4602      	mov	r2, r0
 8003b70:	6a7b      	ldr	r3, [r7, #36]	; 0x24
 8003b72:	1ad3      	subs	r3, r2, r3
 8003b74:	f241 3288 	movw	r2, #5000	; 0x1388
 8003b78:	4293      	cmp	r3, r2
 8003b7a:	d901      	bls.n	8003b80 <HAL_RCCEx_PeriphCLKConfig+0x1c0>
          {
            return HAL_TIMEOUT;
 8003b7c:	2303      	movs	r3, #3
 8003b7e:	e240      	b.n	8004002 <HAL_RCCEx_PeriphCLKConfig+0x642>
        while(__HAL_RCC_GET_FLAG(RCC_FLAG_LSERDY) == RESET)
 8003b80:	4b0d      	ldr	r3, [pc, #52]	; (8003bb8 <HAL_RCCEx_PeriphCLKConfig+0x1f8>)
 8003b82:	6f1b      	ldr	r3, [r3, #112]	; 0x70
 8003b84:	f003 0302 	and.w	r3, r3, #2
 8003b88:	2b00      	cmp	r3, #0
 8003b8a:	d0ee      	beq.n	8003b6a <HAL_RCCEx_PeriphCLKConfig+0x1aa>
          }
        }
      }
    }
    __HAL_RCC_RTC_CONFIG(PeriphClkInit->RTCClockSelection);
 8003b8c:	687b      	ldr	r3, [r7, #4]
 8003b8e:	6c1b      	ldr	r3, [r3, #64]	; 0x40
 8003b90:	f403 7340 	and.w	r3, r3, #768	; 0x300
 8003b94:	f5b3 7f40 	cmp.w	r3, #768	; 0x300
 8003b98:	d114      	bne.n	8003bc4 <HAL_RCCEx_PeriphCLKConfig+0x204>
 8003b9a:	4b07      	ldr	r3, [pc, #28]	; (8003bb8 <HAL_RCCEx_PeriphCLKConfig+0x1f8>)
 8003b9c:	689b      	ldr	r3, [r3, #8]
 8003b9e:	f423 12f8 	bic.w	r2, r3, #2031616	; 0x1f0000
 8003ba2:	687b      	ldr	r3, [r7, #4]
 8003ba4:	6c1b      	ldr	r3, [r3, #64]	; 0x40
 8003ba6:	f023 4370 	bic.w	r3, r3, #4026531840	; 0xf0000000
 8003baa:	f423 7340 	bic.w	r3, r3, #768	; 0x300
 8003bae:	4902      	ldr	r1, [pc, #8]	; (8003bb8 <HAL_RCCEx_PeriphCLKConfig+0x1f8>)
 8003bb0:	4313      	orrs	r3, r2
 8003bb2:	608b      	str	r3, [r1, #8]
 8003bb4:	e00c      	b.n	8003bd0 <HAL_RCCEx_PeriphCLKConfig+0x210>
 8003bb6:	bf00      	nop
 8003bb8:	40023800 	.word	0x40023800
 8003bbc:	40007000 	.word	0x40007000
 8003bc0:	42470e40 	.word	0x42470e40
 8003bc4:	4b4a      	ldr	r3, [pc, #296]	; (8003cf0 <HAL_RCCEx_PeriphCLKConfig+0x330>)
 8003bc6:	689b      	ldr	r3, [r3, #8]
 8003bc8:	4a49      	ldr	r2, [pc, #292]	; (8003cf0 <HAL_RCCEx_PeriphCLKConfig+0x330>)
 8003bca:	f423 13f8 	bic.w	r3, r3, #2031616	; 0x1f0000
 8003bce:	6093      	str	r3, [r2, #8]
 8003bd0:	4b47      	ldr	r3, [pc, #284]	; (8003cf0 <HAL_RCCEx_PeriphCLKConfig+0x330>)
 8003bd2:	6f1a      	ldr	r2, [r3, #112]	; 0x70
 8003bd4:	687b      	ldr	r3, [r7, #4]
 8003bd6:	6c1b      	ldr	r3, [r3, #64]	; 0x40
 8003bd8:	f3c3 030b 	ubfx	r3, r3, #0, #12
 8003bdc:	4944      	ldr	r1, [pc, #272]	; (8003cf0 <HAL_RCCEx_PeriphCLKConfig+0x330>)
 8003bde:	4313      	orrs	r3, r2
 8003be0:	670b      	str	r3, [r1, #112]	; 0x70
  }
  /*--------------------------------------------------------------------------*/

  /*---------------------------- TIM configuration ---------------------------*/
  if(((PeriphClkInit->PeriphClockSelection) & RCC_PERIPHCLK_TIM) == (RCC_PERIPHCLK_TIM))
 8003be2:	687b      	ldr	r3, [r7, #4]
 8003be4:	681b      	ldr	r3, [r3, #0]
 8003be6:	f003 0310 	and.w	r3, r3, #16
 8003bea:	2b00      	cmp	r3, #0
 8003bec:	d004      	beq.n	8003bf8 <HAL_RCCEx_PeriphCLKConfig+0x238>
  {
    /* Configure Timer Prescaler */
    __HAL_RCC_TIMCLKPRESCALER(PeriphClkInit->TIMPresSelection);
 8003bee:	687b      	ldr	r3, [r7, #4]
 8003bf0:	f893 2058 	ldrb.w	r2, [r3, #88]	; 0x58
 8003bf4:	4b3f      	ldr	r3, [pc, #252]	; (8003cf4 <HAL_RCCEx_PeriphCLKConfig+0x334>)
 8003bf6:	601a      	str	r2, [r3, #0]
  }
  /*--------------------------------------------------------------------------*/

  /*---------------------------- FMPI2C1 Configuration -----------------------*/
  if(((PeriphClkInit->PeriphClockSelection) & RCC_PERIPHCLK_FMPI2C1) == RCC_PERIPHCLK_FMPI2C1)
 8003bf8:	687b      	ldr	r3, [r7, #4]
 8003bfa:	681b      	ldr	r3, [r3, #0]
 8003bfc:	f003 0380 	and.w	r3, r3, #128	; 0x80
 8003c00:	2b00      	cmp	r3, #0
 8003c02:	d00a      	beq.n	8003c1a <HAL_RCCEx_PeriphCLKConfig+0x25a>
  {
    /* Check the parameters */
    assert_param(IS_RCC_FMPI2C1CLKSOURCE(PeriphClkInit->Fmpi2c1ClockSelection));

    /* Configure the FMPI2C1 clock source */
    __HAL_RCC_FMPI2C1_CONFIG(PeriphClkInit->Fmpi2c1ClockSelection);
 8003c04:	4b3a      	ldr	r3, [pc, #232]	; (8003cf0 <HAL_RCCEx_PeriphCLKConfig+0x330>)
 8003c06:	f8d3 3094 	ldr.w	r3, [r3, #148]	; 0x94
 8003c0a:	f423 0240 	bic.w	r2, r3, #12582912	; 0xc00000
 8003c0e:	687b      	ldr	r3, [r7, #4]
 8003c10:	6cdb      	ldr	r3, [r3, #76]	; 0x4c
 8003c12:	4937      	ldr	r1, [pc, #220]	; (8003cf0 <HAL_RCCEx_PeriphCLKConfig+0x330>)
 8003c14:	4313      	orrs	r3, r2
 8003c16:	f8c1 3094 	str.w	r3, [r1, #148]	; 0x94
  }
  /*--------------------------------------------------------------------------*/

  /*------------------------------ CEC Configuration -------------------------*/
  if(((PeriphClkInit->PeriphClockSelection) & RCC_PERIPHCLK_CEC) == RCC_PERIPHCLK_CEC)
 8003c1a:	687b      	ldr	r3, [r7, #4]
 8003c1c:	681b      	ldr	r3, [r3, #0]
 8003c1e:	f003 0340 	and.w	r3, r3, #64	; 0x40
 8003c22:	2b00      	cmp	r3, #0
 8003c24:	d00a      	beq.n	8003c3c <HAL_RCCEx_PeriphCLKConfig+0x27c>
  {
    /* Check the parameters */
    assert_param(IS_RCC_CECCLKSOURCE(PeriphClkInit->CecClockSelection));

    /* Configure the CEC clock source */
    __HAL_RCC_CEC_CONFIG(PeriphClkInit->CecClockSelection);
 8003c26:	4b32      	ldr	r3, [pc, #200]	; (8003cf0 <HAL_RCCEx_PeriphCLKConfig+0x330>)
 8003c28:	f8d3 3094 	ldr.w	r3, [r3, #148]	; 0x94
 8003c2c:	f023 6280 	bic.w	r2, r3, #67108864	; 0x4000000
 8003c30:	687b      	ldr	r3, [r7, #4]
 8003c32:	6c9b      	ldr	r3, [r3, #72]	; 0x48
 8003c34:	492e      	ldr	r1, [pc, #184]	; (8003cf0 <HAL_RCCEx_PeriphCLKConfig+0x330>)
 8003c36:	4313      	orrs	r3, r2
 8003c38:	f8c1 3094 	str.w	r3, [r1, #148]	; 0x94
  }
  /*--------------------------------------------------------------------------*/

  /*----------------------------- CLK48 Configuration ------------------------*/
  if(((PeriphClkInit->PeriphClockSelection) & RCC_PERIPHCLK_CLK48) == RCC_PERIPHCLK_CLK48)
 8003c3c:	687b      	ldr	r3, [r7, #4]
 8003c3e:	681b      	ldr	r3, [r3, #0]
 8003c40:	f403 7380 	and.w	r3, r3, #256	; 0x100
 8003c44:	2b00      	cmp	r3, #0
 8003c46:	d011      	beq.n	8003c6c <HAL_RCCEx_PeriphCLKConfig+0x2ac>
  {
    /* Check the parameters */
    assert_param(IS_RCC_CLK48CLKSOURCE(PeriphClkInit->Clk48ClockSelection));

    /* Configure the CLK48 clock source */
    __HAL_RCC_CLK48_CONFIG(PeriphClkInit->Clk48ClockSelection);
 8003c48:	4b29      	ldr	r3, [pc, #164]	; (8003cf0 <HAL_RCCEx_PeriphCLKConfig+0x330>)
 8003c4a:	f8d3 3094 	ldr.w	r3, [r3, #148]	; 0x94
 8003c4e:	f023 6200 	bic.w	r2, r3, #134217728	; 0x8000000
 8003c52:	687b      	ldr	r3, [r7, #4]
 8003c54:	6d5b      	ldr	r3, [r3, #84]	; 0x54
 8003c56:	4926      	ldr	r1, [pc, #152]	; (8003cf0 <HAL_RCCEx_PeriphCLKConfig+0x330>)
 8003c58:	4313      	orrs	r3, r2
 8003c5a:	f8c1 3094 	str.w	r3, [r1, #148]	; 0x94

    /* Enable the PLLSAI when it's used as clock source for CLK48 */
    if(PeriphClkInit->Clk48ClockSelection == RCC_CLK48CLKSOURCE_PLLSAIP)
 8003c5e:	687b      	ldr	r3, [r7, #4]
 8003c60:	6d5b      	ldr	r3, [r3, #84]	; 0x54
 8003c62:	f1b3 6f00 	cmp.w	r3, #134217728	; 0x8000000
 8003c66:	d101      	bne.n	8003c6c <HAL_RCCEx_PeriphCLKConfig+0x2ac>
    {
      pllsaiused = 1U;
 8003c68:	2301      	movs	r3, #1
 8003c6a:	62bb      	str	r3, [r7, #40]	; 0x28
    }
  }
  /*--------------------------------------------------------------------------*/

  /*----------------------------- SDIO Configuration -------------------------*/
  if(((PeriphClkInit->PeriphClockSelection) & RCC_PERIPHCLK_SDIO) == RCC_PERIPHCLK_SDIO)
 8003c6c:	687b      	ldr	r3, [r7, #4]
 8003c6e:	681b      	ldr	r3, [r3, #0]
 8003c70:	f403 7300 	and.w	r3, r3, #512	; 0x200
 8003c74:	2b00      	cmp	r3, #0
 8003c76:	d00a      	beq.n	8003c8e <HAL_RCCEx_PeriphCLKConfig+0x2ce>
  {
    /* Check the parameters */
    assert_param(IS_RCC_SDIOCLKSOURCE(PeriphClkInit->SdioClockSelection));

    /* Configure the SDIO clock source */
    __HAL_RCC_SDIO_CONFIG(PeriphClkInit->SdioClockSelection);
 8003c78:	4b1d      	ldr	r3, [pc, #116]	; (8003cf0 <HAL_RCCEx_PeriphCLKConfig+0x330>)
 8003c7a:	f8d3 3094 	ldr.w	r3, [r3, #148]	; 0x94
 8003c7e:	f023 5280 	bic.w	r2, r3, #268435456	; 0x10000000
 8003c82:	687b      	ldr	r3, [r7, #4]
 8003c84:	6c5b      	ldr	r3, [r3, #68]	; 0x44
 8003c86:	491a      	ldr	r1, [pc, #104]	; (8003cf0 <HAL_RCCEx_PeriphCLKConfig+0x330>)
 8003c88:	4313      	orrs	r3, r2
 8003c8a:	f8c1 3094 	str.w	r3, [r1, #148]	; 0x94
  }
  /*--------------------------------------------------------------------------*/

  /*------------------------------ SPDIFRX Configuration ---------------------*/
  if(((PeriphClkInit->PeriphClockSelection) & RCC_PERIPHCLK_SPDIFRX) == RCC_PERIPHCLK_SPDIFRX)
 8003c8e:	687b      	ldr	r3, [r7, #4]
 8003c90:	681b      	ldr	r3, [r3, #0]
 8003c92:	f403 6380 	and.w	r3, r3, #1024	; 0x400
 8003c96:	2b00      	cmp	r3, #0
 8003c98:	d011      	beq.n	8003cbe <HAL_RCCEx_PeriphCLKConfig+0x2fe>
  {
    /* Check the parameters */
    assert_param(IS_RCC_SPDIFRXCLKSOURCE(PeriphClkInit->SpdifClockSelection));

    /* Configure the SPDIFRX clock source */
    __HAL_RCC_SPDIFRX_CONFIG(PeriphClkInit->SpdifClockSelection);
 8003c9a:	4b15      	ldr	r3, [pc, #84]	; (8003cf0 <HAL_RCCEx_PeriphCLKConfig+0x330>)
 8003c9c:	f8d3 3094 	ldr.w	r3, [r3, #148]	; 0x94
 8003ca0:	f023 5200 	bic.w	r2, r3, #536870912	; 0x20000000
 8003ca4:	687b      	ldr	r3, [r7, #4]
 8003ca6:	6d1b      	ldr	r3, [r3, #80]	; 0x50
 8003ca8:	4911      	ldr	r1, [pc, #68]	; (8003cf0 <HAL_RCCEx_PeriphCLKConfig+0x330>)
 8003caa:	4313      	orrs	r3, r2
 8003cac:	f8c1 3094 	str.w	r3, [r1, #148]	; 0x94
    /* Enable the PLLI2S when it's used as clock source for SPDIFRX */
    if(PeriphClkInit->SpdifClockSelection == RCC_SPDIFRXCLKSOURCE_PLLI2SP)
 8003cb0:	687b      	ldr	r3, [r7, #4]
 8003cb2:	6d1b      	ldr	r3, [r3, #80]	; 0x50
 8003cb4:	f1b3 5f00 	cmp.w	r3, #536870912	; 0x20000000
 8003cb8:	d101      	bne.n	8003cbe <HAL_RCCEx_PeriphCLKConfig+0x2fe>
    {
      plli2sused = 1U;
 8003cba:	2301      	movs	r3, #1
 8003cbc:	62fb      	str	r3, [r7, #44]	; 0x2c
  /*--------------------------------------------------------------------------*/

  /*---------------------------- PLLI2S Configuration ------------------------*/
  /* PLLI2S is configured when a peripheral will use it as source clock : SAI1, SAI2, I2S on APB1,
     I2S on APB2 or SPDIFRX */
  if((plli2sused == 1U) || (PeriphClkInit->PeriphClockSelection == RCC_PERIPHCLK_PLLI2S))
 8003cbe:	6afb      	ldr	r3, [r7, #44]	; 0x2c
 8003cc0:	2b01      	cmp	r3, #1
 8003cc2:	d005      	beq.n	8003cd0 <HAL_RCCEx_PeriphCLKConfig+0x310>
 8003cc4:	687b      	ldr	r3, [r7, #4]
 8003cc6:	681b      	ldr	r3, [r3, #0]
 8003cc8:	f5b3 6f00 	cmp.w	r3, #2048	; 0x800
 8003ccc:	f040 80ff 	bne.w	8003ece <HAL_RCCEx_PeriphCLKConfig+0x50e>
  {
    /* Disable the PLLI2S */
    __HAL_RCC_PLLI2S_DISABLE();
 8003cd0:	4b09      	ldr	r3, [pc, #36]	; (8003cf8 <HAL_RCCEx_PeriphCLKConfig+0x338>)
 8003cd2:	2200      	movs	r2, #0
 8003cd4:	601a      	str	r2, [r3, #0]
    /* Get tick */
    tickstart = HAL_GetTick();
 8003cd6:	f7fe fe4d 	bl	8002974 <HAL_GetTick>
 8003cda:	6278      	str	r0, [r7, #36]	; 0x24
    /* Wait till PLLI2S is disabled */
    while(__HAL_RCC_GET_FLAG(RCC_FLAG_PLLI2SRDY)  != RESET)
 8003cdc:	e00e      	b.n	8003cfc <HAL_RCCEx_PeriphCLKConfig+0x33c>
    {
      if((HAL_GetTick() - tickstart ) > PLLI2S_TIMEOUT_VALUE)
 8003cde:	f7fe fe49 	bl	8002974 <HAL_GetTick>
 8003ce2:	4602      	mov	r2, r0
 8003ce4:	6a7b      	ldr	r3, [r7, #36]	; 0x24
 8003ce6:	1ad3      	subs	r3, r2, r3
 8003ce8:	2b02      	cmp	r3, #2
 8003cea:	d907      	bls.n	8003cfc <HAL_RCCEx_PeriphCLKConfig+0x33c>
      {
        /* return in case of Timeout detected */
        return HAL_TIMEOUT;
 8003cec:	2303      	movs	r3, #3
 8003cee:	e188      	b.n	8004002 <HAL_RCCEx_PeriphCLKConfig+0x642>
 8003cf0:	40023800 	.word	0x40023800
 8003cf4:	424711e0 	.word	0x424711e0
 8003cf8:	42470068 	.word	0x42470068
    while(__HAL_RCC_GET_FLAG(RCC_FLAG_PLLI2SRDY)  != RESET)
 8003cfc:	4b7e      	ldr	r3, [pc, #504]	; (8003ef8 <HAL_RCCEx_PeriphCLKConfig+0x538>)
 8003cfe:	681b      	ldr	r3, [r3, #0]
 8003d00:	f003 6300 	and.w	r3, r3, #134217728	; 0x8000000
 8003d04:	2b00      	cmp	r3, #0
 8003d06:	d1ea      	bne.n	8003cde <HAL_RCCEx_PeriphCLKConfig+0x31e>
    /* check for common PLLI2S Parameters */
    assert_param(IS_RCC_PLLI2SM_VALUE(PeriphClkInit->PLLI2S.PLLI2SM));
    assert_param(IS_RCC_PLLI2SN_VALUE(PeriphClkInit->PLLI2S.PLLI2SN));

    /*------ In Case of PLLI2S is selected as source clock for I2S -----------*/
    if(((((PeriphClkInit->PeriphClockSelection) & RCC_PERIPHCLK_I2S_APB1) == RCC_PERIPHCLK_I2S_APB1) && (PeriphClkInit->I2sApb1ClockSelection == RCC_I2SAPB1CLKSOURCE_PLLI2S)) ||
 8003d08:	687b      	ldr	r3, [r7, #4]
 8003d0a:	681b      	ldr	r3, [r3, #0]
 8003d0c:	f003 0301 	and.w	r3, r3, #1
 8003d10:	2b00      	cmp	r3, #0
 8003d12:	d003      	beq.n	8003d1c <HAL_RCCEx_PeriphCLKConfig+0x35c>
 8003d14:	687b      	ldr	r3, [r7, #4]
 8003d16:	6b9b      	ldr	r3, [r3, #56]	; 0x38
 8003d18:	2b00      	cmp	r3, #0
 8003d1a:	d009      	beq.n	8003d30 <HAL_RCCEx_PeriphCLKConfig+0x370>
       ((((PeriphClkInit->PeriphClockSelection) & RCC_PERIPHCLK_I2S_APB2) == RCC_PERIPHCLK_I2S_APB2) && (PeriphClkInit->I2sApb2ClockSelection == RCC_I2SAPB2CLKSOURCE_PLLI2S)))
 8003d1c:	687b      	ldr	r3, [r7, #4]
 8003d1e:	681b      	ldr	r3, [r3, #0]
 8003d20:	f003 0302 	and.w	r3, r3, #2
    if(((((PeriphClkInit->PeriphClockSelection) & RCC_PERIPHCLK_I2S_APB1) == RCC_PERIPHCLK_I2S_APB1) && (PeriphClkInit->I2sApb1ClockSelection == RCC_I2SAPB1CLKSOURCE_PLLI2S)) ||
 8003d24:	2b00      	cmp	r3, #0
 8003d26:	d028      	beq.n	8003d7a <HAL_RCCEx_PeriphCLKConfig+0x3ba>
       ((((PeriphClkInit->PeriphClockSelection) & RCC_PERIPHCLK_I2S_APB2) == RCC_PERIPHCLK_I2S_APB2) && (PeriphClkInit->I2sApb2ClockSelection == RCC_I2SAPB2CLKSOURCE_PLLI2S)))
 8003d28:	687b      	ldr	r3, [r7, #4]
 8003d2a:	6bdb      	ldr	r3, [r3, #60]	; 0x3c
 8003d2c:	2b00      	cmp	r3, #0
 8003d2e:	d124      	bne.n	8003d7a <HAL_RCCEx_PeriphCLKConfig+0x3ba>
    {
      /* check for Parameters */
      assert_param(IS_RCC_PLLI2SR_VALUE(PeriphClkInit->PLLI2S.PLLI2SR));

      /* Read PLLI2SP/PLLI2SQ value from PLLI2SCFGR register (this value is not needed for I2S configuration) */
      plli2sp = ((((RCC->PLLI2SCFGR & RCC_PLLI2SCFGR_PLLI2SP) >> RCC_PLLI2SCFGR_PLLI2SP_Pos) + 1U) << 1U);
 8003d30:	4b71      	ldr	r3, [pc, #452]	; (8003ef8 <HAL_RCCEx_PeriphCLKConfig+0x538>)
 8003d32:	f8d3 3084 	ldr.w	r3, [r3, #132]	; 0x84
 8003d36:	0c1b      	lsrs	r3, r3, #16
 8003d38:	f003 0303 	and.w	r3, r3, #3
 8003d3c:	3301      	adds	r3, #1
 8003d3e:	005b      	lsls	r3, r3, #1
 8003d40:	61fb      	str	r3, [r7, #28]
      plli2sq = ((RCC->PLLI2SCFGR & RCC_PLLI2SCFGR_PLLI2SQ) >> RCC_PLLI2SCFGR_PLLI2SQ_Pos);
 8003d42:	4b6d      	ldr	r3, [pc, #436]	; (8003ef8 <HAL_RCCEx_PeriphCLKConfig+0x538>)
 8003d44:	f8d3 3084 	ldr.w	r3, [r3, #132]	; 0x84
 8003d48:	0e1b      	lsrs	r3, r3, #24
 8003d4a:	f003 030f 	and.w	r3, r3, #15
 8003d4e:	61bb      	str	r3, [r7, #24]
      /* Configure the PLLI2S division factors */
      /* PLLI2S_VCO = f(VCO clock) = f(PLLI2S clock input) * (PLLI2SN/PLLI2SM) */
      /* I2SCLK = f(PLLI2S clock output) = f(VCO clock) / PLLI2SR */
      __HAL_RCC_PLLI2S_CONFIG(PeriphClkInit->PLLI2S.PLLI2SM, PeriphClkInit->PLLI2S.PLLI2SN , plli2sp, plli2sq, PeriphClkInit->PLLI2S.PLLI2SR);
 8003d50:	687b      	ldr	r3, [r7, #4]
 8003d52:	685a      	ldr	r2, [r3, #4]
 8003d54:	687b      	ldr	r3, [r7, #4]
 8003d56:	689b      	ldr	r3, [r3, #8]
 8003d58:	019b      	lsls	r3, r3, #6
 8003d5a:	431a      	orrs	r2, r3
 8003d5c:	69fb      	ldr	r3, [r7, #28]
 8003d5e:	085b      	lsrs	r3, r3, #1
 8003d60:	3b01      	subs	r3, #1
 8003d62:	041b      	lsls	r3, r3, #16
 8003d64:	431a      	orrs	r2, r3
 8003d66:	69bb      	ldr	r3, [r7, #24]
 8003d68:	061b      	lsls	r3, r3, #24
 8003d6a:	431a      	orrs	r2, r3
 8003d6c:	687b      	ldr	r3, [r7, #4]
 8003d6e:	695b      	ldr	r3, [r3, #20]
 8003d70:	071b      	lsls	r3, r3, #28
 8003d72:	4961      	ldr	r1, [pc, #388]	; (8003ef8 <HAL_RCCEx_PeriphCLKConfig+0x538>)
 8003d74:	4313      	orrs	r3, r2
 8003d76:	f8c1 3084 	str.w	r3, [r1, #132]	; 0x84
    }

    /*------- In Case of PLLI2S is selected as source clock for SAI ----------*/
    if(((((PeriphClkInit->PeriphClockSelection) & RCC_PERIPHCLK_SAI1) == RCC_PERIPHCLK_SAI1) && (PeriphClkInit->Sai1ClockSelection == RCC_SAI1CLKSOURCE_PLLI2S)) ||
 8003d7a:	687b      	ldr	r3, [r7, #4]
 8003d7c:	681b      	ldr	r3, [r3, #0]
 8003d7e:	f003 0304 	and.w	r3, r3, #4
 8003d82:	2b00      	cmp	r3, #0
 8003d84:	d004      	beq.n	8003d90 <HAL_RCCEx_PeriphCLKConfig+0x3d0>
 8003d86:	687b      	ldr	r3, [r7, #4]
 8003d88:	6b1b      	ldr	r3, [r3, #48]	; 0x30
 8003d8a:	f5b3 1f80 	cmp.w	r3, #1048576	; 0x100000
 8003d8e:	d00a      	beq.n	8003da6 <HAL_RCCEx_PeriphCLKConfig+0x3e6>
       ((((PeriphClkInit->PeriphClockSelection) & RCC_PERIPHCLK_SAI2) == RCC_PERIPHCLK_SAI2) && (PeriphClkInit->Sai2ClockSelection == RCC_SAI2CLKSOURCE_PLLI2S)))
 8003d90:	687b      	ldr	r3, [r7, #4]
 8003d92:	681b      	ldr	r3, [r3, #0]
 8003d94:	f003 0308 	and.w	r3, r3, #8
    if(((((PeriphClkInit->PeriphClockSelection) & RCC_PERIPHCLK_SAI1) == RCC_PERIPHCLK_SAI1) && (PeriphClkInit->Sai1ClockSelection == RCC_SAI1CLKSOURCE_PLLI2S)) ||
 8003d98:	2b00      	cmp	r3, #0
 8003d9a:	d035      	beq.n	8003e08 <HAL_RCCEx_PeriphCLKConfig+0x448>
       ((((PeriphClkInit->PeriphClockSelection) & RCC_PERIPHCLK_SAI2) == RCC_PERIPHCLK_SAI2) && (PeriphClkInit->Sai2ClockSelection == RCC_SAI2CLKSOURCE_PLLI2S)))
 8003d9c:	687b      	ldr	r3, [r7, #4]
 8003d9e:	6b5b      	ldr	r3, [r3, #52]	; 0x34
 8003da0:	f5b3 0f80 	cmp.w	r3, #4194304	; 0x400000
 8003da4:	d130      	bne.n	8003e08 <HAL_RCCEx_PeriphCLKConfig+0x448>
      assert_param(IS_RCC_PLLI2SQ_VALUE(PeriphClkInit->PLLI2S.PLLI2SQ));
      /* Check for PLLI2S/DIVQ parameters */
      assert_param(IS_RCC_PLLI2S_DIVQ_VALUE(PeriphClkInit->PLLI2SDivQ));

      /* Read PLLI2SP/PLLI2SR value from PLLI2SCFGR register (this value is not needed for SAI configuration) */
      plli2sp = ((((RCC->PLLI2SCFGR & RCC_PLLI2SCFGR_PLLI2SP) >> RCC_PLLI2SCFGR_PLLI2SP_Pos) + 1U) << 1U);
 8003da6:	4b54      	ldr	r3, [pc, #336]	; (8003ef8 <HAL_RCCEx_PeriphCLKConfig+0x538>)
 8003da8:	f8d3 3084 	ldr.w	r3, [r3, #132]	; 0x84
 8003dac:	0c1b      	lsrs	r3, r3, #16
 8003dae:	f003 0303 	and.w	r3, r3, #3
 8003db2:	3301      	adds	r3, #1
 8003db4:	005b      	lsls	r3, r3, #1
 8003db6:	61fb      	str	r3, [r7, #28]
      plli2sr = ((RCC->PLLI2SCFGR & RCC_PLLI2SCFGR_PLLI2SR) >> RCC_PLLI2SCFGR_PLLI2SR_Pos);
 8003db8:	4b4f      	ldr	r3, [pc, #316]	; (8003ef8 <HAL_RCCEx_PeriphCLKConfig+0x538>)
 8003dba:	f8d3 3084 	ldr.w	r3, [r3, #132]	; 0x84
 8003dbe:	0f1b      	lsrs	r3, r3, #28
 8003dc0:	f003 0307 	and.w	r3, r3, #7
 8003dc4:	617b      	str	r3, [r7, #20]
      /* Configure the PLLI2S division factors */
      /* PLLI2S_VCO Input  = PLL_SOURCE/PLLI2SM */
      /* PLLI2S_VCO Output = PLLI2S_VCO Input * PLLI2SN */
      /* SAI_CLK(first level) = PLLI2S_VCO Output/PLLI2SQ */
      __HAL_RCC_PLLI2S_CONFIG(PeriphClkInit->PLLI2S.PLLI2SM, PeriphClkInit->PLLI2S.PLLI2SN , plli2sp, PeriphClkInit->PLLI2S.PLLI2SQ, plli2sr);
 8003dc6:	687b      	ldr	r3, [r7, #4]
 8003dc8:	685a      	ldr	r2, [r3, #4]
 8003dca:	687b      	ldr	r3, [r7, #4]
 8003dcc:	689b      	ldr	r3, [r3, #8]
 8003dce:	019b      	lsls	r3, r3, #6
 8003dd0:	431a      	orrs	r2, r3
 8003dd2:	69fb      	ldr	r3, [r7, #28]
 8003dd4:	085b      	lsrs	r3, r3, #1
 8003dd6:	3b01      	subs	r3, #1
 8003dd8:	041b      	lsls	r3, r3, #16
 8003dda:	431a      	orrs	r2, r3
 8003ddc:	687b      	ldr	r3, [r7, #4]
 8003dde:	691b      	ldr	r3, [r3, #16]
 8003de0:	061b      	lsls	r3, r3, #24
 8003de2:	431a      	orrs	r2, r3
 8003de4:	697b      	ldr	r3, [r7, #20]
 8003de6:	071b      	lsls	r3, r3, #28
 8003de8:	4943      	ldr	r1, [pc, #268]	; (8003ef8 <HAL_RCCEx_PeriphCLKConfig+0x538>)
 8003dea:	4313      	orrs	r3, r2
 8003dec:	f8c1 3084 	str.w	r3, [r1, #132]	; 0x84

      /* SAI_CLK_x = SAI_CLK(first level)/PLLI2SDIVQ */
      __HAL_RCC_PLLI2S_PLLSAICLKDIVQ_CONFIG(PeriphClkInit->PLLI2SDivQ);
 8003df0:	4b41      	ldr	r3, [pc, #260]	; (8003ef8 <HAL_RCCEx_PeriphCLKConfig+0x538>)
 8003df2:	f8d3 308c 	ldr.w	r3, [r3, #140]	; 0x8c
 8003df6:	f023 021f 	bic.w	r2, r3, #31
 8003dfa:	687b      	ldr	r3, [r7, #4]
 8003dfc:	6a9b      	ldr	r3, [r3, #40]	; 0x28
 8003dfe:	3b01      	subs	r3, #1
 8003e00:	493d      	ldr	r1, [pc, #244]	; (8003ef8 <HAL_RCCEx_PeriphCLKConfig+0x538>)
 8003e02:	4313      	orrs	r3, r2
 8003e04:	f8c1 308c 	str.w	r3, [r1, #140]	; 0x8c
    }

    /*------ In Case of PLLI2S is selected as source clock for SPDIFRX -------*/
    if((((PeriphClkInit->PeriphClockSelection) & RCC_PERIPHCLK_SPDIFRX) == RCC_PERIPHCLK_SPDIFRX) && (PeriphClkInit->SpdifClockSelection == RCC_SPDIFRXCLKSOURCE_PLLI2SP))
 8003e08:	687b      	ldr	r3, [r7, #4]
 8003e0a:	681b      	ldr	r3, [r3, #0]
 8003e0c:	f403 6380 	and.w	r3, r3, #1024	; 0x400
 8003e10:	2b00      	cmp	r3, #0
 8003e12:	d029      	beq.n	8003e68 <HAL_RCCEx_PeriphCLKConfig+0x4a8>
 8003e14:	687b      	ldr	r3, [r7, #4]
 8003e16:	6d1b      	ldr	r3, [r3, #80]	; 0x50
 8003e18:	f1b3 5f00 	cmp.w	r3, #536870912	; 0x20000000
 8003e1c:	d124      	bne.n	8003e68 <HAL_RCCEx_PeriphCLKConfig+0x4a8>
    {
      /* check for Parameters */
      assert_param(IS_RCC_PLLI2SP_VALUE(PeriphClkInit->PLLI2S.PLLI2SP));
      /* Read PLLI2SR value from PLLI2SCFGR register (this value is not need for SAI configuration) */
      plli2sq = ((((RCC->PLLI2SCFGR & RCC_PLLI2SCFGR_PLLI2SP) >> RCC_PLLI2SCFGR_PLLI2SP_Pos) + 1U) << 1U);
 8003e1e:	4b36      	ldr	r3, [pc, #216]	; (8003ef8 <HAL_RCCEx_PeriphCLKConfig+0x538>)
 8003e20:	f8d3 3084 	ldr.w	r3, [r3, #132]	; 0x84
 8003e24:	0c1b      	lsrs	r3, r3, #16
 8003e26:	f003 0303 	and.w	r3, r3, #3
 8003e2a:	3301      	adds	r3, #1
 8003e2c:	005b      	lsls	r3, r3, #1
 8003e2e:	61bb      	str	r3, [r7, #24]
      plli2sr = ((RCC->PLLI2SCFGR & RCC_PLLI2SCFGR_PLLI2SR) >> RCC_PLLI2SCFGR_PLLI2SR_Pos);
 8003e30:	4b31      	ldr	r3, [pc, #196]	; (8003ef8 <HAL_RCCEx_PeriphCLKConfig+0x538>)
 8003e32:	f8d3 3084 	ldr.w	r3, [r3, #132]	; 0x84
 8003e36:	0f1b      	lsrs	r3, r3, #28
 8003e38:	f003 0307 	and.w	r3, r3, #7
 8003e3c:	617b      	str	r3, [r7, #20]
      /* Configure the PLLI2S division factors */
      /* PLLI2S_VCO = f(VCO clock) = f(PLLI2S clock input) * (PLLI2SN/PLLI2SM) */
      /* SPDIFRXCLK = f(PLLI2S clock output) = f(VCO clock) / PLLI2SP */
      __HAL_RCC_PLLI2S_CONFIG(PeriphClkInit->PLLI2S.PLLI2SM, PeriphClkInit->PLLI2S.PLLI2SN , PeriphClkInit->PLLI2S.PLLI2SP, plli2sq, plli2sr);
 8003e3e:	687b      	ldr	r3, [r7, #4]
 8003e40:	685a      	ldr	r2, [r3, #4]
 8003e42:	687b      	ldr	r3, [r7, #4]
 8003e44:	689b      	ldr	r3, [r3, #8]
 8003e46:	019b      	lsls	r3, r3, #6
 8003e48:	431a      	orrs	r2, r3
 8003e4a:	687b      	ldr	r3, [r7, #4]
 8003e4c:	68db      	ldr	r3, [r3, #12]
 8003e4e:	085b      	lsrs	r3, r3, #1
 8003e50:	3b01      	subs	r3, #1
 8003e52:	041b      	lsls	r3, r3, #16
 8003e54:	431a      	orrs	r2, r3
 8003e56:	69bb      	ldr	r3, [r7, #24]
 8003e58:	061b      	lsls	r3, r3, #24
 8003e5a:	431a      	orrs	r2, r3
 8003e5c:	697b      	ldr	r3, [r7, #20]
 8003e5e:	071b      	lsls	r3, r3, #28
 8003e60:	4925      	ldr	r1, [pc, #148]	; (8003ef8 <HAL_RCCEx_PeriphCLKConfig+0x538>)
 8003e62:	4313      	orrs	r3, r2
 8003e64:	f8c1 3084 	str.w	r3, [r1, #132]	; 0x84
    }

     /*----------------- In Case of PLLI2S is just selected  -----------------*/
    if((PeriphClkInit->PeriphClockSelection & RCC_PERIPHCLK_PLLI2S) == RCC_PERIPHCLK_PLLI2S)
 8003e68:	687b      	ldr	r3, [r7, #4]
 8003e6a:	681b      	ldr	r3, [r3, #0]
 8003e6c:	f403 6300 	and.w	r3, r3, #2048	; 0x800
 8003e70:	2b00      	cmp	r3, #0
 8003e72:	d016      	beq.n	8003ea2 <HAL_RCCEx_PeriphCLKConfig+0x4e2>
      assert_param(IS_RCC_PLLI2SR_VALUE(PeriphClkInit->PLLI2S.PLLI2SR));
      assert_param(IS_RCC_PLLI2SQ_VALUE(PeriphClkInit->PLLI2S.PLLI2SQ));

      /* Configure the PLLI2S division factors */
      /* PLLI2S_VCO = f(VCO clock) = f(PLLI2S clock input) * (PLLI2SN/PLLI2SM) */
      __HAL_RCC_PLLI2S_CONFIG(PeriphClkInit->PLLI2S.PLLI2SM, PeriphClkInit->PLLI2S.PLLI2SN , PeriphClkInit->PLLI2S.PLLI2SP, PeriphClkInit->PLLI2S.PLLI2SQ, PeriphClkInit->PLLI2S.PLLI2SR);
 8003e74:	687b      	ldr	r3, [r7, #4]
 8003e76:	685a      	ldr	r2, [r3, #4]
 8003e78:	687b      	ldr	r3, [r7, #4]
 8003e7a:	689b      	ldr	r3, [r3, #8]
 8003e7c:	019b      	lsls	r3, r3, #6
 8003e7e:	431a      	orrs	r2, r3
 8003e80:	687b      	ldr	r3, [r7, #4]
 8003e82:	68db      	ldr	r3, [r3, #12]
 8003e84:	085b      	lsrs	r3, r3, #1
 8003e86:	3b01      	subs	r3, #1
 8003e88:	041b      	lsls	r3, r3, #16
 8003e8a:	431a      	orrs	r2, r3
 8003e8c:	687b      	ldr	r3, [r7, #4]
 8003e8e:	691b      	ldr	r3, [r3, #16]
 8003e90:	061b      	lsls	r3, r3, #24
 8003e92:	431a      	orrs	r2, r3
 8003e94:	687b      	ldr	r3, [r7, #4]
 8003e96:	695b      	ldr	r3, [r3, #20]
 8003e98:	071b      	lsls	r3, r3, #28
 8003e9a:	4917      	ldr	r1, [pc, #92]	; (8003ef8 <HAL_RCCEx_PeriphCLKConfig+0x538>)
 8003e9c:	4313      	orrs	r3, r2
 8003e9e:	f8c1 3084 	str.w	r3, [r1, #132]	; 0x84
    }

    /* Enable the PLLI2S */
    __HAL_RCC_PLLI2S_ENABLE();
 8003ea2:	4b16      	ldr	r3, [pc, #88]	; (8003efc <HAL_RCCEx_PeriphCLKConfig+0x53c>)
 8003ea4:	2201      	movs	r2, #1
 8003ea6:	601a      	str	r2, [r3, #0]
    /* Get tick */
    tickstart = HAL_GetTick();
 8003ea8:	f7fe fd64 	bl	8002974 <HAL_GetTick>
 8003eac:	6278      	str	r0, [r7, #36]	; 0x24
    /* Wait till PLLI2S is ready */
    while(__HAL_RCC_GET_FLAG(RCC_FLAG_PLLI2SRDY)  == RESET)
 8003eae:	e008      	b.n	8003ec2 <HAL_RCCEx_PeriphCLKConfig+0x502>
    {
      if((HAL_GetTick() - tickstart ) > PLLI2S_TIMEOUT_VALUE)
 8003eb0:	f7fe fd60 	bl	8002974 <HAL_GetTick>
 8003eb4:	4602      	mov	r2, r0
 8003eb6:	6a7b      	ldr	r3, [r7, #36]	; 0x24
 8003eb8:	1ad3      	subs	r3, r2, r3
 8003eba:	2b02      	cmp	r3, #2
 8003ebc:	d901      	bls.n	8003ec2 <HAL_RCCEx_PeriphCLKConfig+0x502>
      {
        /* return in case of Timeout detected */
        return HAL_TIMEOUT;
 8003ebe:	2303      	movs	r3, #3
 8003ec0:	e09f      	b.n	8004002 <HAL_RCCEx_PeriphCLKConfig+0x642>
    while(__HAL_RCC_GET_FLAG(RCC_FLAG_PLLI2SRDY)  == RESET)
 8003ec2:	4b0d      	ldr	r3, [pc, #52]	; (8003ef8 <HAL_RCCEx_PeriphCLKConfig+0x538>)
 8003ec4:	681b      	ldr	r3, [r3, #0]
 8003ec6:	f003 6300 	and.w	r3, r3, #134217728	; 0x8000000
 8003eca:	2b00      	cmp	r3, #0
 8003ecc:	d0f0      	beq.n	8003eb0 <HAL_RCCEx_PeriphCLKConfig+0x4f0>
  }
  /*--------------------------------------------------------------------------*/

  /*----------------------------- PLLSAI Configuration -----------------------*/
  /* PLLSAI is configured when a peripheral will use it as source clock : SAI1, SAI2, CLK48 or SDIO */
  if(pllsaiused == 1U)
 8003ece:	6abb      	ldr	r3, [r7, #40]	; 0x28
 8003ed0:	2b01      	cmp	r3, #1
 8003ed2:	f040 8095 	bne.w	8004000 <HAL_RCCEx_PeriphCLKConfig+0x640>
  {
    /* Disable PLLSAI Clock */
    __HAL_RCC_PLLSAI_DISABLE();
 8003ed6:	4b0a      	ldr	r3, [pc, #40]	; (8003f00 <HAL_RCCEx_PeriphCLKConfig+0x540>)
 8003ed8:	2200      	movs	r2, #0
 8003eda:	601a      	str	r2, [r3, #0]
    /* Get tick */
    tickstart = HAL_GetTick();
 8003edc:	f7fe fd4a 	bl	8002974 <HAL_GetTick>
 8003ee0:	6278      	str	r0, [r7, #36]	; 0x24
    /* Wait till PLLSAI is disabled */
    while(__HAL_RCC_PLLSAI_GET_FLAG() != RESET)
 8003ee2:	e00f      	b.n	8003f04 <HAL_RCCEx_PeriphCLKConfig+0x544>
    {
      if((HAL_GetTick() - tickstart ) > PLLSAI_TIMEOUT_VALUE)
 8003ee4:	f7fe fd46 	bl	8002974 <HAL_GetTick>
 8003ee8:	4602      	mov	r2, r0
 8003eea:	6a7b      	ldr	r3, [r7, #36]	; 0x24
 8003eec:	1ad3      	subs	r3, r2, r3
 8003eee:	2b02      	cmp	r3, #2
 8003ef0:	d908      	bls.n	8003f04 <HAL_RCCEx_PeriphCLKConfig+0x544>
      {
        /* return in case of Timeout detected */
        return HAL_TIMEOUT;
 8003ef2:	2303      	movs	r3, #3
 8003ef4:	e085      	b.n	8004002 <HAL_RCCEx_PeriphCLKConfig+0x642>
 8003ef6:	bf00      	nop
 8003ef8:	40023800 	.word	0x40023800
 8003efc:	42470068 	.word	0x42470068
 8003f00:	42470070 	.word	0x42470070
    while(__HAL_RCC_PLLSAI_GET_FLAG() != RESET)
 8003f04:	4b41      	ldr	r3, [pc, #260]	; (800400c <HAL_RCCEx_PeriphCLKConfig+0x64c>)
 8003f06:	681b      	ldr	r3, [r3, #0]
 8003f08:	f003 5300 	and.w	r3, r3, #536870912	; 0x20000000
 8003f0c:	f1b3 5f00 	cmp.w	r3, #536870912	; 0x20000000
 8003f10:	d0e8      	beq.n	8003ee4 <HAL_RCCEx_PeriphCLKConfig+0x524>
    /* Check the PLLSAI division factors */
    assert_param(IS_RCC_PLLSAIM_VALUE(PeriphClkInit->PLLSAI.PLLSAIM));
    assert_param(IS_RCC_PLLSAIN_VALUE(PeriphClkInit->PLLSAI.PLLSAIN));

    /*------ In Case of PLLSAI is selected as source clock for SAI -----------*/
    if(((((PeriphClkInit->PeriphClockSelection) & RCC_PERIPHCLK_SAI1) == RCC_PERIPHCLK_SAI1) && (PeriphClkInit->Sai1ClockSelection == RCC_SAI1CLKSOURCE_PLLSAI)) ||
 8003f12:	687b      	ldr	r3, [r7, #4]
 8003f14:	681b      	ldr	r3, [r3, #0]
 8003f16:	f003 0304 	and.w	r3, r3, #4
 8003f1a:	2b00      	cmp	r3, #0
 8003f1c:	d003      	beq.n	8003f26 <HAL_RCCEx_PeriphCLKConfig+0x566>
 8003f1e:	687b      	ldr	r3, [r7, #4]
 8003f20:	6b1b      	ldr	r3, [r3, #48]	; 0x30
 8003f22:	2b00      	cmp	r3, #0
 8003f24:	d009      	beq.n	8003f3a <HAL_RCCEx_PeriphCLKConfig+0x57a>
       ((((PeriphClkInit->PeriphClockSelection) & RCC_PERIPHCLK_SAI2) == RCC_PERIPHCLK_SAI2) && (PeriphClkInit->Sai2ClockSelection == RCC_SAI2CLKSOURCE_PLLSAI)))
 8003f26:	687b      	ldr	r3, [r7, #4]
 8003f28:	681b      	ldr	r3, [r3, #0]
 8003f2a:	f003 0308 	and.w	r3, r3, #8
    if(((((PeriphClkInit->PeriphClockSelection) & RCC_PERIPHCLK_SAI1) == RCC_PERIPHCLK_SAI1) && (PeriphClkInit->Sai1ClockSelection == RCC_SAI1CLKSOURCE_PLLSAI)) ||
 8003f2e:	2b00      	cmp	r3, #0
 8003f30:	d02b      	beq.n	8003f8a <HAL_RCCEx_PeriphCLKConfig+0x5ca>
       ((((PeriphClkInit->PeriphClockSelection) & RCC_PERIPHCLK_SAI2) == RCC_PERIPHCLK_SAI2) && (PeriphClkInit->Sai2ClockSelection == RCC_SAI2CLKSOURCE_PLLSAI)))
 8003f32:	687b      	ldr	r3, [r7, #4]
 8003f34:	6b5b      	ldr	r3, [r3, #52]	; 0x34
 8003f36:	2b00      	cmp	r3, #0
 8003f38:	d127      	bne.n	8003f8a <HAL_RCCEx_PeriphCLKConfig+0x5ca>
      assert_param(IS_RCC_PLLSAIQ_VALUE(PeriphClkInit->PLLSAI.PLLSAIQ));
      /* check for PLLSAI/DIVQ Parameter */
      assert_param(IS_RCC_PLLSAI_DIVQ_VALUE(PeriphClkInit->PLLSAIDivQ));

      /* Read PLLSAIP value from PLLSAICFGR register (this value is not needed for SAI configuration) */
      pllsaip = ((((RCC->PLLSAICFGR & RCC_PLLSAICFGR_PLLSAIP) >> RCC_PLLSAICFGR_PLLSAIP_Pos) + 1U) << 1U);
 8003f3a:	4b34      	ldr	r3, [pc, #208]	; (800400c <HAL_RCCEx_PeriphCLKConfig+0x64c>)
 8003f3c:	f8d3 3088 	ldr.w	r3, [r3, #136]	; 0x88
 8003f40:	0c1b      	lsrs	r3, r3, #16
 8003f42:	f003 0303 	and.w	r3, r3, #3
 8003f46:	3301      	adds	r3, #1
 8003f48:	005b      	lsls	r3, r3, #1
 8003f4a:	613b      	str	r3, [r7, #16]
      /* PLLSAI_VCO Input  = PLL_SOURCE/PLLM */
      /* PLLSAI_VCO Output = PLLSAI_VCO Input * PLLSAIN */
      /* SAI_CLK(first level) = PLLSAI_VCO Output/PLLSAIQ */
      __HAL_RCC_PLLSAI_CONFIG(PeriphClkInit->PLLSAI.PLLSAIM, PeriphClkInit->PLLSAI.PLLSAIN , pllsaip, PeriphClkInit->PLLSAI.PLLSAIQ, 0U);
 8003f4c:	687b      	ldr	r3, [r7, #4]
 8003f4e:	699a      	ldr	r2, [r3, #24]
 8003f50:	687b      	ldr	r3, [r7, #4]
 8003f52:	69db      	ldr	r3, [r3, #28]
 8003f54:	019b      	lsls	r3, r3, #6
 8003f56:	431a      	orrs	r2, r3
 8003f58:	693b      	ldr	r3, [r7, #16]
 8003f5a:	085b      	lsrs	r3, r3, #1
 8003f5c:	3b01      	subs	r3, #1
 8003f5e:	041b      	lsls	r3, r3, #16
 8003f60:	431a      	orrs	r2, r3
 8003f62:	687b      	ldr	r3, [r7, #4]
 8003f64:	6a5b      	ldr	r3, [r3, #36]	; 0x24
 8003f66:	061b      	lsls	r3, r3, #24
 8003f68:	4928      	ldr	r1, [pc, #160]	; (800400c <HAL_RCCEx_PeriphCLKConfig+0x64c>)
 8003f6a:	4313      	orrs	r3, r2
 8003f6c:	f8c1 3088 	str.w	r3, [r1, #136]	; 0x88

      /* SAI_CLK_x = SAI_CLK(first level)/PLLSAIDIVQ */
      __HAL_RCC_PLLSAI_PLLSAICLKDIVQ_CONFIG(PeriphClkInit->PLLSAIDivQ);
 8003f70:	4b26      	ldr	r3, [pc, #152]	; (800400c <HAL_RCCEx_PeriphCLKConfig+0x64c>)
 8003f72:	f8d3 308c 	ldr.w	r3, [r3, #140]	; 0x8c
 8003f76:	f423 52f8 	bic.w	r2, r3, #7936	; 0x1f00
 8003f7a:	687b      	ldr	r3, [r7, #4]
 8003f7c:	6adb      	ldr	r3, [r3, #44]	; 0x2c
 8003f7e:	3b01      	subs	r3, #1
 8003f80:	021b      	lsls	r3, r3, #8
 8003f82:	4922      	ldr	r1, [pc, #136]	; (800400c <HAL_RCCEx_PeriphCLKConfig+0x64c>)
 8003f84:	4313      	orrs	r3, r2
 8003f86:	f8c1 308c 	str.w	r3, [r1, #140]	; 0x8c
    }

    /*------ In Case of PLLSAI is selected as source clock for CLK48 ---------*/
    /* In Case of PLLI2S is selected as source clock for CLK48 */
    if((((PeriphClkInit->PeriphClockSelection) & RCC_PERIPHCLK_CLK48) == RCC_PERIPHCLK_CLK48) && (PeriphClkInit->Clk48ClockSelection == RCC_CLK48CLKSOURCE_PLLSAIP))
 8003f8a:	687b      	ldr	r3, [r7, #4]
 8003f8c:	681b      	ldr	r3, [r3, #0]
 8003f8e:	f403 7380 	and.w	r3, r3, #256	; 0x100
 8003f92:	2b00      	cmp	r3, #0
 8003f94:	d01d      	beq.n	8003fd2 <HAL_RCCEx_PeriphCLKConfig+0x612>
 8003f96:	687b      	ldr	r3, [r7, #4]
 8003f98:	6d5b      	ldr	r3, [r3, #84]	; 0x54
 8003f9a:	f1b3 6f00 	cmp.w	r3, #134217728	; 0x8000000
 8003f9e:	d118      	bne.n	8003fd2 <HAL_RCCEx_PeriphCLKConfig+0x612>
    {
      /* check for Parameters */
      assert_param(IS_RCC_PLLSAIP_VALUE(PeriphClkInit->PLLSAI.PLLSAIP));
      /* Read PLLSAIQ value from PLLI2SCFGR register (this value is not need for SAI configuration) */
      pllsaiq = ((RCC->PLLSAICFGR & RCC_PLLSAICFGR_PLLSAIQ) >> RCC_PLLSAICFGR_PLLSAIQ_Pos);
 8003fa0:	4b1a      	ldr	r3, [pc, #104]	; (800400c <HAL_RCCEx_PeriphCLKConfig+0x64c>)
 8003fa2:	f8d3 3088 	ldr.w	r3, [r3, #136]	; 0x88
 8003fa6:	0e1b      	lsrs	r3, r3, #24
 8003fa8:	f003 030f 	and.w	r3, r3, #15
 8003fac:	60fb      	str	r3, [r7, #12]
      /* Configure the PLLSAI division factors */
      /* PLLSAI_VCO = f(VCO clock) = f(PLLSAI clock input) * (PLLI2SN/PLLSAIM) */
      /* 48CLK = f(PLLSAI clock output) = f(VCO clock) / PLLSAIP */
      __HAL_RCC_PLLSAI_CONFIG(PeriphClkInit->PLLSAI.PLLSAIM, PeriphClkInit->PLLSAI.PLLSAIN , PeriphClkInit->PLLSAI.PLLSAIP, pllsaiq, 0U);
 8003fae:	687b      	ldr	r3, [r7, #4]
 8003fb0:	699a      	ldr	r2, [r3, #24]
 8003fb2:	687b      	ldr	r3, [r7, #4]
 8003fb4:	69db      	ldr	r3, [r3, #28]
 8003fb6:	019b      	lsls	r3, r3, #6
 8003fb8:	431a      	orrs	r2, r3
 8003fba:	687b      	ldr	r3, [r7, #4]
 8003fbc:	6a1b      	ldr	r3, [r3, #32]
 8003fbe:	085b      	lsrs	r3, r3, #1
 8003fc0:	3b01      	subs	r3, #1
 8003fc2:	041b      	lsls	r3, r3, #16
 8003fc4:	431a      	orrs	r2, r3
 8003fc6:	68fb      	ldr	r3, [r7, #12]
 8003fc8:	061b      	lsls	r3, r3, #24
 8003fca:	4910      	ldr	r1, [pc, #64]	; (800400c <HAL_RCCEx_PeriphCLKConfig+0x64c>)
 8003fcc:	4313      	orrs	r3, r2
 8003fce:	f8c1 3088 	str.w	r3, [r1, #136]	; 0x88
    }

    /* Enable PLLSAI Clock */
    __HAL_RCC_PLLSAI_ENABLE();
 8003fd2:	4b0f      	ldr	r3, [pc, #60]	; (8004010 <HAL_RCCEx_PeriphCLKConfig+0x650>)
 8003fd4:	2201      	movs	r2, #1
 8003fd6:	601a      	str	r2, [r3, #0]
    /* Get tick */
    tickstart = HAL_GetTick();
 8003fd8:	f7fe fccc 	bl	8002974 <HAL_GetTick>
 8003fdc:	6278      	str	r0, [r7, #36]	; 0x24
    /* Wait till PLLSAI is ready */
    while(__HAL_RCC_PLLSAI_GET_FLAG() == RESET)
 8003fde:	e008      	b.n	8003ff2 <HAL_RCCEx_PeriphCLKConfig+0x632>
    {
      if((HAL_GetTick() - tickstart ) > PLLSAI_TIMEOUT_VALUE)
 8003fe0:	f7fe fcc8 	bl	8002974 <HAL_GetTick>
 8003fe4:	4602      	mov	r2, r0
 8003fe6:	6a7b      	ldr	r3, [r7, #36]	; 0x24
 8003fe8:	1ad3      	subs	r3, r2, r3
 8003fea:	2b02      	cmp	r3, #2
 8003fec:	d901      	bls.n	8003ff2 <HAL_RCCEx_PeriphCLKConfig+0x632>
      {
        /* return in case of Timeout detected */
        return HAL_TIMEOUT;
 8003fee:	2303      	movs	r3, #3
 8003ff0:	e007      	b.n	8004002 <HAL_RCCEx_PeriphCLKConfig+0x642>
    while(__HAL_RCC_PLLSAI_GET_FLAG() == RESET)
 8003ff2:	4b06      	ldr	r3, [pc, #24]	; (800400c <HAL_RCCEx_PeriphCLKConfig+0x64c>)
 8003ff4:	681b      	ldr	r3, [r3, #0]
 8003ff6:	f003 5300 	and.w	r3, r3, #536870912	; 0x20000000
 8003ffa:	f1b3 5f00 	cmp.w	r3, #536870912	; 0x20000000
 8003ffe:	d1ef      	bne.n	8003fe0 <HAL_RCCEx_PeriphCLKConfig+0x620>
      }
    }
  }
  return HAL_OK;
 8004000:	2300      	movs	r3, #0
}
 8004002:	4618      	mov	r0, r3
 8004004:	3730      	adds	r7, #48	; 0x30
 8004006:	46bd      	mov	sp, r7
 8004008:	bd80      	pop	{r7, pc}
 800400a:	bf00      	nop
 800400c:	40023800 	.word	0x40023800
 8004010:	42470070 	.word	0x42470070

08004014 <HAL_RCCEx_GetPeriphCLKFreq>:
  *            @arg RCC_PERIPHCLK_I2S_APB1: I2S APB1 peripheral clock
  *            @arg RCC_PERIPHCLK_I2S_APB2: I2S APB2 peripheral clock
  * @retval Frequency in KHz
  */
uint32_t HAL_RCCEx_GetPeriphCLKFreq(uint32_t PeriphClk)
{
 8004014:	b480      	push	{r7}
 8004016:	b089      	sub	sp, #36	; 0x24
 8004018:	af00      	add	r7, sp, #0
 800401a:	6078      	str	r0, [r7, #4]
  uint32_t tmpreg1 = 0U;
 800401c:	2300      	movs	r3, #0
 800401e:	617b      	str	r3, [r7, #20]
  /* This variable used to store the SAI clock frequency (value in Hz) */
  uint32_t frequency = 0U;
 8004020:	2300      	movs	r3, #0
 8004022:	61fb      	str	r3, [r7, #28]
  /* This variable used to store the VCO Input (value in Hz) */
  uint32_t vcoinput = 0U;
 8004024:	2300      	movs	r3, #0
 8004026:	61bb      	str	r3, [r7, #24]
  /* This variable used to store the SAI clock source */
  uint32_t saiclocksource = 0U;
 8004028:	2300      	movs	r3, #0
 800402a:	613b      	str	r3, [r7, #16]
  uint32_t srcclk = 0U;
 800402c:	2300      	movs	r3, #0
 800402e:	60fb      	str	r3, [r7, #12]
  /* This variable used to store the VCO Output (value in Hz) */
  uint32_t vcooutput = 0U;
 8004030:	2300      	movs	r3, #0
 8004032:	60bb      	str	r3, [r7, #8]
  switch (PeriphClk)
 8004034:	687b      	ldr	r3, [r7, #4]
 8004036:	3b01      	subs	r3, #1
 8004038:	2b07      	cmp	r3, #7
 800403a:	f200 8224 	bhi.w	8004486 <HAL_RCCEx_GetPeriphCLKFreq+0x472>
 800403e:	a201      	add	r2, pc, #4	; (adr r2, 8004044 <HAL_RCCEx_GetPeriphCLKFreq+0x30>)
 8004040:	f852 f023 	ldr.w	pc, [r2, r3, lsl #2]
 8004044:	08004247 	.word	0x08004247
 8004048:	08004371 	.word	0x08004371
 800404c:	08004487 	.word	0x08004487
 8004050:	08004065 	.word	0x08004065
 8004054:	08004487 	.word	0x08004487
 8004058:	08004487 	.word	0x08004487
 800405c:	08004487 	.word	0x08004487
 8004060:	08004065 	.word	0x08004065
  {
  case RCC_PERIPHCLK_SAI1:
  case RCC_PERIPHCLK_SAI2:
    {
      saiclocksource = RCC->DCKCFGR;
 8004064:	4ba8      	ldr	r3, [pc, #672]	; (8004308 <HAL_RCCEx_GetPeriphCLKFreq+0x2f4>)
 8004066:	f8d3 308c 	ldr.w	r3, [r3, #140]	; 0x8c
 800406a:	613b      	str	r3, [r7, #16]
      saiclocksource &= (RCC_DCKCFGR_SAI1SRC | RCC_DCKCFGR_SAI2SRC);
 800406c:	693b      	ldr	r3, [r7, #16]
 800406e:	f403 0370 	and.w	r3, r3, #15728640	; 0xf00000
 8004072:	613b      	str	r3, [r7, #16]
 8004074:	693b      	ldr	r3, [r7, #16]
 8004076:	f5b3 0f40 	cmp.w	r3, #12582912	; 0xc00000
 800407a:	f000 80d6 	beq.w	800422a <HAL_RCCEx_GetPeriphCLKFreq+0x216>
 800407e:	693b      	ldr	r3, [r7, #16]
 8004080:	f5b3 0f40 	cmp.w	r3, #12582912	; 0xc00000
 8004084:	f200 80dd 	bhi.w	8004242 <HAL_RCCEx_GetPeriphCLKFreq+0x22e>
 8004088:	693b      	ldr	r3, [r7, #16]
 800408a:	f5b3 0f00 	cmp.w	r3, #8388608	; 0x800000
 800408e:	f000 809f 	beq.w	80041d0 <HAL_RCCEx_GetPeriphCLKFreq+0x1bc>
 8004092:	693b      	ldr	r3, [r7, #16]
 8004094:	f5b3 0f00 	cmp.w	r3, #8388608	; 0x800000
 8004098:	f200 80d3 	bhi.w	8004242 <HAL_RCCEx_GetPeriphCLKFreq+0x22e>
 800409c:	693b      	ldr	r3, [r7, #16]
 800409e:	f5b3 0f80 	cmp.w	r3, #4194304	; 0x400000
 80040a2:	d05b      	beq.n	800415c <HAL_RCCEx_GetPeriphCLKFreq+0x148>
 80040a4:	693b      	ldr	r3, [r7, #16]
 80040a6:	f5b3 0f80 	cmp.w	r3, #4194304	; 0x400000
 80040aa:	f200 80ca 	bhi.w	8004242 <HAL_RCCEx_GetPeriphCLKFreq+0x22e>
 80040ae:	693b      	ldr	r3, [r7, #16]
 80040b0:	f5b3 1f40 	cmp.w	r3, #3145728	; 0x300000
 80040b4:	f000 80b6 	beq.w	8004224 <HAL_RCCEx_GetPeriphCLKFreq+0x210>
 80040b8:	693b      	ldr	r3, [r7, #16]
 80040ba:	f5b3 1f40 	cmp.w	r3, #3145728	; 0x300000
 80040be:	f200 80c0 	bhi.w	8004242 <HAL_RCCEx_GetPeriphCLKFreq+0x22e>
 80040c2:	693b      	ldr	r3, [r7, #16]
 80040c4:	f5b3 1f00 	cmp.w	r3, #2097152	; 0x200000
 80040c8:	f000 8082 	beq.w	80041d0 <HAL_RCCEx_GetPeriphCLKFreq+0x1bc>
 80040cc:	693b      	ldr	r3, [r7, #16]
 80040ce:	f5b3 1f00 	cmp.w	r3, #2097152	; 0x200000
 80040d2:	f200 80b6 	bhi.w	8004242 <HAL_RCCEx_GetPeriphCLKFreq+0x22e>
 80040d6:	693b      	ldr	r3, [r7, #16]
 80040d8:	2b00      	cmp	r3, #0
 80040da:	d004      	beq.n	80040e6 <HAL_RCCEx_GetPeriphCLKFreq+0xd2>
 80040dc:	693b      	ldr	r3, [r7, #16]
 80040de:	f5b3 1f80 	cmp.w	r3, #1048576	; 0x100000
 80040e2:	d03b      	beq.n	800415c <HAL_RCCEx_GetPeriphCLKFreq+0x148>
          }
          break;
        }
      default :
        {
          break;
 80040e4:	e0ad      	b.n	8004242 <HAL_RCCEx_GetPeriphCLKFreq+0x22e>
          if((RCC->PLLCFGR & RCC_PLLCFGR_PLLSRC) == RCC_PLLSOURCE_HSI)
 80040e6:	4b88      	ldr	r3, [pc, #544]	; (8004308 <HAL_RCCEx_GetPeriphCLKFreq+0x2f4>)
 80040e8:	685b      	ldr	r3, [r3, #4]
 80040ea:	f403 0380 	and.w	r3, r3, #4194304	; 0x400000
 80040ee:	2b00      	cmp	r3, #0
 80040f0:	d109      	bne.n	8004106 <HAL_RCCEx_GetPeriphCLKFreq+0xf2>
            vcoinput = (HSI_VALUE / (uint32_t)(RCC->PLLSAICFGR & RCC_PLLSAICFGR_PLLSAIM));
 80040f2:	4b85      	ldr	r3, [pc, #532]	; (8004308 <HAL_RCCEx_GetPeriphCLKFreq+0x2f4>)
 80040f4:	f8d3 3088 	ldr.w	r3, [r3, #136]	; 0x88
 80040f8:	f003 033f 	and.w	r3, r3, #63	; 0x3f
 80040fc:	4a83      	ldr	r2, [pc, #524]	; (800430c <HAL_RCCEx_GetPeriphCLKFreq+0x2f8>)
 80040fe:	fbb2 f3f3 	udiv	r3, r2, r3
 8004102:	61bb      	str	r3, [r7, #24]
 8004104:	e008      	b.n	8004118 <HAL_RCCEx_GetPeriphCLKFreq+0x104>
            vcoinput = ((HSE_VALUE / (uint32_t)(RCC->PLLSAICFGR & RCC_PLLSAICFGR_PLLSAIM)));
 8004106:	4b80      	ldr	r3, [pc, #512]	; (8004308 <HAL_RCCEx_GetPeriphCLKFreq+0x2f4>)
 8004108:	f8d3 3088 	ldr.w	r3, [r3, #136]	; 0x88
 800410c:	f003 033f 	and.w	r3, r3, #63	; 0x3f
 8004110:	4a7f      	ldr	r2, [pc, #508]	; (8004310 <HAL_RCCEx_GetPeriphCLKFreq+0x2fc>)
 8004112:	fbb2 f3f3 	udiv	r3, r2, r3
 8004116:	61bb      	str	r3, [r7, #24]
          tmpreg1 = (RCC->PLLSAICFGR & RCC_PLLSAICFGR_PLLSAIQ) >> 24U;
 8004118:	4b7b      	ldr	r3, [pc, #492]	; (8004308 <HAL_RCCEx_GetPeriphCLKFreq+0x2f4>)
 800411a:	f8d3 3088 	ldr.w	r3, [r3, #136]	; 0x88
 800411e:	0e1b      	lsrs	r3, r3, #24
 8004120:	f003 030f 	and.w	r3, r3, #15
 8004124:	617b      	str	r3, [r7, #20]
          frequency = (vcoinput * ((RCC->PLLSAICFGR & RCC_PLLSAICFGR_PLLSAIN) >> 6U))/(tmpreg1);
 8004126:	4b78      	ldr	r3, [pc, #480]	; (8004308 <HAL_RCCEx_GetPeriphCLKFreq+0x2f4>)
 8004128:	f8d3 3088 	ldr.w	r3, [r3, #136]	; 0x88
 800412c:	099b      	lsrs	r3, r3, #6
 800412e:	f3c3 0308 	ubfx	r3, r3, #0, #9
 8004132:	69ba      	ldr	r2, [r7, #24]
 8004134:	fb03 f202 	mul.w	r2, r3, r2
 8004138:	697b      	ldr	r3, [r7, #20]
 800413a:	fbb2 f3f3 	udiv	r3, r2, r3
 800413e:	61fb      	str	r3, [r7, #28]
          tmpreg1 = (((RCC->DCKCFGR & RCC_DCKCFGR_PLLSAIDIVQ) >> 8U) + 1U);
 8004140:	4b71      	ldr	r3, [pc, #452]	; (8004308 <HAL_RCCEx_GetPeriphCLKFreq+0x2f4>)
 8004142:	f8d3 308c 	ldr.w	r3, [r3, #140]	; 0x8c
 8004146:	0a1b      	lsrs	r3, r3, #8
 8004148:	f003 031f 	and.w	r3, r3, #31
 800414c:	3301      	adds	r3, #1
 800414e:	617b      	str	r3, [r7, #20]
          frequency = frequency/(tmpreg1);
 8004150:	69fa      	ldr	r2, [r7, #28]
 8004152:	697b      	ldr	r3, [r7, #20]
 8004154:	fbb2 f3f3 	udiv	r3, r2, r3
 8004158:	61fb      	str	r3, [r7, #28]
          break;
 800415a:	e073      	b.n	8004244 <HAL_RCCEx_GetPeriphCLKFreq+0x230>
          if((RCC->PLLCFGR & RCC_PLLCFGR_PLLSRC) == RCC_PLLSOURCE_HSI)
 800415c:	4b6a      	ldr	r3, [pc, #424]	; (8004308 <HAL_RCCEx_GetPeriphCLKFreq+0x2f4>)
 800415e:	685b      	ldr	r3, [r3, #4]
 8004160:	f403 0380 	and.w	r3, r3, #4194304	; 0x400000
 8004164:	2b00      	cmp	r3, #0
 8004166:	d109      	bne.n	800417c <HAL_RCCEx_GetPeriphCLKFreq+0x168>
            vcoinput = (HSI_VALUE / (uint32_t)(RCC->PLLI2SCFGR & RCC_PLLI2SCFGR_PLLI2SM));
 8004168:	4b67      	ldr	r3, [pc, #412]	; (8004308 <HAL_RCCEx_GetPeriphCLKFreq+0x2f4>)
 800416a:	f8d3 3084 	ldr.w	r3, [r3, #132]	; 0x84
 800416e:	f003 033f 	and.w	r3, r3, #63	; 0x3f
 8004172:	4a66      	ldr	r2, [pc, #408]	; (800430c <HAL_RCCEx_GetPeriphCLKFreq+0x2f8>)
 8004174:	fbb2 f3f3 	udiv	r3, r2, r3
 8004178:	61bb      	str	r3, [r7, #24]
 800417a:	e008      	b.n	800418e <HAL_RCCEx_GetPeriphCLKFreq+0x17a>
            vcoinput = ((HSE_VALUE / (uint32_t)(RCC->PLLI2SCFGR & RCC_PLLI2SCFGR_PLLI2SM)));
 800417c:	4b62      	ldr	r3, [pc, #392]	; (8004308 <HAL_RCCEx_GetPeriphCLKFreq+0x2f4>)
 800417e:	f8d3 3084 	ldr.w	r3, [r3, #132]	; 0x84
 8004182:	f003 033f 	and.w	r3, r3, #63	; 0x3f
 8004186:	4a62      	ldr	r2, [pc, #392]	; (8004310 <HAL_RCCEx_GetPeriphCLKFreq+0x2fc>)
 8004188:	fbb2 f3f3 	udiv	r3, r2, r3
 800418c:	61bb      	str	r3, [r7, #24]
          tmpreg1 = (RCC->PLLI2SCFGR & RCC_PLLI2SCFGR_PLLI2SQ) >> 24U;
 800418e:	4b5e      	ldr	r3, [pc, #376]	; (8004308 <HAL_RCCEx_GetPeriphCLKFreq+0x2f4>)
 8004190:	f8d3 3084 	ldr.w	r3, [r3, #132]	; 0x84
 8004194:	0e1b      	lsrs	r3, r3, #24
 8004196:	f003 030f 	and.w	r3, r3, #15
 800419a:	617b      	str	r3, [r7, #20]
          frequency = (vcoinput * ((RCC->PLLI2SCFGR & RCC_PLLI2SCFGR_PLLI2SN) >> 6U))/(tmpreg1);
 800419c:	4b5a      	ldr	r3, [pc, #360]	; (8004308 <HAL_RCCEx_GetPeriphCLKFreq+0x2f4>)
 800419e:	f8d3 3084 	ldr.w	r3, [r3, #132]	; 0x84
 80041a2:	099b      	lsrs	r3, r3, #6
 80041a4:	f3c3 0308 	ubfx	r3, r3, #0, #9
 80041a8:	69ba      	ldr	r2, [r7, #24]
 80041aa:	fb03 f202 	mul.w	r2, r3, r2
 80041ae:	697b      	ldr	r3, [r7, #20]
 80041b0:	fbb2 f3f3 	udiv	r3, r2, r3
 80041b4:	61fb      	str	r3, [r7, #28]
          tmpreg1 = ((RCC->DCKCFGR & RCC_DCKCFGR_PLLI2SDIVQ) + 1U);
 80041b6:	4b54      	ldr	r3, [pc, #336]	; (8004308 <HAL_RCCEx_GetPeriphCLKFreq+0x2f4>)
 80041b8:	f8d3 308c 	ldr.w	r3, [r3, #140]	; 0x8c
 80041bc:	f003 031f 	and.w	r3, r3, #31
 80041c0:	3301      	adds	r3, #1
 80041c2:	617b      	str	r3, [r7, #20]
          frequency = frequency/(tmpreg1);
 80041c4:	69fa      	ldr	r2, [r7, #28]
 80041c6:	697b      	ldr	r3, [r7, #20]
 80041c8:	fbb2 f3f3 	udiv	r3, r2, r3
 80041cc:	61fb      	str	r3, [r7, #28]
          break;
 80041ce:	e039      	b.n	8004244 <HAL_RCCEx_GetPeriphCLKFreq+0x230>
          if((RCC->PLLCFGR & RCC_PLLCFGR_PLLSRC) == RCC_PLLSOURCE_HSI)
 80041d0:	4b4d      	ldr	r3, [pc, #308]	; (8004308 <HAL_RCCEx_GetPeriphCLKFreq+0x2f4>)
 80041d2:	685b      	ldr	r3, [r3, #4]
 80041d4:	f403 0380 	and.w	r3, r3, #4194304	; 0x400000
 80041d8:	2b00      	cmp	r3, #0
 80041da:	d108      	bne.n	80041ee <HAL_RCCEx_GetPeriphCLKFreq+0x1da>
            vcoinput = (HSI_VALUE / (uint32_t)(RCC->PLLCFGR & RCC_PLLCFGR_PLLM));
 80041dc:	4b4a      	ldr	r3, [pc, #296]	; (8004308 <HAL_RCCEx_GetPeriphCLKFreq+0x2f4>)
 80041de:	685b      	ldr	r3, [r3, #4]
 80041e0:	f003 033f 	and.w	r3, r3, #63	; 0x3f
 80041e4:	4a49      	ldr	r2, [pc, #292]	; (800430c <HAL_RCCEx_GetPeriphCLKFreq+0x2f8>)
 80041e6:	fbb2 f3f3 	udiv	r3, r2, r3
 80041ea:	61bb      	str	r3, [r7, #24]
 80041ec:	e007      	b.n	80041fe <HAL_RCCEx_GetPeriphCLKFreq+0x1ea>
            vcoinput = ((HSE_VALUE / (uint32_t)(RCC->PLLCFGR & RCC_PLLCFGR_PLLM)));
 80041ee:	4b46      	ldr	r3, [pc, #280]	; (8004308 <HAL_RCCEx_GetPeriphCLKFreq+0x2f4>)
 80041f0:	685b      	ldr	r3, [r3, #4]
 80041f2:	f003 033f 	and.w	r3, r3, #63	; 0x3f
 80041f6:	4a46      	ldr	r2, [pc, #280]	; (8004310 <HAL_RCCEx_GetPeriphCLKFreq+0x2fc>)
 80041f8:	fbb2 f3f3 	udiv	r3, r2, r3
 80041fc:	61bb      	str	r3, [r7, #24]
          tmpreg1 = (RCC->PLLCFGR & RCC_PLLCFGR_PLLR) >> 28U;
 80041fe:	4b42      	ldr	r3, [pc, #264]	; (8004308 <HAL_RCCEx_GetPeriphCLKFreq+0x2f4>)
 8004200:	685b      	ldr	r3, [r3, #4]
 8004202:	0f1b      	lsrs	r3, r3, #28
 8004204:	f003 0307 	and.w	r3, r3, #7
 8004208:	617b      	str	r3, [r7, #20]
          frequency = (vcoinput * ((RCC->PLLCFGR & RCC_PLLCFGR_PLLN) >> 6U))/(tmpreg1);
 800420a:	4b3f      	ldr	r3, [pc, #252]	; (8004308 <HAL_RCCEx_GetPeriphCLKFreq+0x2f4>)
 800420c:	685b      	ldr	r3, [r3, #4]
 800420e:	099b      	lsrs	r3, r3, #6
 8004210:	f3c3 0308 	ubfx	r3, r3, #0, #9
 8004214:	69ba      	ldr	r2, [r7, #24]
 8004216:	fb03 f202 	mul.w	r2, r3, r2
 800421a:	697b      	ldr	r3, [r7, #20]
 800421c:	fbb2 f3f3 	udiv	r3, r2, r3
 8004220:	61fb      	str	r3, [r7, #28]
          break;
 8004222:	e00f      	b.n	8004244 <HAL_RCCEx_GetPeriphCLKFreq+0x230>
          frequency = EXTERNAL_CLOCK_VALUE;
 8004224:	4b3b      	ldr	r3, [pc, #236]	; (8004314 <HAL_RCCEx_GetPeriphCLKFreq+0x300>)
 8004226:	61fb      	str	r3, [r7, #28]
          break;
 8004228:	e00c      	b.n	8004244 <HAL_RCCEx_GetPeriphCLKFreq+0x230>
          if((RCC->PLLCFGR & RCC_PLLCFGR_PLLSRC) == RCC_PLLSOURCE_HSI)
 800422a:	4b37      	ldr	r3, [pc, #220]	; (8004308 <HAL_RCCEx_GetPeriphCLKFreq+0x2f4>)
 800422c:	685b      	ldr	r3, [r3, #4]
 800422e:	f403 0380 	and.w	r3, r3, #4194304	; 0x400000
 8004232:	2b00      	cmp	r3, #0
 8004234:	d102      	bne.n	800423c <HAL_RCCEx_GetPeriphCLKFreq+0x228>
            frequency = (uint32_t)(HSI_VALUE);
 8004236:	4b35      	ldr	r3, [pc, #212]	; (800430c <HAL_RCCEx_GetPeriphCLKFreq+0x2f8>)
 8004238:	61fb      	str	r3, [r7, #28]
          break;
 800423a:	e003      	b.n	8004244 <HAL_RCCEx_GetPeriphCLKFreq+0x230>
            frequency = (uint32_t)(HSE_VALUE);
 800423c:	4b34      	ldr	r3, [pc, #208]	; (8004310 <HAL_RCCEx_GetPeriphCLKFreq+0x2fc>)
 800423e:	61fb      	str	r3, [r7, #28]
          break;
 8004240:	e000      	b.n	8004244 <HAL_RCCEx_GetPeriphCLKFreq+0x230>
          break;
 8004242:	bf00      	nop
        }
      }
      break;
 8004244:	e11f      	b.n	8004486 <HAL_RCCEx_GetPeriphCLKFreq+0x472>
    }
  case RCC_PERIPHCLK_I2S_APB1:
    {
      /* Get the current I2S source */
      srcclk = __HAL_RCC_GET_I2S_APB1_SOURCE();
 8004246:	4b30      	ldr	r3, [pc, #192]	; (8004308 <HAL_RCCEx_GetPeriphCLKFreq+0x2f4>)
 8004248:	f8d3 308c 	ldr.w	r3, [r3, #140]	; 0x8c
 800424c:	f003 63c0 	and.w	r3, r3, #100663296	; 0x6000000
 8004250:	60fb      	str	r3, [r7, #12]
 8004252:	68fb      	ldr	r3, [r7, #12]
 8004254:	f1b3 6fc0 	cmp.w	r3, #100663296	; 0x6000000
 8004258:	d079      	beq.n	800434e <HAL_RCCEx_GetPeriphCLKFreq+0x33a>
 800425a:	68fb      	ldr	r3, [r7, #12]
 800425c:	f1b3 6fc0 	cmp.w	r3, #100663296	; 0x6000000
 8004260:	f200 8082 	bhi.w	8004368 <HAL_RCCEx_GetPeriphCLKFreq+0x354>
 8004264:	68fb      	ldr	r3, [r7, #12]
 8004266:	f1b3 6f80 	cmp.w	r3, #67108864	; 0x4000000
 800426a:	d03c      	beq.n	80042e6 <HAL_RCCEx_GetPeriphCLKFreq+0x2d2>
 800426c:	68fb      	ldr	r3, [r7, #12]
 800426e:	f1b3 6f80 	cmp.w	r3, #67108864	; 0x4000000
 8004272:	d879      	bhi.n	8004368 <HAL_RCCEx_GetPeriphCLKFreq+0x354>
 8004274:	68fb      	ldr	r3, [r7, #12]
 8004276:	2b00      	cmp	r3, #0
 8004278:	d006      	beq.n	8004288 <HAL_RCCEx_GetPeriphCLKFreq+0x274>
 800427a:	68fb      	ldr	r3, [r7, #12]
 800427c:	f1b3 7f00 	cmp.w	r3, #33554432	; 0x2000000
 8004280:	d172      	bne.n	8004368 <HAL_RCCEx_GetPeriphCLKFreq+0x354>
      {
      /* Check if I2S clock selection is External clock mapped on the I2S_CKIN pin used as I2S clock */
      case RCC_I2SAPB1CLKSOURCE_EXT:
        {
          /* Set the I2S clock to the external clock  value */
          frequency = EXTERNAL_CLOCK_VALUE;
 8004282:	4b24      	ldr	r3, [pc, #144]	; (8004314 <HAL_RCCEx_GetPeriphCLKFreq+0x300>)
 8004284:	61fb      	str	r3, [r7, #28]
          break;
 8004286:	e072      	b.n	800436e <HAL_RCCEx_GetPeriphCLKFreq+0x35a>
      /* Check if I2S clock selection is PLLI2S VCO output clock divided by PLLI2SR used as I2S clock */
      case RCC_I2SAPB1CLKSOURCE_PLLI2S:
        {
          /* Configure the PLLI2S division factor */
          /* PLLI2S_VCO Input  = PLL_SOURCE/PLLI2SM */
          if((RCC->PLLCFGR & RCC_PLLCFGR_PLLSRC) == RCC_PLLSOURCE_HSE)
 8004288:	4b1f      	ldr	r3, [pc, #124]	; (8004308 <HAL_RCCEx_GetPeriphCLKFreq+0x2f4>)
 800428a:	685b      	ldr	r3, [r3, #4]
 800428c:	f403 0380 	and.w	r3, r3, #4194304	; 0x400000
 8004290:	f5b3 0f80 	cmp.w	r3, #4194304	; 0x400000
 8004294:	d109      	bne.n	80042aa <HAL_RCCEx_GetPeriphCLKFreq+0x296>
          {
            /* Get the I2S source clock value */
            vcoinput = (uint32_t)(HSE_VALUE / (uint32_t)(RCC->PLLI2SCFGR & RCC_PLLI2SCFGR_PLLI2SM));
 8004296:	4b1c      	ldr	r3, [pc, #112]	; (8004308 <HAL_RCCEx_GetPeriphCLKFreq+0x2f4>)
 8004298:	f8d3 3084 	ldr.w	r3, [r3, #132]	; 0x84
 800429c:	f003 033f 	and.w	r3, r3, #63	; 0x3f
 80042a0:	4a1b      	ldr	r2, [pc, #108]	; (8004310 <HAL_RCCEx_GetPeriphCLKFreq+0x2fc>)
 80042a2:	fbb2 f3f3 	udiv	r3, r2, r3
 80042a6:	61bb      	str	r3, [r7, #24]
 80042a8:	e008      	b.n	80042bc <HAL_RCCEx_GetPeriphCLKFreq+0x2a8>
          }
          else
          {
            /* Get the I2S source clock value */
            vcoinput = (uint32_t)(HSI_VALUE / (uint32_t)(RCC->PLLI2SCFGR & RCC_PLLI2SCFGR_PLLI2SM));
 80042aa:	4b17      	ldr	r3, [pc, #92]	; (8004308 <HAL_RCCEx_GetPeriphCLKFreq+0x2f4>)
 80042ac:	f8d3 3084 	ldr.w	r3, [r3, #132]	; 0x84
 80042b0:	f003 033f 	and.w	r3, r3, #63	; 0x3f
 80042b4:	4a15      	ldr	r2, [pc, #84]	; (800430c <HAL_RCCEx_GetPeriphCLKFreq+0x2f8>)
 80042b6:	fbb2 f3f3 	udiv	r3, r2, r3
 80042ba:	61bb      	str	r3, [r7, #24]
          }

          /* PLLI2S_VCO Output = PLLI2S_VCO Input * PLLI2SN */
          vcooutput = (uint32_t)(vcoinput * (((RCC->PLLI2SCFGR & RCC_PLLI2SCFGR_PLLI2SN) >> 6U) & (RCC_PLLI2SCFGR_PLLI2SN >> 6U)));
 80042bc:	4b12      	ldr	r3, [pc, #72]	; (8004308 <HAL_RCCEx_GetPeriphCLKFreq+0x2f4>)
 80042be:	f8d3 3084 	ldr.w	r3, [r3, #132]	; 0x84
 80042c2:	099b      	lsrs	r3, r3, #6
 80042c4:	f3c3 0208 	ubfx	r2, r3, #0, #9
 80042c8:	69bb      	ldr	r3, [r7, #24]
 80042ca:	fb02 f303 	mul.w	r3, r2, r3
 80042ce:	60bb      	str	r3, [r7, #8]
          /* I2S_CLK = PLLI2S_VCO Output/PLLI2SR */
          frequency = (uint32_t)(vcooutput /(((RCC->PLLI2SCFGR & RCC_PLLI2SCFGR_PLLI2SR) >> 28U) & (RCC_PLLI2SCFGR_PLLI2SR >> 28U)));
 80042d0:	4b0d      	ldr	r3, [pc, #52]	; (8004308 <HAL_RCCEx_GetPeriphCLKFreq+0x2f4>)
 80042d2:	f8d3 3084 	ldr.w	r3, [r3, #132]	; 0x84
 80042d6:	0f1b      	lsrs	r3, r3, #28
 80042d8:	f003 0307 	and.w	r3, r3, #7
 80042dc:	68ba      	ldr	r2, [r7, #8]
 80042de:	fbb2 f3f3 	udiv	r3, r2, r3
 80042e2:	61fb      	str	r3, [r7, #28]
          break;
 80042e4:	e043      	b.n	800436e <HAL_RCCEx_GetPeriphCLKFreq+0x35a>
      /* Check if I2S clock selection is PLL VCO Output divided by PLLR used as I2S clock */
      case RCC_I2SAPB1CLKSOURCE_PLLR:
        {
          /* Configure the PLL division factor R */
          /* PLL_VCO Input  = PLL_SOURCE/PLLM */
          if((RCC->PLLCFGR & RCC_PLLCFGR_PLLSRC) == RCC_PLLSOURCE_HSE)
 80042e6:	4b08      	ldr	r3, [pc, #32]	; (8004308 <HAL_RCCEx_GetPeriphCLKFreq+0x2f4>)
 80042e8:	685b      	ldr	r3, [r3, #4]
 80042ea:	f403 0380 	and.w	r3, r3, #4194304	; 0x400000
 80042ee:	f5b3 0f80 	cmp.w	r3, #4194304	; 0x400000
 80042f2:	d111      	bne.n	8004318 <HAL_RCCEx_GetPeriphCLKFreq+0x304>
          {
            /* Get the I2S source clock value */
            vcoinput = (uint32_t)(HSE_VALUE / (uint32_t)(RCC->PLLCFGR & RCC_PLLCFGR_PLLM));
 80042f4:	4b04      	ldr	r3, [pc, #16]	; (8004308 <HAL_RCCEx_GetPeriphCLKFreq+0x2f4>)
 80042f6:	685b      	ldr	r3, [r3, #4]
 80042f8:	f003 033f 	and.w	r3, r3, #63	; 0x3f
 80042fc:	4a04      	ldr	r2, [pc, #16]	; (8004310 <HAL_RCCEx_GetPeriphCLKFreq+0x2fc>)
 80042fe:	fbb2 f3f3 	udiv	r3, r2, r3
 8004302:	61bb      	str	r3, [r7, #24]
 8004304:	e010      	b.n	8004328 <HAL_RCCEx_GetPeriphCLKFreq+0x314>
 8004306:	bf00      	nop
 8004308:	40023800 	.word	0x40023800
 800430c:	00f42400 	.word	0x00f42400
 8004310:	017d7840 	.word	0x017d7840
 8004314:	00bb8000 	.word	0x00bb8000
          }
          else
          {
            /* Get the I2S source clock value */
            vcoinput = (uint32_t)(HSI_VALUE / (uint32_t)(RCC->PLLCFGR & RCC_PLLCFGR_PLLM));
 8004318:	4b5e      	ldr	r3, [pc, #376]	; (8004494 <HAL_RCCEx_GetPeriphCLKFreq+0x480>)
 800431a:	685b      	ldr	r3, [r3, #4]
 800431c:	f003 033f 	and.w	r3, r3, #63	; 0x3f
 8004320:	4a5d      	ldr	r2, [pc, #372]	; (8004498 <HAL_RCCEx_GetPeriphCLKFreq+0x484>)
 8004322:	fbb2 f3f3 	udiv	r3, r2, r3
 8004326:	61bb      	str	r3, [r7, #24]
          }

          /* PLL_VCO Output = PLL_VCO Input * PLLN */
          vcooutput = (uint32_t)(vcoinput * (((RCC->PLLCFGR & RCC_PLLCFGR_PLLN) >> 6U) & (RCC_PLLCFGR_PLLN >> 6U)));
 8004328:	4b5a      	ldr	r3, [pc, #360]	; (8004494 <HAL_RCCEx_GetPeriphCLKFreq+0x480>)
 800432a:	685b      	ldr	r3, [r3, #4]
 800432c:	099b      	lsrs	r3, r3, #6
 800432e:	f3c3 0208 	ubfx	r2, r3, #0, #9
 8004332:	69bb      	ldr	r3, [r7, #24]
 8004334:	fb02 f303 	mul.w	r3, r2, r3
 8004338:	60bb      	str	r3, [r7, #8]
          /* I2S_CLK = PLL_VCO Output/PLLR */
          frequency = (uint32_t)(vcooutput /(((RCC->PLLCFGR & RCC_PLLCFGR_PLLR) >> 28U) & (RCC_PLLCFGR_PLLR >> 28U)));
 800433a:	4b56      	ldr	r3, [pc, #344]	; (8004494 <HAL_RCCEx_GetPeriphCLKFreq+0x480>)
 800433c:	685b      	ldr	r3, [r3, #4]
 800433e:	0f1b      	lsrs	r3, r3, #28
 8004340:	f003 0307 	and.w	r3, r3, #7
 8004344:	68ba      	ldr	r2, [r7, #8]
 8004346:	fbb2 f3f3 	udiv	r3, r2, r3
 800434a:	61fb      	str	r3, [r7, #28]
          break;
 800434c:	e00f      	b.n	800436e <HAL_RCCEx_GetPeriphCLKFreq+0x35a>
        }
      /* Check if I2S clock selection is HSI or HSE depending from PLL source Clock */
      case RCC_I2SAPB1CLKSOURCE_PLLSRC:
        {
          if((RCC->PLLCFGR & RCC_PLLCFGR_PLLSRC) == RCC_PLLSOURCE_HSE)
 800434e:	4b51      	ldr	r3, [pc, #324]	; (8004494 <HAL_RCCEx_GetPeriphCLKFreq+0x480>)
 8004350:	685b      	ldr	r3, [r3, #4]
 8004352:	f403 0380 	and.w	r3, r3, #4194304	; 0x400000
 8004356:	f5b3 0f80 	cmp.w	r3, #4194304	; 0x400000
 800435a:	d102      	bne.n	8004362 <HAL_RCCEx_GetPeriphCLKFreq+0x34e>
          {
            frequency = HSE_VALUE;
 800435c:	4b4f      	ldr	r3, [pc, #316]	; (800449c <HAL_RCCEx_GetPeriphCLKFreq+0x488>)
 800435e:	61fb      	str	r3, [r7, #28]
          }
          else
          {
            frequency = HSI_VALUE;
          }
          break;
 8004360:	e005      	b.n	800436e <HAL_RCCEx_GetPeriphCLKFreq+0x35a>
            frequency = HSI_VALUE;
 8004362:	4b4d      	ldr	r3, [pc, #308]	; (8004498 <HAL_RCCEx_GetPeriphCLKFreq+0x484>)
 8004364:	61fb      	str	r3, [r7, #28]
          break;
 8004366:	e002      	b.n	800436e <HAL_RCCEx_GetPeriphCLKFreq+0x35a>
        }
        /* Clock not enabled for I2S*/
      default:
        {
          frequency = 0U;
 8004368:	2300      	movs	r3, #0
 800436a:	61fb      	str	r3, [r7, #28]
          break;
 800436c:	bf00      	nop
        }
      }
      break;
 800436e:	e08a      	b.n	8004486 <HAL_RCCEx_GetPeriphCLKFreq+0x472>
    }
  case RCC_PERIPHCLK_I2S_APB2:
    {
      /* Get the current I2S source */
      srcclk = __HAL_RCC_GET_I2S_APB2_SOURCE();
 8004370:	4b48      	ldr	r3, [pc, #288]	; (8004494 <HAL_RCCEx_GetPeriphCLKFreq+0x480>)
 8004372:	f8d3 308c 	ldr.w	r3, [r3, #140]	; 0x8c
 8004376:	f003 53c0 	and.w	r3, r3, #402653184	; 0x18000000
 800437a:	60fb      	str	r3, [r7, #12]
 800437c:	68fb      	ldr	r3, [r7, #12]
 800437e:	f1b3 5fc0 	cmp.w	r3, #402653184	; 0x18000000
 8004382:	d06f      	beq.n	8004464 <HAL_RCCEx_GetPeriphCLKFreq+0x450>
 8004384:	68fb      	ldr	r3, [r7, #12]
 8004386:	f1b3 5fc0 	cmp.w	r3, #402653184	; 0x18000000
 800438a:	d878      	bhi.n	800447e <HAL_RCCEx_GetPeriphCLKFreq+0x46a>
 800438c:	68fb      	ldr	r3, [r7, #12]
 800438e:	f1b3 5f80 	cmp.w	r3, #268435456	; 0x10000000
 8004392:	d03c      	beq.n	800440e <HAL_RCCEx_GetPeriphCLKFreq+0x3fa>
 8004394:	68fb      	ldr	r3, [r7, #12]
 8004396:	f1b3 5f80 	cmp.w	r3, #268435456	; 0x10000000
 800439a:	d870      	bhi.n	800447e <HAL_RCCEx_GetPeriphCLKFreq+0x46a>
 800439c:	68fb      	ldr	r3, [r7, #12]
 800439e:	2b00      	cmp	r3, #0
 80043a0:	d006      	beq.n	80043b0 <HAL_RCCEx_GetPeriphCLKFreq+0x39c>
 80043a2:	68fb      	ldr	r3, [r7, #12]
 80043a4:	f1b3 6f00 	cmp.w	r3, #134217728	; 0x8000000
 80043a8:	d169      	bne.n	800447e <HAL_RCCEx_GetPeriphCLKFreq+0x46a>
      {
        /* Check if I2S clock selection is External clock mapped on the I2S_CKIN pin used as I2S clock */
      case RCC_I2SAPB2CLKSOURCE_EXT:
        {
          /* Set the I2S clock to the external clock  value */
          frequency = EXTERNAL_CLOCK_VALUE;
 80043aa:	4b3d      	ldr	r3, [pc, #244]	; (80044a0 <HAL_RCCEx_GetPeriphCLKFreq+0x48c>)
 80043ac:	61fb      	str	r3, [r7, #28]
          break;
 80043ae:	e069      	b.n	8004484 <HAL_RCCEx_GetPeriphCLKFreq+0x470>
        /* Check if I2S clock selection is PLLI2S VCO output clock divided by PLLI2SR used as I2S clock */
      case RCC_I2SAPB2CLKSOURCE_PLLI2S:
        {
          /* Configure the PLLI2S division factor */
          /* PLLI2S_VCO Input  = PLL_SOURCE/PLLI2SM */
          if((RCC->PLLCFGR & RCC_PLLCFGR_PLLSRC) == RCC_PLLSOURCE_HSE)
 80043b0:	4b38      	ldr	r3, [pc, #224]	; (8004494 <HAL_RCCEx_GetPeriphCLKFreq+0x480>)
 80043b2:	685b      	ldr	r3, [r3, #4]
 80043b4:	f403 0380 	and.w	r3, r3, #4194304	; 0x400000
 80043b8:	f5b3 0f80 	cmp.w	r3, #4194304	; 0x400000
 80043bc:	d109      	bne.n	80043d2 <HAL_RCCEx_GetPeriphCLKFreq+0x3be>
          {
            /* Get the I2S source clock value */
            vcoinput = (uint32_t)(HSE_VALUE / (uint32_t)(RCC->PLLI2SCFGR & RCC_PLLI2SCFGR_PLLI2SM));
 80043be:	4b35      	ldr	r3, [pc, #212]	; (8004494 <HAL_RCCEx_GetPeriphCLKFreq+0x480>)
 80043c0:	f8d3 3084 	ldr.w	r3, [r3, #132]	; 0x84
 80043c4:	f003 033f 	and.w	r3, r3, #63	; 0x3f
 80043c8:	4a34      	ldr	r2, [pc, #208]	; (800449c <HAL_RCCEx_GetPeriphCLKFreq+0x488>)
 80043ca:	fbb2 f3f3 	udiv	r3, r2, r3
 80043ce:	61bb      	str	r3, [r7, #24]
 80043d0:	e008      	b.n	80043e4 <HAL_RCCEx_GetPeriphCLKFreq+0x3d0>
          }
          else
          {
            /* Get the I2S source clock value */
            vcoinput = (uint32_t)(HSI_VALUE / (uint32_t)(RCC->PLLI2SCFGR & RCC_PLLI2SCFGR_PLLI2SM));
 80043d2:	4b30      	ldr	r3, [pc, #192]	; (8004494 <HAL_RCCEx_GetPeriphCLKFreq+0x480>)
 80043d4:	f8d3 3084 	ldr.w	r3, [r3, #132]	; 0x84
 80043d8:	f003 033f 	and.w	r3, r3, #63	; 0x3f
 80043dc:	4a2e      	ldr	r2, [pc, #184]	; (8004498 <HAL_RCCEx_GetPeriphCLKFreq+0x484>)
 80043de:	fbb2 f3f3 	udiv	r3, r2, r3
 80043e2:	61bb      	str	r3, [r7, #24]
          }

          /* PLLI2S_VCO Output = PLLI2S_VCO Input * PLLI2SN */
          vcooutput = (uint32_t)(vcoinput * (((RCC->PLLI2SCFGR & RCC_PLLI2SCFGR_PLLI2SN) >> 6U) & (RCC_PLLI2SCFGR_PLLI2SN >> 6U)));
 80043e4:	4b2b      	ldr	r3, [pc, #172]	; (8004494 <HAL_RCCEx_GetPeriphCLKFreq+0x480>)
 80043e6:	f8d3 3084 	ldr.w	r3, [r3, #132]	; 0x84
 80043ea:	099b      	lsrs	r3, r3, #6
 80043ec:	f3c3 0208 	ubfx	r2, r3, #0, #9
 80043f0:	69bb      	ldr	r3, [r7, #24]
 80043f2:	fb02 f303 	mul.w	r3, r2, r3
 80043f6:	60bb      	str	r3, [r7, #8]
          /* I2S_CLK = PLLI2S_VCO Output/PLLI2SR */
          frequency = (uint32_t)(vcooutput /(((RCC->PLLI2SCFGR & RCC_PLLI2SCFGR_PLLI2SR) >> 28U) & (RCC_PLLI2SCFGR_PLLI2SR >> 28U)));
 80043f8:	4b26      	ldr	r3, [pc, #152]	; (8004494 <HAL_RCCEx_GetPeriphCLKFreq+0x480>)
 80043fa:	f8d3 3084 	ldr.w	r3, [r3, #132]	; 0x84
 80043fe:	0f1b      	lsrs	r3, r3, #28
 8004400:	f003 0307 	and.w	r3, r3, #7
 8004404:	68ba      	ldr	r2, [r7, #8]
 8004406:	fbb2 f3f3 	udiv	r3, r2, r3
 800440a:	61fb      	str	r3, [r7, #28]
          break;
 800440c:	e03a      	b.n	8004484 <HAL_RCCEx_GetPeriphCLKFreq+0x470>
        /* Check if I2S clock selection is PLL VCO Output divided by PLLR used as I2S clock */
      case RCC_I2SAPB2CLKSOURCE_PLLR:
        {
          /* Configure the PLL division factor R */
          /* PLL_VCO Input  = PLL_SOURCE/PLLM */
          if((RCC->PLLCFGR & RCC_PLLCFGR_PLLSRC) == RCC_PLLSOURCE_HSE)
 800440e:	4b21      	ldr	r3, [pc, #132]	; (8004494 <HAL_RCCEx_GetPeriphCLKFreq+0x480>)
 8004410:	685b      	ldr	r3, [r3, #4]
 8004412:	f403 0380 	and.w	r3, r3, #4194304	; 0x400000
 8004416:	f5b3 0f80 	cmp.w	r3, #4194304	; 0x400000
 800441a:	d108      	bne.n	800442e <HAL_RCCEx_GetPeriphCLKFreq+0x41a>
          {
            /* Get the I2S source clock value */
            vcoinput = (uint32_t)(HSE_VALUE / (uint32_t)(RCC->PLLCFGR & RCC_PLLCFGR_PLLM));
 800441c:	4b1d      	ldr	r3, [pc, #116]	; (8004494 <HAL_RCCEx_GetPeriphCLKFreq+0x480>)
 800441e:	685b      	ldr	r3, [r3, #4]
 8004420:	f003 033f 	and.w	r3, r3, #63	; 0x3f
 8004424:	4a1d      	ldr	r2, [pc, #116]	; (800449c <HAL_RCCEx_GetPeriphCLKFreq+0x488>)
 8004426:	fbb2 f3f3 	udiv	r3, r2, r3
 800442a:	61bb      	str	r3, [r7, #24]
 800442c:	e007      	b.n	800443e <HAL_RCCEx_GetPeriphCLKFreq+0x42a>
          }
          else
          {
            /* Get the I2S source clock value */
            vcoinput = (uint32_t)(HSI_VALUE / (uint32_t)(RCC->PLLCFGR & RCC_PLLCFGR_PLLM));
 800442e:	4b19      	ldr	r3, [pc, #100]	; (8004494 <HAL_RCCEx_GetPeriphCLKFreq+0x480>)
 8004430:	685b      	ldr	r3, [r3, #4]
 8004432:	f003 033f 	and.w	r3, r3, #63	; 0x3f
 8004436:	4a18      	ldr	r2, [pc, #96]	; (8004498 <HAL_RCCEx_GetPeriphCLKFreq+0x484>)
 8004438:	fbb2 f3f3 	udiv	r3, r2, r3
 800443c:	61bb      	str	r3, [r7, #24]
          }

          /* PLL_VCO Output = PLL_VCO Input * PLLN */
          vcooutput = (uint32_t)(vcoinput * (((RCC->PLLCFGR & RCC_PLLCFGR_PLLN) >> 6U) & (RCC_PLLCFGR_PLLN >> 6U)));
 800443e:	4b15      	ldr	r3, [pc, #84]	; (8004494 <HAL_RCCEx_GetPeriphCLKFreq+0x480>)
 8004440:	685b      	ldr	r3, [r3, #4]
 8004442:	099b      	lsrs	r3, r3, #6
 8004444:	f3c3 0208 	ubfx	r2, r3, #0, #9
 8004448:	69bb      	ldr	r3, [r7, #24]
 800444a:	fb02 f303 	mul.w	r3, r2, r3
 800444e:	60bb      	str	r3, [r7, #8]
          /* I2S_CLK = PLL_VCO Output/PLLR */
          frequency = (uint32_t)(vcooutput /(((RCC->PLLCFGR & RCC_PLLCFGR_PLLR) >> 28U) & (RCC_PLLCFGR_PLLR >> 28U)));
 8004450:	4b10      	ldr	r3, [pc, #64]	; (8004494 <HAL_RCCEx_GetPeriphCLKFreq+0x480>)
 8004452:	685b      	ldr	r3, [r3, #4]
 8004454:	0f1b      	lsrs	r3, r3, #28
 8004456:	f003 0307 	and.w	r3, r3, #7
 800445a:	68ba      	ldr	r2, [r7, #8]
 800445c:	fbb2 f3f3 	udiv	r3, r2, r3
 8004460:	61fb      	str	r3, [r7, #28]
          break;
 8004462:	e00f      	b.n	8004484 <HAL_RCCEx_GetPeriphCLKFreq+0x470>
        }
        /* Check if I2S clock selection is HSI or HSE depending from PLL source Clock */
      case RCC_I2SAPB2CLKSOURCE_PLLSRC:
        {
          if((RCC->PLLCFGR & RCC_PLLCFGR_PLLSRC) == RCC_PLLSOURCE_HSE)
 8004464:	4b0b      	ldr	r3, [pc, #44]	; (8004494 <HAL_RCCEx_GetPeriphCLKFreq+0x480>)
 8004466:	685b      	ldr	r3, [r3, #4]
 8004468:	f403 0380 	and.w	r3, r3, #4194304	; 0x400000
 800446c:	f5b3 0f80 	cmp.w	r3, #4194304	; 0x400000
 8004470:	d102      	bne.n	8004478 <HAL_RCCEx_GetPeriphCLKFreq+0x464>
          {
            frequency = HSE_VALUE;
 8004472:	4b0a      	ldr	r3, [pc, #40]	; (800449c <HAL_RCCEx_GetPeriphCLKFreq+0x488>)
 8004474:	61fb      	str	r3, [r7, #28]
          }
          else
          {
            frequency = HSI_VALUE;
          }
          break;
 8004476:	e005      	b.n	8004484 <HAL_RCCEx_GetPeriphCLKFreq+0x470>
            frequency = HSI_VALUE;
 8004478:	4b07      	ldr	r3, [pc, #28]	; (8004498 <HAL_RCCEx_GetPeriphCLKFreq+0x484>)
 800447a:	61fb      	str	r3, [r7, #28]
          break;
 800447c:	e002      	b.n	8004484 <HAL_RCCEx_GetPeriphCLKFreq+0x470>
        }
        /* Clock not enabled for I2S*/
      default:
        {
          frequency = 0U;
 800447e:	2300      	movs	r3, #0
 8004480:	61fb      	str	r3, [r7, #28]
          break;
 8004482:	bf00      	nop
        }
      }
      break;
 8004484:	bf00      	nop
    }
  }
  return frequency;
 8004486:	69fb      	ldr	r3, [r7, #28]
}
 8004488:	4618      	mov	r0, r3
 800448a:	3724      	adds	r7, #36	; 0x24
 800448c:	46bd      	mov	sp, r7
 800448e:	f85d 7b04 	ldr.w	r7, [sp], #4
 8004492:	4770      	bx	lr
 8004494:	40023800 	.word	0x40023800
 8004498:	00f42400 	.word	0x00f42400
 800449c:	017d7840 	.word	0x017d7840
 80044a0:	00bb8000 	.word	0x00bb8000

080044a4 <HAL_RCC_GetSysClockFreq>:
  *
  *
  * @retval SYSCLK frequency
  */
uint32_t HAL_RCC_GetSysClockFreq(void)
{
 80044a4:	e92d 4fb0 	stmdb	sp!, {r4, r5, r7, r8, r9, sl, fp, lr}
 80044a8:	b0a6      	sub	sp, #152	; 0x98
 80044aa:	af00      	add	r7, sp, #0
  uint32_t pllm = 0U;
 80044ac:	2300      	movs	r3, #0
 80044ae:	f8c7 308c 	str.w	r3, [r7, #140]	; 0x8c
  uint32_t pllvco = 0U;
 80044b2:	2300      	movs	r3, #0
 80044b4:	f8c7 3094 	str.w	r3, [r7, #148]	; 0x94
  uint32_t pllp = 0U;
 80044b8:	2300      	movs	r3, #0
 80044ba:	f8c7 3088 	str.w	r3, [r7, #136]	; 0x88
  uint32_t pllr = 0U;
 80044be:	2300      	movs	r3, #0
 80044c0:	f8c7 3084 	str.w	r3, [r7, #132]	; 0x84
  uint32_t sysclockfreq = 0U;
 80044c4:	2300      	movs	r3, #0
 80044c6:	f8c7 3090 	str.w	r3, [r7, #144]	; 0x90

  /* Get SYSCLK source -------------------------------------------------------*/
  switch (RCC->CFGR & RCC_CFGR_SWS)
 80044ca:	4bc8      	ldr	r3, [pc, #800]	; (80047ec <HAL_RCC_GetSysClockFreq+0x348>)
 80044cc:	689b      	ldr	r3, [r3, #8]
 80044ce:	f003 030c 	and.w	r3, r3, #12
 80044d2:	2b0c      	cmp	r3, #12
 80044d4:	f200 817e 	bhi.w	80047d4 <HAL_RCC_GetSysClockFreq+0x330>
 80044d8:	a201      	add	r2, pc, #4	; (adr r2, 80044e0 <HAL_RCC_GetSysClockFreq+0x3c>)
 80044da:	f852 f023 	ldr.w	pc, [r2, r3, lsl #2]
 80044de:	bf00      	nop
 80044e0:	08004515 	.word	0x08004515
 80044e4:	080047d5 	.word	0x080047d5
 80044e8:	080047d5 	.word	0x080047d5
 80044ec:	080047d5 	.word	0x080047d5
 80044f0:	0800451d 	.word	0x0800451d
 80044f4:	080047d5 	.word	0x080047d5
 80044f8:	080047d5 	.word	0x080047d5
 80044fc:	080047d5 	.word	0x080047d5
 8004500:	08004525 	.word	0x08004525
 8004504:	080047d5 	.word	0x080047d5
 8004508:	080047d5 	.word	0x080047d5
 800450c:	080047d5 	.word	0x080047d5
 8004510:	0800468f 	.word	0x0800468f
  {
    case RCC_CFGR_SWS_HSI:  /* HSI used as system clock source */
    {
      sysclockfreq = HSI_VALUE;
 8004514:	4bb6      	ldr	r3, [pc, #728]	; (80047f0 <HAL_RCC_GetSysClockFreq+0x34c>)
 8004516:	f8c7 3090 	str.w	r3, [r7, #144]	; 0x90
       break;
 800451a:	e15f      	b.n	80047dc <HAL_RCC_GetSysClockFreq+0x338>
    }
    case RCC_CFGR_SWS_HSE:  /* HSE used as system clock  source */
    {
      sysclockfreq = HSE_VALUE;
 800451c:	4bb5      	ldr	r3, [pc, #724]	; (80047f4 <HAL_RCC_GetSysClockFreq+0x350>)
 800451e:	f8c7 3090 	str.w	r3, [r7, #144]	; 0x90
      break;
 8004522:	e15b      	b.n	80047dc <HAL_RCC_GetSysClockFreq+0x338>
    }
    case RCC_CFGR_SWS_PLL:  /* PLL/PLLP used as system clock  source */
    {
      /* PLL_VCO = (HSE_VALUE or HSI_VALUE / PLLM) * PLLN
      SYSCLK = PLL_VCO / PLLP */
      pllm = RCC->PLLCFGR & RCC_PLLCFGR_PLLM;
 8004524:	4bb1      	ldr	r3, [pc, #708]	; (80047ec <HAL_RCC_GetSysClockFreq+0x348>)
 8004526:	685b      	ldr	r3, [r3, #4]
 8004528:	f003 033f 	and.w	r3, r3, #63	; 0x3f
 800452c:	f8c7 308c 	str.w	r3, [r7, #140]	; 0x8c
      if(__HAL_RCC_GET_PLL_OSCSOURCE() != RCC_PLLSOURCE_HSI)
 8004530:	4bae      	ldr	r3, [pc, #696]	; (80047ec <HAL_RCC_GetSysClockFreq+0x348>)
 8004532:	685b      	ldr	r3, [r3, #4]
 8004534:	f403 0380 	and.w	r3, r3, #4194304	; 0x400000
 8004538:	2b00      	cmp	r3, #0
 800453a:	d031      	beq.n	80045a0 <HAL_RCC_GetSysClockFreq+0xfc>
      {
        /* HSE used as PLL clock source */
        pllvco = (uint32_t) ((((uint64_t) HSE_VALUE * ((uint64_t) ((RCC->PLLCFGR & RCC_PLLCFGR_PLLN) >> RCC_PLLCFGR_PLLN_Pos)))) / (uint64_t)pllm);
 800453c:	4bab      	ldr	r3, [pc, #684]	; (80047ec <HAL_RCC_GetSysClockFreq+0x348>)
 800453e:	685b      	ldr	r3, [r3, #4]
 8004540:	099b      	lsrs	r3, r3, #6
 8004542:	2200      	movs	r2, #0
 8004544:	66bb      	str	r3, [r7, #104]	; 0x68
 8004546:	66fa      	str	r2, [r7, #108]	; 0x6c
 8004548:	6ebb      	ldr	r3, [r7, #104]	; 0x68
 800454a:	f3c3 0308 	ubfx	r3, r3, #0, #9
 800454e:	663b      	str	r3, [r7, #96]	; 0x60
 8004550:	2300      	movs	r3, #0
 8004552:	667b      	str	r3, [r7, #100]	; 0x64
 8004554:	4ba7      	ldr	r3, [pc, #668]	; (80047f4 <HAL_RCC_GetSysClockFreq+0x350>)
 8004556:	e9d7 4518 	ldrd	r4, r5, [r7, #96]	; 0x60
 800455a:	462a      	mov	r2, r5
 800455c:	fb03 f202 	mul.w	r2, r3, r2
 8004560:	2300      	movs	r3, #0
 8004562:	4621      	mov	r1, r4
 8004564:	fb01 f303 	mul.w	r3, r1, r3
 8004568:	4413      	add	r3, r2
 800456a:	4aa2      	ldr	r2, [pc, #648]	; (80047f4 <HAL_RCC_GetSysClockFreq+0x350>)
 800456c:	4621      	mov	r1, r4
 800456e:	fba1 1202 	umull	r1, r2, r1, r2
 8004572:	67fa      	str	r2, [r7, #124]	; 0x7c
 8004574:	460a      	mov	r2, r1
 8004576:	67ba      	str	r2, [r7, #120]	; 0x78
 8004578:	6ffa      	ldr	r2, [r7, #124]	; 0x7c
 800457a:	4413      	add	r3, r2
 800457c:	67fb      	str	r3, [r7, #124]	; 0x7c
 800457e:	f8d7 308c 	ldr.w	r3, [r7, #140]	; 0x8c
 8004582:	2200      	movs	r2, #0
 8004584:	65bb      	str	r3, [r7, #88]	; 0x58
 8004586:	65fa      	str	r2, [r7, #92]	; 0x5c
 8004588:	e9d7 2316 	ldrd	r2, r3, [r7, #88]	; 0x58
 800458c:	e9d7 011e 	ldrd	r0, r1, [r7, #120]	; 0x78
 8004590:	f7fb fe96 	bl	80002c0 <__aeabi_uldivmod>
 8004594:	4602      	mov	r2, r0
 8004596:	460b      	mov	r3, r1
 8004598:	4613      	mov	r3, r2
 800459a:	f8c7 3094 	str.w	r3, [r7, #148]	; 0x94
 800459e:	e064      	b.n	800466a <HAL_RCC_GetSysClockFreq+0x1c6>
      }
      else
      {
        /* HSI used as PLL clock source */
        pllvco = (uint32_t) ((((uint64_t) HSI_VALUE * ((uint64_t) ((RCC->PLLCFGR & RCC_PLLCFGR_PLLN) >> RCC_PLLCFGR_PLLN_Pos)))) / (uint64_t)pllm);
 80045a0:	4b92      	ldr	r3, [pc, #584]	; (80047ec <HAL_RCC_GetSysClockFreq+0x348>)
 80045a2:	685b      	ldr	r3, [r3, #4]
 80045a4:	099b      	lsrs	r3, r3, #6
 80045a6:	2200      	movs	r2, #0
 80045a8:	653b      	str	r3, [r7, #80]	; 0x50
 80045aa:	657a      	str	r2, [r7, #84]	; 0x54
 80045ac:	6d3b      	ldr	r3, [r7, #80]	; 0x50
 80045ae:	f3c3 0308 	ubfx	r3, r3, #0, #9
 80045b2:	64bb      	str	r3, [r7, #72]	; 0x48
 80045b4:	2300      	movs	r3, #0
 80045b6:	64fb      	str	r3, [r7, #76]	; 0x4c
 80045b8:	e9d7 4512 	ldrd	r4, r5, [r7, #72]	; 0x48
 80045bc:	4622      	mov	r2, r4
 80045be:	462b      	mov	r3, r5
 80045c0:	f04f 0000 	mov.w	r0, #0
 80045c4:	f04f 0100 	mov.w	r1, #0
 80045c8:	0159      	lsls	r1, r3, #5
 80045ca:	ea41 61d2 	orr.w	r1, r1, r2, lsr #27
 80045ce:	0150      	lsls	r0, r2, #5
 80045d0:	4602      	mov	r2, r0
 80045d2:	460b      	mov	r3, r1
 80045d4:	4621      	mov	r1, r4
 80045d6:	1a51      	subs	r1, r2, r1
 80045d8:	6139      	str	r1, [r7, #16]
 80045da:	4629      	mov	r1, r5
 80045dc:	eb63 0301 	sbc.w	r3, r3, r1
 80045e0:	617b      	str	r3, [r7, #20]
 80045e2:	f04f 0200 	mov.w	r2, #0
 80045e6:	f04f 0300 	mov.w	r3, #0
 80045ea:	e9d7 ab04 	ldrd	sl, fp, [r7, #16]
 80045ee:	4659      	mov	r1, fp
 80045f0:	018b      	lsls	r3, r1, #6
 80045f2:	4651      	mov	r1, sl
 80045f4:	ea43 6391 	orr.w	r3, r3, r1, lsr #26
 80045f8:	4651      	mov	r1, sl
 80045fa:	018a      	lsls	r2, r1, #6
 80045fc:	4651      	mov	r1, sl
 80045fe:	ebb2 0801 	subs.w	r8, r2, r1
 8004602:	4659      	mov	r1, fp
 8004604:	eb63 0901 	sbc.w	r9, r3, r1
 8004608:	f04f 0200 	mov.w	r2, #0
 800460c:	f04f 0300 	mov.w	r3, #0
 8004610:	ea4f 03c9 	mov.w	r3, r9, lsl #3
 8004614:	ea43 7358 	orr.w	r3, r3, r8, lsr #29
 8004618:	ea4f 02c8 	mov.w	r2, r8, lsl #3
 800461c:	4690      	mov	r8, r2
 800461e:	4699      	mov	r9, r3
 8004620:	4623      	mov	r3, r4
 8004622:	eb18 0303 	adds.w	r3, r8, r3
 8004626:	60bb      	str	r3, [r7, #8]
 8004628:	462b      	mov	r3, r5
 800462a:	eb49 0303 	adc.w	r3, r9, r3
 800462e:	60fb      	str	r3, [r7, #12]
 8004630:	f04f 0200 	mov.w	r2, #0
 8004634:	f04f 0300 	mov.w	r3, #0
 8004638:	e9d7 4502 	ldrd	r4, r5, [r7, #8]
 800463c:	4629      	mov	r1, r5
 800463e:	028b      	lsls	r3, r1, #10
 8004640:	4621      	mov	r1, r4
 8004642:	ea43 5391 	orr.w	r3, r3, r1, lsr #22
 8004646:	4621      	mov	r1, r4
 8004648:	028a      	lsls	r2, r1, #10
 800464a:	4610      	mov	r0, r2
 800464c:	4619      	mov	r1, r3
 800464e:	f8d7 308c 	ldr.w	r3, [r7, #140]	; 0x8c
 8004652:	2200      	movs	r2, #0
 8004654:	643b      	str	r3, [r7, #64]	; 0x40
 8004656:	647a      	str	r2, [r7, #68]	; 0x44
 8004658:	e9d7 2310 	ldrd	r2, r3, [r7, #64]	; 0x40
 800465c:	f7fb fe30 	bl	80002c0 <__aeabi_uldivmod>
 8004660:	4602      	mov	r2, r0
 8004662:	460b      	mov	r3, r1
 8004664:	4613      	mov	r3, r2
 8004666:	f8c7 3094 	str.w	r3, [r7, #148]	; 0x94
      }
      pllp = ((((RCC->PLLCFGR & RCC_PLLCFGR_PLLP) >> RCC_PLLCFGR_PLLP_Pos) + 1U) *2U);
 800466a:	4b60      	ldr	r3, [pc, #384]	; (80047ec <HAL_RCC_GetSysClockFreq+0x348>)
 800466c:	685b      	ldr	r3, [r3, #4]
 800466e:	0c1b      	lsrs	r3, r3, #16
 8004670:	f003 0303 	and.w	r3, r3, #3
 8004674:	3301      	adds	r3, #1
 8004676:	005b      	lsls	r3, r3, #1
 8004678:	f8c7 3088 	str.w	r3, [r7, #136]	; 0x88

      sysclockfreq = pllvco/pllp;
 800467c:	f8d7 2094 	ldr.w	r2, [r7, #148]	; 0x94
 8004680:	f8d7 3088 	ldr.w	r3, [r7, #136]	; 0x88
 8004684:	fbb2 f3f3 	udiv	r3, r2, r3
 8004688:	f8c7 3090 	str.w	r3, [r7, #144]	; 0x90
      break;
 800468c:	e0a6      	b.n	80047dc <HAL_RCC_GetSysClockFreq+0x338>
    }
    case RCC_CFGR_SWS_PLLR:  /* PLL/PLLR used as system clock  source */
    {
      /* PLL_VCO = (HSE_VALUE or HSI_VALUE / PLLM) * PLLN
      SYSCLK = PLL_VCO / PLLR */
      pllm = RCC->PLLCFGR & RCC_PLLCFGR_PLLM;
 800468e:	4b57      	ldr	r3, [pc, #348]	; (80047ec <HAL_RCC_GetSysClockFreq+0x348>)
 8004690:	685b      	ldr	r3, [r3, #4]
 8004692:	f003 033f 	and.w	r3, r3, #63	; 0x3f
 8004696:	f8c7 308c 	str.w	r3, [r7, #140]	; 0x8c
      if(__HAL_RCC_GET_PLL_OSCSOURCE() != RCC_PLLSOURCE_HSI)
 800469a:	4b54      	ldr	r3, [pc, #336]	; (80047ec <HAL_RCC_GetSysClockFreq+0x348>)
 800469c:	685b      	ldr	r3, [r3, #4]
 800469e:	f403 0380 	and.w	r3, r3, #4194304	; 0x400000
 80046a2:	2b00      	cmp	r3, #0
 80046a4:	d02a      	beq.n	80046fc <HAL_RCC_GetSysClockFreq+0x258>
      {
        /* HSE used as PLL clock source */
        pllvco = (uint32_t) ((((uint64_t) HSE_VALUE * ((uint64_t) ((RCC->PLLCFGR & RCC_PLLCFGR_PLLN) >> RCC_PLLCFGR_PLLN_Pos)))) / (uint64_t)pllm);
 80046a6:	4b51      	ldr	r3, [pc, #324]	; (80047ec <HAL_RCC_GetSysClockFreq+0x348>)
 80046a8:	685b      	ldr	r3, [r3, #4]
 80046aa:	099b      	lsrs	r3, r3, #6
 80046ac:	2200      	movs	r2, #0
 80046ae:	63bb      	str	r3, [r7, #56]	; 0x38
 80046b0:	63fa      	str	r2, [r7, #60]	; 0x3c
 80046b2:	6bbb      	ldr	r3, [r7, #56]	; 0x38
 80046b4:	f3c3 0008 	ubfx	r0, r3, #0, #9
 80046b8:	2100      	movs	r1, #0
 80046ba:	4b4e      	ldr	r3, [pc, #312]	; (80047f4 <HAL_RCC_GetSysClockFreq+0x350>)
 80046bc:	fb03 f201 	mul.w	r2, r3, r1
 80046c0:	2300      	movs	r3, #0
 80046c2:	fb00 f303 	mul.w	r3, r0, r3
 80046c6:	4413      	add	r3, r2
 80046c8:	4a4a      	ldr	r2, [pc, #296]	; (80047f4 <HAL_RCC_GetSysClockFreq+0x350>)
 80046ca:	fba0 1202 	umull	r1, r2, r0, r2
 80046ce:	677a      	str	r2, [r7, #116]	; 0x74
 80046d0:	460a      	mov	r2, r1
 80046d2:	673a      	str	r2, [r7, #112]	; 0x70
 80046d4:	6f7a      	ldr	r2, [r7, #116]	; 0x74
 80046d6:	4413      	add	r3, r2
 80046d8:	677b      	str	r3, [r7, #116]	; 0x74
 80046da:	f8d7 308c 	ldr.w	r3, [r7, #140]	; 0x8c
 80046de:	2200      	movs	r2, #0
 80046e0:	633b      	str	r3, [r7, #48]	; 0x30
 80046e2:	637a      	str	r2, [r7, #52]	; 0x34
 80046e4:	e9d7 230c 	ldrd	r2, r3, [r7, #48]	; 0x30
 80046e8:	e9d7 011c 	ldrd	r0, r1, [r7, #112]	; 0x70
 80046ec:	f7fb fde8 	bl	80002c0 <__aeabi_uldivmod>
 80046f0:	4602      	mov	r2, r0
 80046f2:	460b      	mov	r3, r1
 80046f4:	4613      	mov	r3, r2
 80046f6:	f8c7 3094 	str.w	r3, [r7, #148]	; 0x94
 80046fa:	e05b      	b.n	80047b4 <HAL_RCC_GetSysClockFreq+0x310>
      }
      else
      {
        /* HSI used as PLL clock source */
        pllvco = (uint32_t) ((((uint64_t) HSI_VALUE * ((uint64_t) ((RCC->PLLCFGR & RCC_PLLCFGR_PLLN) >> RCC_PLLCFGR_PLLN_Pos)))) / (uint64_t)pllm);
 80046fc:	4b3b      	ldr	r3, [pc, #236]	; (80047ec <HAL_RCC_GetSysClockFreq+0x348>)
 80046fe:	685b      	ldr	r3, [r3, #4]
 8004700:	099b      	lsrs	r3, r3, #6
 8004702:	2200      	movs	r2, #0
 8004704:	62bb      	str	r3, [r7, #40]	; 0x28
 8004706:	62fa      	str	r2, [r7, #44]	; 0x2c
 8004708:	6abb      	ldr	r3, [r7, #40]	; 0x28
 800470a:	f3c3 0308 	ubfx	r3, r3, #0, #9
 800470e:	623b      	str	r3, [r7, #32]
 8004710:	2300      	movs	r3, #0
 8004712:	627b      	str	r3, [r7, #36]	; 0x24
 8004714:	e9d7 8908 	ldrd	r8, r9, [r7, #32]
 8004718:	4642      	mov	r2, r8
 800471a:	464b      	mov	r3, r9
 800471c:	f04f 0000 	mov.w	r0, #0
 8004720:	f04f 0100 	mov.w	r1, #0
 8004724:	0159      	lsls	r1, r3, #5
 8004726:	ea41 61d2 	orr.w	r1, r1, r2, lsr #27
 800472a:	0150      	lsls	r0, r2, #5
 800472c:	4602      	mov	r2, r0
 800472e:	460b      	mov	r3, r1
 8004730:	4641      	mov	r1, r8
 8004732:	ebb2 0a01 	subs.w	sl, r2, r1
 8004736:	4649      	mov	r1, r9
 8004738:	eb63 0b01 	sbc.w	fp, r3, r1
 800473c:	f04f 0200 	mov.w	r2, #0
 8004740:	f04f 0300 	mov.w	r3, #0
 8004744:	ea4f 138b 	mov.w	r3, fp, lsl #6
 8004748:	ea43 639a 	orr.w	r3, r3, sl, lsr #26
 800474c:	ea4f 128a 	mov.w	r2, sl, lsl #6
 8004750:	ebb2 040a 	subs.w	r4, r2, sl
 8004754:	eb63 050b 	sbc.w	r5, r3, fp
 8004758:	f04f 0200 	mov.w	r2, #0
 800475c:	f04f 0300 	mov.w	r3, #0
 8004760:	00eb      	lsls	r3, r5, #3
 8004762:	ea43 7354 	orr.w	r3, r3, r4, lsr #29
 8004766:	00e2      	lsls	r2, r4, #3
 8004768:	4614      	mov	r4, r2
 800476a:	461d      	mov	r5, r3
 800476c:	4643      	mov	r3, r8
 800476e:	18e3      	adds	r3, r4, r3
 8004770:	603b      	str	r3, [r7, #0]
 8004772:	464b      	mov	r3, r9
 8004774:	eb45 0303 	adc.w	r3, r5, r3
 8004778:	607b      	str	r3, [r7, #4]
 800477a:	f04f 0200 	mov.w	r2, #0
 800477e:	f04f 0300 	mov.w	r3, #0
 8004782:	e9d7 4500 	ldrd	r4, r5, [r7]
 8004786:	4629      	mov	r1, r5
 8004788:	028b      	lsls	r3, r1, #10
 800478a:	4621      	mov	r1, r4
 800478c:	ea43 5391 	orr.w	r3, r3, r1, lsr #22
 8004790:	4621      	mov	r1, r4
 8004792:	028a      	lsls	r2, r1, #10
 8004794:	4610      	mov	r0, r2
 8004796:	4619      	mov	r1, r3
 8004798:	f8d7 308c 	ldr.w	r3, [r7, #140]	; 0x8c
 800479c:	2200      	movs	r2, #0
 800479e:	61bb      	str	r3, [r7, #24]
 80047a0:	61fa      	str	r2, [r7, #28]
 80047a2:	e9d7 2306 	ldrd	r2, r3, [r7, #24]
 80047a6:	f7fb fd8b 	bl	80002c0 <__aeabi_uldivmod>
 80047aa:	4602      	mov	r2, r0
 80047ac:	460b      	mov	r3, r1
 80047ae:	4613      	mov	r3, r2
 80047b0:	f8c7 3094 	str.w	r3, [r7, #148]	; 0x94
      }
      pllr = ((RCC->PLLCFGR & RCC_PLLCFGR_PLLR) >> RCC_PLLCFGR_PLLR_Pos);
 80047b4:	4b0d      	ldr	r3, [pc, #52]	; (80047ec <HAL_RCC_GetSysClockFreq+0x348>)
 80047b6:	685b      	ldr	r3, [r3, #4]
 80047b8:	0f1b      	lsrs	r3, r3, #28
 80047ba:	f003 0307 	and.w	r3, r3, #7
 80047be:	f8c7 3084 	str.w	r3, [r7, #132]	; 0x84

      sysclockfreq = pllvco/pllr;
 80047c2:	f8d7 2094 	ldr.w	r2, [r7, #148]	; 0x94
 80047c6:	f8d7 3084 	ldr.w	r3, [r7, #132]	; 0x84
 80047ca:	fbb2 f3f3 	udiv	r3, r2, r3
 80047ce:	f8c7 3090 	str.w	r3, [r7, #144]	; 0x90
      break;
 80047d2:	e003      	b.n	80047dc <HAL_RCC_GetSysClockFreq+0x338>
    }
    default:
    {
      sysclockfreq = HSI_VALUE;
 80047d4:	4b06      	ldr	r3, [pc, #24]	; (80047f0 <HAL_RCC_GetSysClockFreq+0x34c>)
 80047d6:	f8c7 3090 	str.w	r3, [r7, #144]	; 0x90
      break;
 80047da:	bf00      	nop
    }
  }
  return sysclockfreq;
 80047dc:	f8d7 3090 	ldr.w	r3, [r7, #144]	; 0x90
}
 80047e0:	4618      	mov	r0, r3
 80047e2:	3798      	adds	r7, #152	; 0x98
 80047e4:	46bd      	mov	sp, r7
 80047e6:	e8bd 8fb0 	ldmia.w	sp!, {r4, r5, r7, r8, r9, sl, fp, pc}
 80047ea:	bf00      	nop
 80047ec:	40023800 	.word	0x40023800
 80047f0:	00f42400 	.word	0x00f42400
 80047f4:	017d7840 	.word	0x017d7840

080047f8 <HAL_RCC_OscConfig>:
  * @note   This function add the PLL/PLLR factor management during PLL configuration this feature
  *         is only available in STM32F410xx/STM32F446xx/STM32F469xx/STM32F479xx/STM32F412Zx/STM32F412Vx/STM32F412Rx/STM32F412Cx devices
  * @retval HAL status
  */
HAL_StatusTypeDef HAL_RCC_OscConfig(RCC_OscInitTypeDef  *RCC_OscInitStruct)
{
 80047f8:	b580      	push	{r7, lr}
 80047fa:	b086      	sub	sp, #24
 80047fc:	af00      	add	r7, sp, #0
 80047fe:	6078      	str	r0, [r7, #4]
  uint32_t tickstart, pll_config;

  /* Check Null pointer */
  if(RCC_OscInitStruct == NULL)
 8004800:	687b      	ldr	r3, [r7, #4]
 8004802:	2b00      	cmp	r3, #0
 8004804:	d101      	bne.n	800480a <HAL_RCC_OscConfig+0x12>
  {
    return HAL_ERROR;
 8004806:	2301      	movs	r3, #1
 8004808:	e28d      	b.n	8004d26 <HAL_RCC_OscConfig+0x52e>
  }

  /* Check the parameters */
  assert_param(IS_RCC_OSCILLATORTYPE(RCC_OscInitStruct->OscillatorType));
  /*------------------------------- HSE Configuration ------------------------*/
  if(((RCC_OscInitStruct->OscillatorType) & RCC_OSCILLATORTYPE_HSE) == RCC_OSCILLATORTYPE_HSE)
 800480a:	687b      	ldr	r3, [r7, #4]
 800480c:	681b      	ldr	r3, [r3, #0]
 800480e:	f003 0301 	and.w	r3, r3, #1
 8004812:	2b00      	cmp	r3, #0
 8004814:	f000 8083 	beq.w	800491e <HAL_RCC_OscConfig+0x126>
  {
    /* Check the parameters */
    assert_param(IS_RCC_HSE(RCC_OscInitStruct->HSEState));
    /* When the HSE is used as system clock or clock source for PLL in these cases HSE will not disabled */
#if defined(STM32F446xx)
    if((__HAL_RCC_GET_SYSCLK_SOURCE() == RCC_CFGR_SWS_HSE)                                                                     ||\
 8004818:	4b94      	ldr	r3, [pc, #592]	; (8004a6c <HAL_RCC_OscConfig+0x274>)
 800481a:	689b      	ldr	r3, [r3, #8]
 800481c:	f003 030c 	and.w	r3, r3, #12
 8004820:	2b04      	cmp	r3, #4
 8004822:	d019      	beq.n	8004858 <HAL_RCC_OscConfig+0x60>
      ((__HAL_RCC_GET_SYSCLK_SOURCE() == RCC_CFGR_SWS_PLL) && ((RCC->PLLCFGR & RCC_PLLCFGR_PLLSRC) == RCC_PLLCFGR_PLLSRC_HSE)) ||\
 8004824:	4b91      	ldr	r3, [pc, #580]	; (8004a6c <HAL_RCC_OscConfig+0x274>)
 8004826:	689b      	ldr	r3, [r3, #8]
 8004828:	f003 030c 	and.w	r3, r3, #12
    if((__HAL_RCC_GET_SYSCLK_SOURCE() == RCC_CFGR_SWS_HSE)                                                                     ||\
 800482c:	2b08      	cmp	r3, #8
 800482e:	d106      	bne.n	800483e <HAL_RCC_OscConfig+0x46>
      ((__HAL_RCC_GET_SYSCLK_SOURCE() == RCC_CFGR_SWS_PLL) && ((RCC->PLLCFGR & RCC_PLLCFGR_PLLSRC) == RCC_PLLCFGR_PLLSRC_HSE)) ||\
 8004830:	4b8e      	ldr	r3, [pc, #568]	; (8004a6c <HAL_RCC_OscConfig+0x274>)
 8004832:	685b      	ldr	r3, [r3, #4]
 8004834:	f403 0380 	and.w	r3, r3, #4194304	; 0x400000
 8004838:	f5b3 0f80 	cmp.w	r3, #4194304	; 0x400000
 800483c:	d00c      	beq.n	8004858 <HAL_RCC_OscConfig+0x60>
      ((__HAL_RCC_GET_SYSCLK_SOURCE() == RCC_CFGR_SWS_PLLR) && ((RCC->PLLCFGR & RCC_PLLCFGR_PLLSRC) == RCC_PLLCFGR_PLLSRC_HSE)))
 800483e:	4b8b      	ldr	r3, [pc, #556]	; (8004a6c <HAL_RCC_OscConfig+0x274>)
 8004840:	689b      	ldr	r3, [r3, #8]
 8004842:	f003 030c 	and.w	r3, r3, #12
      ((__HAL_RCC_GET_SYSCLK_SOURCE() == RCC_CFGR_SWS_PLL) && ((RCC->PLLCFGR & RCC_PLLCFGR_PLLSRC) == RCC_PLLCFGR_PLLSRC_HSE)) ||\
 8004846:	2b0c      	cmp	r3, #12
 8004848:	d112      	bne.n	8004870 <HAL_RCC_OscConfig+0x78>
      ((__HAL_RCC_GET_SYSCLK_SOURCE() == RCC_CFGR_SWS_PLLR) && ((RCC->PLLCFGR & RCC_PLLCFGR_PLLSRC) == RCC_PLLCFGR_PLLSRC_HSE)))
 800484a:	4b88      	ldr	r3, [pc, #544]	; (8004a6c <HAL_RCC_OscConfig+0x274>)
 800484c:	685b      	ldr	r3, [r3, #4]
 800484e:	f403 0380 	and.w	r3, r3, #4194304	; 0x400000
 8004852:	f5b3 0f80 	cmp.w	r3, #4194304	; 0x400000
 8004856:	d10b      	bne.n	8004870 <HAL_RCC_OscConfig+0x78>
#else
    if((__HAL_RCC_GET_SYSCLK_SOURCE() == RCC_CFGR_SWS_HSE)                                                                     ||\
      ((__HAL_RCC_GET_SYSCLK_SOURCE() == RCC_CFGR_SWS_PLL) && ((RCC->PLLCFGR & RCC_PLLCFGR_PLLSRC) == RCC_PLLCFGR_PLLSRC_HSE)))
#endif /* STM32F446xx */
    {
      if((__HAL_RCC_GET_FLAG(RCC_FLAG_HSERDY) != RESET) && (RCC_OscInitStruct->HSEState == RCC_HSE_OFF))
 8004858:	4b84      	ldr	r3, [pc, #528]	; (8004a6c <HAL_RCC_OscConfig+0x274>)
 800485a:	681b      	ldr	r3, [r3, #0]
 800485c:	f403 3300 	and.w	r3, r3, #131072	; 0x20000
 8004860:	2b00      	cmp	r3, #0
 8004862:	d05b      	beq.n	800491c <HAL_RCC_OscConfig+0x124>
 8004864:	687b      	ldr	r3, [r7, #4]
 8004866:	685b      	ldr	r3, [r3, #4]
 8004868:	2b00      	cmp	r3, #0
 800486a:	d157      	bne.n	800491c <HAL_RCC_OscConfig+0x124>
      {
        return HAL_ERROR;
 800486c:	2301      	movs	r3, #1
 800486e:	e25a      	b.n	8004d26 <HAL_RCC_OscConfig+0x52e>
      }
    }
    else
    {
      /* Set the new HSE configuration ---------------------------------------*/
      __HAL_RCC_HSE_CONFIG(RCC_OscInitStruct->HSEState);
 8004870:	687b      	ldr	r3, [r7, #4]
 8004872:	685b      	ldr	r3, [r3, #4]
 8004874:	f5b3 3f80 	cmp.w	r3, #65536	; 0x10000
 8004878:	d106      	bne.n	8004888 <HAL_RCC_OscConfig+0x90>
 800487a:	4b7c      	ldr	r3, [pc, #496]	; (8004a6c <HAL_RCC_OscConfig+0x274>)
 800487c:	681b      	ldr	r3, [r3, #0]
 800487e:	4a7b      	ldr	r2, [pc, #492]	; (8004a6c <HAL_RCC_OscConfig+0x274>)
 8004880:	f443 3380 	orr.w	r3, r3, #65536	; 0x10000
 8004884:	6013      	str	r3, [r2, #0]
 8004886:	e01d      	b.n	80048c4 <HAL_RCC_OscConfig+0xcc>
 8004888:	687b      	ldr	r3, [r7, #4]
 800488a:	685b      	ldr	r3, [r3, #4]
 800488c:	f5b3 2fa0 	cmp.w	r3, #327680	; 0x50000
 8004890:	d10c      	bne.n	80048ac <HAL_RCC_OscConfig+0xb4>
 8004892:	4b76      	ldr	r3, [pc, #472]	; (8004a6c <HAL_RCC_OscConfig+0x274>)
 8004894:	681b      	ldr	r3, [r3, #0]
 8004896:	4a75      	ldr	r2, [pc, #468]	; (8004a6c <HAL_RCC_OscConfig+0x274>)
 8004898:	f443 2380 	orr.w	r3, r3, #262144	; 0x40000
 800489c:	6013      	str	r3, [r2, #0]
 800489e:	4b73      	ldr	r3, [pc, #460]	; (8004a6c <HAL_RCC_OscConfig+0x274>)
 80048a0:	681b      	ldr	r3, [r3, #0]
 80048a2:	4a72      	ldr	r2, [pc, #456]	; (8004a6c <HAL_RCC_OscConfig+0x274>)
 80048a4:	f443 3380 	orr.w	r3, r3, #65536	; 0x10000
 80048a8:	6013      	str	r3, [r2, #0]
 80048aa:	e00b      	b.n	80048c4 <HAL_RCC_OscConfig+0xcc>
 80048ac:	4b6f      	ldr	r3, [pc, #444]	; (8004a6c <HAL_RCC_OscConfig+0x274>)
 80048ae:	681b      	ldr	r3, [r3, #0]
 80048b0:	4a6e      	ldr	r2, [pc, #440]	; (8004a6c <HAL_RCC_OscConfig+0x274>)
 80048b2:	f423 3380 	bic.w	r3, r3, #65536	; 0x10000
 80048b6:	6013      	str	r3, [r2, #0]
 80048b8:	4b6c      	ldr	r3, [pc, #432]	; (8004a6c <HAL_RCC_OscConfig+0x274>)
 80048ba:	681b      	ldr	r3, [r3, #0]
 80048bc:	4a6b      	ldr	r2, [pc, #428]	; (8004a6c <HAL_RCC_OscConfig+0x274>)
 80048be:	f423 2380 	bic.w	r3, r3, #262144	; 0x40000
 80048c2:	6013      	str	r3, [r2, #0]

      /* Check the HSE State */
      if((RCC_OscInitStruct->HSEState) != RCC_HSE_OFF)
 80048c4:	687b      	ldr	r3, [r7, #4]
 80048c6:	685b      	ldr	r3, [r3, #4]
 80048c8:	2b00      	cmp	r3, #0
 80048ca:	d013      	beq.n	80048f4 <HAL_RCC_OscConfig+0xfc>
      {
        /* Get Start Tick*/
        tickstart = HAL_GetTick();
 80048cc:	f7fe f852 	bl	8002974 <HAL_GetTick>
 80048d0:	6138      	str	r0, [r7, #16]

        /* Wait till HSE is ready */
        while(__HAL_RCC_GET_FLAG(RCC_FLAG_HSERDY) == RESET)
 80048d2:	e008      	b.n	80048e6 <HAL_RCC_OscConfig+0xee>
        {
          if((HAL_GetTick() - tickstart ) > HSE_TIMEOUT_VALUE)
 80048d4:	f7fe f84e 	bl	8002974 <HAL_GetTick>
 80048d8:	4602      	mov	r2, r0
 80048da:	693b      	ldr	r3, [r7, #16]
 80048dc:	1ad3      	subs	r3, r2, r3
 80048de:	2b64      	cmp	r3, #100	; 0x64
 80048e0:	d901      	bls.n	80048e6 <HAL_RCC_OscConfig+0xee>
          {
            return HAL_TIMEOUT;
 80048e2:	2303      	movs	r3, #3
 80048e4:	e21f      	b.n	8004d26 <HAL_RCC_OscConfig+0x52e>
        while(__HAL_RCC_GET_FLAG(RCC_FLAG_HSERDY) == RESET)
 80048e6:	4b61      	ldr	r3, [pc, #388]	; (8004a6c <HAL_RCC_OscConfig+0x274>)
 80048e8:	681b      	ldr	r3, [r3, #0]
 80048ea:	f403 3300 	and.w	r3, r3, #131072	; 0x20000
 80048ee:	2b00      	cmp	r3, #0
 80048f0:	d0f0      	beq.n	80048d4 <HAL_RCC_OscConfig+0xdc>
 80048f2:	e014      	b.n	800491e <HAL_RCC_OscConfig+0x126>
        }
      }
      else
      {
        /* Get Start Tick*/
        tickstart = HAL_GetTick();
 80048f4:	f7fe f83e 	bl	8002974 <HAL_GetTick>
 80048f8:	6138      	str	r0, [r7, #16]

        /* Wait till HSE is bypassed or disabled */
        while(__HAL_RCC_GET_FLAG(RCC_FLAG_HSERDY) != RESET)
 80048fa:	e008      	b.n	800490e <HAL_RCC_OscConfig+0x116>
        {
          if((HAL_GetTick() - tickstart ) > HSE_TIMEOUT_VALUE)
 80048fc:	f7fe f83a 	bl	8002974 <HAL_GetTick>
 8004900:	4602      	mov	r2, r0
 8004902:	693b      	ldr	r3, [r7, #16]
 8004904:	1ad3      	subs	r3, r2, r3
 8004906:	2b64      	cmp	r3, #100	; 0x64
 8004908:	d901      	bls.n	800490e <HAL_RCC_OscConfig+0x116>
          {
            return HAL_TIMEOUT;
 800490a:	2303      	movs	r3, #3
 800490c:	e20b      	b.n	8004d26 <HAL_RCC_OscConfig+0x52e>
        while(__HAL_RCC_GET_FLAG(RCC_FLAG_HSERDY) != RESET)
 800490e:	4b57      	ldr	r3, [pc, #348]	; (8004a6c <HAL_RCC_OscConfig+0x274>)
 8004910:	681b      	ldr	r3, [r3, #0]
 8004912:	f403 3300 	and.w	r3, r3, #131072	; 0x20000
 8004916:	2b00      	cmp	r3, #0
 8004918:	d1f0      	bne.n	80048fc <HAL_RCC_OscConfig+0x104>
 800491a:	e000      	b.n	800491e <HAL_RCC_OscConfig+0x126>
      if((__HAL_RCC_GET_FLAG(RCC_FLAG_HSERDY) != RESET) && (RCC_OscInitStruct->HSEState == RCC_HSE_OFF))
 800491c:	bf00      	nop
        }
      }
    }
  }
  /*----------------------------- HSI Configuration --------------------------*/
  if(((RCC_OscInitStruct->OscillatorType) & RCC_OSCILLATORTYPE_HSI) == RCC_OSCILLATORTYPE_HSI)
 800491e:	687b      	ldr	r3, [r7, #4]
 8004920:	681b      	ldr	r3, [r3, #0]
 8004922:	f003 0302 	and.w	r3, r3, #2
 8004926:	2b00      	cmp	r3, #0
 8004928:	d06f      	beq.n	8004a0a <HAL_RCC_OscConfig+0x212>
    assert_param(IS_RCC_HSI(RCC_OscInitStruct->HSIState));
    assert_param(IS_RCC_CALIBRATION_VALUE(RCC_OscInitStruct->HSICalibrationValue));

    /* Check if HSI is used as system clock or as PLL source when PLL is selected as system clock */
#if defined(STM32F446xx)
    if((__HAL_RCC_GET_SYSCLK_SOURCE() == RCC_CFGR_SWS_HSI)                                                                     ||\
 800492a:	4b50      	ldr	r3, [pc, #320]	; (8004a6c <HAL_RCC_OscConfig+0x274>)
 800492c:	689b      	ldr	r3, [r3, #8]
 800492e:	f003 030c 	and.w	r3, r3, #12
 8004932:	2b00      	cmp	r3, #0
 8004934:	d017      	beq.n	8004966 <HAL_RCC_OscConfig+0x16e>
      ((__HAL_RCC_GET_SYSCLK_SOURCE() == RCC_CFGR_SWS_PLL) && ((RCC->PLLCFGR & RCC_PLLCFGR_PLLSRC) == RCC_PLLCFGR_PLLSRC_HSI)) ||\
 8004936:	4b4d      	ldr	r3, [pc, #308]	; (8004a6c <HAL_RCC_OscConfig+0x274>)
 8004938:	689b      	ldr	r3, [r3, #8]
 800493a:	f003 030c 	and.w	r3, r3, #12
    if((__HAL_RCC_GET_SYSCLK_SOURCE() == RCC_CFGR_SWS_HSI)                                                                     ||\
 800493e:	2b08      	cmp	r3, #8
 8004940:	d105      	bne.n	800494e <HAL_RCC_OscConfig+0x156>
      ((__HAL_RCC_GET_SYSCLK_SOURCE() == RCC_CFGR_SWS_PLL) && ((RCC->PLLCFGR & RCC_PLLCFGR_PLLSRC) == RCC_PLLCFGR_PLLSRC_HSI)) ||\
 8004942:	4b4a      	ldr	r3, [pc, #296]	; (8004a6c <HAL_RCC_OscConfig+0x274>)
 8004944:	685b      	ldr	r3, [r3, #4]
 8004946:	f403 0380 	and.w	r3, r3, #4194304	; 0x400000
 800494a:	2b00      	cmp	r3, #0
 800494c:	d00b      	beq.n	8004966 <HAL_RCC_OscConfig+0x16e>
      ((__HAL_RCC_GET_SYSCLK_SOURCE() == RCC_CFGR_SWS_PLLR) && ((RCC->PLLCFGR & RCC_PLLCFGR_PLLSRC) == RCC_PLLCFGR_PLLSRC_HSI)))
 800494e:	4b47      	ldr	r3, [pc, #284]	; (8004a6c <HAL_RCC_OscConfig+0x274>)
 8004950:	689b      	ldr	r3, [r3, #8]
 8004952:	f003 030c 	and.w	r3, r3, #12
      ((__HAL_RCC_GET_SYSCLK_SOURCE() == RCC_CFGR_SWS_PLL) && ((RCC->PLLCFGR & RCC_PLLCFGR_PLLSRC) == RCC_PLLCFGR_PLLSRC_HSI)) ||\
 8004956:	2b0c      	cmp	r3, #12
 8004958:	d11c      	bne.n	8004994 <HAL_RCC_OscConfig+0x19c>
      ((__HAL_RCC_GET_SYSCLK_SOURCE() == RCC_CFGR_SWS_PLLR) && ((RCC->PLLCFGR & RCC_PLLCFGR_PLLSRC) == RCC_PLLCFGR_PLLSRC_HSI)))
 800495a:	4b44      	ldr	r3, [pc, #272]	; (8004a6c <HAL_RCC_OscConfig+0x274>)
 800495c:	685b      	ldr	r3, [r3, #4]
 800495e:	f403 0380 	and.w	r3, r3, #4194304	; 0x400000
 8004962:	2b00      	cmp	r3, #0
 8004964:	d116      	bne.n	8004994 <HAL_RCC_OscConfig+0x19c>
    if((__HAL_RCC_GET_SYSCLK_SOURCE() == RCC_CFGR_SWS_HSI)                                                                     ||\
      ((__HAL_RCC_GET_SYSCLK_SOURCE() == RCC_CFGR_SWS_PLL) && ((RCC->PLLCFGR & RCC_PLLCFGR_PLLSRC) == RCC_PLLCFGR_PLLSRC_HSI)))
#endif /* STM32F446xx */
    {
      /* When HSI is used as system clock it will not disabled */
      if((__HAL_RCC_GET_FLAG(RCC_FLAG_HSIRDY) != RESET) && (RCC_OscInitStruct->HSIState != RCC_HSI_ON))
 8004966:	4b41      	ldr	r3, [pc, #260]	; (8004a6c <HAL_RCC_OscConfig+0x274>)
 8004968:	681b      	ldr	r3, [r3, #0]
 800496a:	f003 0302 	and.w	r3, r3, #2
 800496e:	2b00      	cmp	r3, #0
 8004970:	d005      	beq.n	800497e <HAL_RCC_OscConfig+0x186>
 8004972:	687b      	ldr	r3, [r7, #4]
 8004974:	68db      	ldr	r3, [r3, #12]
 8004976:	2b01      	cmp	r3, #1
 8004978:	d001      	beq.n	800497e <HAL_RCC_OscConfig+0x186>
      {
        return HAL_ERROR;
 800497a:	2301      	movs	r3, #1
 800497c:	e1d3      	b.n	8004d26 <HAL_RCC_OscConfig+0x52e>
      }
      /* Otherwise, just the calibration is allowed */
      else
      {
        /* Adjusts the Internal High Speed oscillator (HSI) calibration value.*/
        __HAL_RCC_HSI_CALIBRATIONVALUE_ADJUST(RCC_OscInitStruct->HSICalibrationValue);
 800497e:	4b3b      	ldr	r3, [pc, #236]	; (8004a6c <HAL_RCC_OscConfig+0x274>)
 8004980:	681b      	ldr	r3, [r3, #0]
 8004982:	f023 02f8 	bic.w	r2, r3, #248	; 0xf8
 8004986:	687b      	ldr	r3, [r7, #4]
 8004988:	691b      	ldr	r3, [r3, #16]
 800498a:	00db      	lsls	r3, r3, #3
 800498c:	4937      	ldr	r1, [pc, #220]	; (8004a6c <HAL_RCC_OscConfig+0x274>)
 800498e:	4313      	orrs	r3, r2
 8004990:	600b      	str	r3, [r1, #0]
      if((__HAL_RCC_GET_FLAG(RCC_FLAG_HSIRDY) != RESET) && (RCC_OscInitStruct->HSIState != RCC_HSI_ON))
 8004992:	e03a      	b.n	8004a0a <HAL_RCC_OscConfig+0x212>
      }
    }
    else
    {
      /* Check the HSI State */
      if((RCC_OscInitStruct->HSIState)!= RCC_HSI_OFF)
 8004994:	687b      	ldr	r3, [r7, #4]
 8004996:	68db      	ldr	r3, [r3, #12]
 8004998:	2b00      	cmp	r3, #0
 800499a:	d020      	beq.n	80049de <HAL_RCC_OscConfig+0x1e6>
      {
        /* Enable the Internal High Speed oscillator (HSI). */
        __HAL_RCC_HSI_ENABLE();
 800499c:	4b34      	ldr	r3, [pc, #208]	; (8004a70 <HAL_RCC_OscConfig+0x278>)
 800499e:	2201      	movs	r2, #1
 80049a0:	601a      	str	r2, [r3, #0]

        /* Get Start Tick*/
        tickstart = HAL_GetTick();
 80049a2:	f7fd ffe7 	bl	8002974 <HAL_GetTick>
 80049a6:	6138      	str	r0, [r7, #16]

        /* Wait till HSI is ready */
        while(__HAL_RCC_GET_FLAG(RCC_FLAG_HSIRDY) == RESET)
 80049a8:	e008      	b.n	80049bc <HAL_RCC_OscConfig+0x1c4>
        {
          if((HAL_GetTick() - tickstart ) > HSI_TIMEOUT_VALUE)
 80049aa:	f7fd ffe3 	bl	8002974 <HAL_GetTick>
 80049ae:	4602      	mov	r2, r0
 80049b0:	693b      	ldr	r3, [r7, #16]
 80049b2:	1ad3      	subs	r3, r2, r3
 80049b4:	2b02      	cmp	r3, #2
 80049b6:	d901      	bls.n	80049bc <HAL_RCC_OscConfig+0x1c4>
          {
            return HAL_TIMEOUT;
 80049b8:	2303      	movs	r3, #3
 80049ba:	e1b4      	b.n	8004d26 <HAL_RCC_OscConfig+0x52e>
        while(__HAL_RCC_GET_FLAG(RCC_FLAG_HSIRDY) == RESET)
 80049bc:	4b2b      	ldr	r3, [pc, #172]	; (8004a6c <HAL_RCC_OscConfig+0x274>)
 80049be:	681b      	ldr	r3, [r3, #0]
 80049c0:	f003 0302 	and.w	r3, r3, #2
 80049c4:	2b00      	cmp	r3, #0
 80049c6:	d0f0      	beq.n	80049aa <HAL_RCC_OscConfig+0x1b2>
          }
        }

        /* Adjusts the Internal High Speed oscillator (HSI) calibration value.*/
        __HAL_RCC_HSI_CALIBRATIONVALUE_ADJUST(RCC_OscInitStruct->HSICalibrationValue);
 80049c8:	4b28      	ldr	r3, [pc, #160]	; (8004a6c <HAL_RCC_OscConfig+0x274>)
 80049ca:	681b      	ldr	r3, [r3, #0]
 80049cc:	f023 02f8 	bic.w	r2, r3, #248	; 0xf8
 80049d0:	687b      	ldr	r3, [r7, #4]
 80049d2:	691b      	ldr	r3, [r3, #16]
 80049d4:	00db      	lsls	r3, r3, #3
 80049d6:	4925      	ldr	r1, [pc, #148]	; (8004a6c <HAL_RCC_OscConfig+0x274>)
 80049d8:	4313      	orrs	r3, r2
 80049da:	600b      	str	r3, [r1, #0]
 80049dc:	e015      	b.n	8004a0a <HAL_RCC_OscConfig+0x212>
      }
      else
      {
        /* Disable the Internal High Speed oscillator (HSI). */
        __HAL_RCC_HSI_DISABLE();
 80049de:	4b24      	ldr	r3, [pc, #144]	; (8004a70 <HAL_RCC_OscConfig+0x278>)
 80049e0:	2200      	movs	r2, #0
 80049e2:	601a      	str	r2, [r3, #0]

        /* Get Start Tick*/
        tickstart = HAL_GetTick();
 80049e4:	f7fd ffc6 	bl	8002974 <HAL_GetTick>
 80049e8:	6138      	str	r0, [r7, #16]

        /* Wait till HSI is ready */
        while(__HAL_RCC_GET_FLAG(RCC_FLAG_HSIRDY) != RESET)
 80049ea:	e008      	b.n	80049fe <HAL_RCC_OscConfig+0x206>
        {
          if((HAL_GetTick() - tickstart ) > HSI_TIMEOUT_VALUE)
 80049ec:	f7fd ffc2 	bl	8002974 <HAL_GetTick>
 80049f0:	4602      	mov	r2, r0
 80049f2:	693b      	ldr	r3, [r7, #16]
 80049f4:	1ad3      	subs	r3, r2, r3
 80049f6:	2b02      	cmp	r3, #2
 80049f8:	d901      	bls.n	80049fe <HAL_RCC_OscConfig+0x206>
          {
            return HAL_TIMEOUT;
 80049fa:	2303      	movs	r3, #3
 80049fc:	e193      	b.n	8004d26 <HAL_RCC_OscConfig+0x52e>
        while(__HAL_RCC_GET_FLAG(RCC_FLAG_HSIRDY) != RESET)
 80049fe:	4b1b      	ldr	r3, [pc, #108]	; (8004a6c <HAL_RCC_OscConfig+0x274>)
 8004a00:	681b      	ldr	r3, [r3, #0]
 8004a02:	f003 0302 	and.w	r3, r3, #2
 8004a06:	2b00      	cmp	r3, #0
 8004a08:	d1f0      	bne.n	80049ec <HAL_RCC_OscConfig+0x1f4>
        }
      }
    }
  }
  /*------------------------------ LSI Configuration -------------------------*/
  if(((RCC_OscInitStruct->OscillatorType) & RCC_OSCILLATORTYPE_LSI) == RCC_OSCILLATORTYPE_LSI)
 8004a0a:	687b      	ldr	r3, [r7, #4]
 8004a0c:	681b      	ldr	r3, [r3, #0]
 8004a0e:	f003 0308 	and.w	r3, r3, #8
 8004a12:	2b00      	cmp	r3, #0
 8004a14:	d036      	beq.n	8004a84 <HAL_RCC_OscConfig+0x28c>
  {
    /* Check the parameters */
    assert_param(IS_RCC_LSI(RCC_OscInitStruct->LSIState));

    /* Check the LSI State */
    if((RCC_OscInitStruct->LSIState)!= RCC_LSI_OFF)
 8004a16:	687b      	ldr	r3, [r7, #4]
 8004a18:	695b      	ldr	r3, [r3, #20]
 8004a1a:	2b00      	cmp	r3, #0
 8004a1c:	d016      	beq.n	8004a4c <HAL_RCC_OscConfig+0x254>
    {
      /* Enable the Internal Low Speed oscillator (LSI). */
      __HAL_RCC_LSI_ENABLE();
 8004a1e:	4b15      	ldr	r3, [pc, #84]	; (8004a74 <HAL_RCC_OscConfig+0x27c>)
 8004a20:	2201      	movs	r2, #1
 8004a22:	601a      	str	r2, [r3, #0]

      /* Get Start Tick*/
      tickstart = HAL_GetTick();
 8004a24:	f7fd ffa6 	bl	8002974 <HAL_GetTick>
 8004a28:	6138      	str	r0, [r7, #16]

      /* Wait till LSI is ready */
      while(__HAL_RCC_GET_FLAG(RCC_FLAG_LSIRDY) == RESET)
 8004a2a:	e008      	b.n	8004a3e <HAL_RCC_OscConfig+0x246>
      {
        if((HAL_GetTick() - tickstart ) > LSI_TIMEOUT_VALUE)
 8004a2c:	f7fd ffa2 	bl	8002974 <HAL_GetTick>
 8004a30:	4602      	mov	r2, r0
 8004a32:	693b      	ldr	r3, [r7, #16]
 8004a34:	1ad3      	subs	r3, r2, r3
 8004a36:	2b02      	cmp	r3, #2
 8004a38:	d901      	bls.n	8004a3e <HAL_RCC_OscConfig+0x246>
        {
          return HAL_TIMEOUT;
 8004a3a:	2303      	movs	r3, #3
 8004a3c:	e173      	b.n	8004d26 <HAL_RCC_OscConfig+0x52e>
      while(__HAL_RCC_GET_FLAG(RCC_FLAG_LSIRDY) == RESET)
 8004a3e:	4b0b      	ldr	r3, [pc, #44]	; (8004a6c <HAL_RCC_OscConfig+0x274>)
 8004a40:	6f5b      	ldr	r3, [r3, #116]	; 0x74
 8004a42:	f003 0302 	and.w	r3, r3, #2
 8004a46:	2b00      	cmp	r3, #0
 8004a48:	d0f0      	beq.n	8004a2c <HAL_RCC_OscConfig+0x234>
 8004a4a:	e01b      	b.n	8004a84 <HAL_RCC_OscConfig+0x28c>
      }
    }
    else
    {
      /* Disable the Internal Low Speed oscillator (LSI). */
      __HAL_RCC_LSI_DISABLE();
 8004a4c:	4b09      	ldr	r3, [pc, #36]	; (8004a74 <HAL_RCC_OscConfig+0x27c>)
 8004a4e:	2200      	movs	r2, #0
 8004a50:	601a      	str	r2, [r3, #0]

      /* Get Start Tick*/
      tickstart = HAL_GetTick();
 8004a52:	f7fd ff8f 	bl	8002974 <HAL_GetTick>
 8004a56:	6138      	str	r0, [r7, #16]

      /* Wait till LSI is ready */
      while(__HAL_RCC_GET_FLAG(RCC_FLAG_LSIRDY) != RESET)
 8004a58:	e00e      	b.n	8004a78 <HAL_RCC_OscConfig+0x280>
      {
        if((HAL_GetTick() - tickstart ) > LSI_TIMEOUT_VALUE)
 8004a5a:	f7fd ff8b 	bl	8002974 <HAL_GetTick>
 8004a5e:	4602      	mov	r2, r0
 8004a60:	693b      	ldr	r3, [r7, #16]
 8004a62:	1ad3      	subs	r3, r2, r3
 8004a64:	2b02      	cmp	r3, #2
 8004a66:	d907      	bls.n	8004a78 <HAL_RCC_OscConfig+0x280>
        {
          return HAL_TIMEOUT;
 8004a68:	2303      	movs	r3, #3
 8004a6a:	e15c      	b.n	8004d26 <HAL_RCC_OscConfig+0x52e>
 8004a6c:	40023800 	.word	0x40023800
 8004a70:	42470000 	.word	0x42470000
 8004a74:	42470e80 	.word	0x42470e80
      while(__HAL_RCC_GET_FLAG(RCC_FLAG_LSIRDY) != RESET)
 8004a78:	4b8a      	ldr	r3, [pc, #552]	; (8004ca4 <HAL_RCC_OscConfig+0x4ac>)
 8004a7a:	6f5b      	ldr	r3, [r3, #116]	; 0x74
 8004a7c:	f003 0302 	and.w	r3, r3, #2
 8004a80:	2b00      	cmp	r3, #0
 8004a82:	d1ea      	bne.n	8004a5a <HAL_RCC_OscConfig+0x262>
        }
      }
    }
  }
  /*------------------------------ LSE Configuration -------------------------*/
  if(((RCC_OscInitStruct->OscillatorType) & RCC_OSCILLATORTYPE_LSE) == RCC_OSCILLATORTYPE_LSE)
 8004a84:	687b      	ldr	r3, [r7, #4]
 8004a86:	681b      	ldr	r3, [r3, #0]
 8004a88:	f003 0304 	and.w	r3, r3, #4
 8004a8c:	2b00      	cmp	r3, #0
 8004a8e:	f000 8097 	beq.w	8004bc0 <HAL_RCC_OscConfig+0x3c8>
  {
    FlagStatus       pwrclkchanged = RESET;
 8004a92:	2300      	movs	r3, #0
 8004a94:	75fb      	strb	r3, [r7, #23]
    /* Check the parameters */
    assert_param(IS_RCC_LSE(RCC_OscInitStruct->LSEState));

    /* Update LSE configuration in Backup Domain control register    */
    /* Requires to enable write access to Backup Domain of necessary */
    if(__HAL_RCC_PWR_IS_CLK_DISABLED())
 8004a96:	4b83      	ldr	r3, [pc, #524]	; (8004ca4 <HAL_RCC_OscConfig+0x4ac>)
 8004a98:	6c1b      	ldr	r3, [r3, #64]	; 0x40
 8004a9a:	f003 5380 	and.w	r3, r3, #268435456	; 0x10000000
 8004a9e:	2b00      	cmp	r3, #0
 8004aa0:	d10f      	bne.n	8004ac2 <HAL_RCC_OscConfig+0x2ca>
    {
      __HAL_RCC_PWR_CLK_ENABLE();
 8004aa2:	2300      	movs	r3, #0
 8004aa4:	60bb      	str	r3, [r7, #8]
 8004aa6:	4b7f      	ldr	r3, [pc, #508]	; (8004ca4 <HAL_RCC_OscConfig+0x4ac>)
 8004aa8:	6c1b      	ldr	r3, [r3, #64]	; 0x40
 8004aaa:	4a7e      	ldr	r2, [pc, #504]	; (8004ca4 <HAL_RCC_OscConfig+0x4ac>)
 8004aac:	f043 5380 	orr.w	r3, r3, #268435456	; 0x10000000
 8004ab0:	6413      	str	r3, [r2, #64]	; 0x40
 8004ab2:	4b7c      	ldr	r3, [pc, #496]	; (8004ca4 <HAL_RCC_OscConfig+0x4ac>)
 8004ab4:	6c1b      	ldr	r3, [r3, #64]	; 0x40
 8004ab6:	f003 5380 	and.w	r3, r3, #268435456	; 0x10000000
 8004aba:	60bb      	str	r3, [r7, #8]
 8004abc:	68bb      	ldr	r3, [r7, #8]
      pwrclkchanged = SET;
 8004abe:	2301      	movs	r3, #1
 8004ac0:	75fb      	strb	r3, [r7, #23]
    }

    if(HAL_IS_BIT_CLR(PWR->CR, PWR_CR_DBP))
 8004ac2:	4b79      	ldr	r3, [pc, #484]	; (8004ca8 <HAL_RCC_OscConfig+0x4b0>)
 8004ac4:	681b      	ldr	r3, [r3, #0]
 8004ac6:	f403 7380 	and.w	r3, r3, #256	; 0x100
 8004aca:	2b00      	cmp	r3, #0
 8004acc:	d118      	bne.n	8004b00 <HAL_RCC_OscConfig+0x308>
    {
      /* Enable write access to Backup domain */
      SET_BIT(PWR->CR, PWR_CR_DBP);
 8004ace:	4b76      	ldr	r3, [pc, #472]	; (8004ca8 <HAL_RCC_OscConfig+0x4b0>)
 8004ad0:	681b      	ldr	r3, [r3, #0]
 8004ad2:	4a75      	ldr	r2, [pc, #468]	; (8004ca8 <HAL_RCC_OscConfig+0x4b0>)
 8004ad4:	f443 7380 	orr.w	r3, r3, #256	; 0x100
 8004ad8:	6013      	str	r3, [r2, #0]

      /* Wait for Backup domain Write protection disable */
      tickstart = HAL_GetTick();
 8004ada:	f7fd ff4b 	bl	8002974 <HAL_GetTick>
 8004ade:	6138      	str	r0, [r7, #16]

      while(HAL_IS_BIT_CLR(PWR->CR, PWR_CR_DBP))
 8004ae0:	e008      	b.n	8004af4 <HAL_RCC_OscConfig+0x2fc>
      {
        if((HAL_GetTick() - tickstart) > RCC_DBP_TIMEOUT_VALUE)
 8004ae2:	f7fd ff47 	bl	8002974 <HAL_GetTick>
 8004ae6:	4602      	mov	r2, r0
 8004ae8:	693b      	ldr	r3, [r7, #16]
 8004aea:	1ad3      	subs	r3, r2, r3
 8004aec:	2b02      	cmp	r3, #2
 8004aee:	d901      	bls.n	8004af4 <HAL_RCC_OscConfig+0x2fc>
        {
          return HAL_TIMEOUT;
 8004af0:	2303      	movs	r3, #3
 8004af2:	e118      	b.n	8004d26 <HAL_RCC_OscConfig+0x52e>
      while(HAL_IS_BIT_CLR(PWR->CR, PWR_CR_DBP))
 8004af4:	4b6c      	ldr	r3, [pc, #432]	; (8004ca8 <HAL_RCC_OscConfig+0x4b0>)
 8004af6:	681b      	ldr	r3, [r3, #0]
 8004af8:	f403 7380 	and.w	r3, r3, #256	; 0x100
 8004afc:	2b00      	cmp	r3, #0
 8004afe:	d0f0      	beq.n	8004ae2 <HAL_RCC_OscConfig+0x2ea>
        }
      }
    }

    /* Set the new LSE configuration -----------------------------------------*/
    __HAL_RCC_LSE_CONFIG(RCC_OscInitStruct->LSEState);
 8004b00:	687b      	ldr	r3, [r7, #4]
 8004b02:	689b      	ldr	r3, [r3, #8]
 8004b04:	2b01      	cmp	r3, #1
 8004b06:	d106      	bne.n	8004b16 <HAL_RCC_OscConfig+0x31e>
 8004b08:	4b66      	ldr	r3, [pc, #408]	; (8004ca4 <HAL_RCC_OscConfig+0x4ac>)
 8004b0a:	6f1b      	ldr	r3, [r3, #112]	; 0x70
 8004b0c:	4a65      	ldr	r2, [pc, #404]	; (8004ca4 <HAL_RCC_OscConfig+0x4ac>)
 8004b0e:	f043 0301 	orr.w	r3, r3, #1
 8004b12:	6713      	str	r3, [r2, #112]	; 0x70
 8004b14:	e01c      	b.n	8004b50 <HAL_RCC_OscConfig+0x358>
 8004b16:	687b      	ldr	r3, [r7, #4]
 8004b18:	689b      	ldr	r3, [r3, #8]
 8004b1a:	2b05      	cmp	r3, #5
 8004b1c:	d10c      	bne.n	8004b38 <HAL_RCC_OscConfig+0x340>
 8004b1e:	4b61      	ldr	r3, [pc, #388]	; (8004ca4 <HAL_RCC_OscConfig+0x4ac>)
 8004b20:	6f1b      	ldr	r3, [r3, #112]	; 0x70
 8004b22:	4a60      	ldr	r2, [pc, #384]	; (8004ca4 <HAL_RCC_OscConfig+0x4ac>)
 8004b24:	f043 0304 	orr.w	r3, r3, #4
 8004b28:	6713      	str	r3, [r2, #112]	; 0x70
 8004b2a:	4b5e      	ldr	r3, [pc, #376]	; (8004ca4 <HAL_RCC_OscConfig+0x4ac>)
 8004b2c:	6f1b      	ldr	r3, [r3, #112]	; 0x70
 8004b2e:	4a5d      	ldr	r2, [pc, #372]	; (8004ca4 <HAL_RCC_OscConfig+0x4ac>)
 8004b30:	f043 0301 	orr.w	r3, r3, #1
 8004b34:	6713      	str	r3, [r2, #112]	; 0x70
 8004b36:	e00b      	b.n	8004b50 <HAL_RCC_OscConfig+0x358>
 8004b38:	4b5a      	ldr	r3, [pc, #360]	; (8004ca4 <HAL_RCC_OscConfig+0x4ac>)
 8004b3a:	6f1b      	ldr	r3, [r3, #112]	; 0x70
 8004b3c:	4a59      	ldr	r2, [pc, #356]	; (8004ca4 <HAL_RCC_OscConfig+0x4ac>)
 8004b3e:	f023 0301 	bic.w	r3, r3, #1
 8004b42:	6713      	str	r3, [r2, #112]	; 0x70
 8004b44:	4b57      	ldr	r3, [pc, #348]	; (8004ca4 <HAL_RCC_OscConfig+0x4ac>)
 8004b46:	6f1b      	ldr	r3, [r3, #112]	; 0x70
 8004b48:	4a56      	ldr	r2, [pc, #344]	; (8004ca4 <HAL_RCC_OscConfig+0x4ac>)
 8004b4a:	f023 0304 	bic.w	r3, r3, #4
 8004b4e:	6713      	str	r3, [r2, #112]	; 0x70
    /* Check the LSE State */
    if((RCC_OscInitStruct->LSEState) != RCC_LSE_OFF)
 8004b50:	687b      	ldr	r3, [r7, #4]
 8004b52:	689b      	ldr	r3, [r3, #8]
 8004b54:	2b00      	cmp	r3, #0
 8004b56:	d015      	beq.n	8004b84 <HAL_RCC_OscConfig+0x38c>
    {
      /* Get Start Tick*/
      tickstart = HAL_GetTick();
 8004b58:	f7fd ff0c 	bl	8002974 <HAL_GetTick>
 8004b5c:	6138      	str	r0, [r7, #16]

      /* Wait till LSE is ready */
      while(__HAL_RCC_GET_FLAG(RCC_FLAG_LSERDY) == RESET)
 8004b5e:	e00a      	b.n	8004b76 <HAL_RCC_OscConfig+0x37e>
      {
        if((HAL_GetTick() - tickstart ) > RCC_LSE_TIMEOUT_VALUE)
 8004b60:	f7fd ff08 	bl	8002974 <HAL_GetTick>
 8004b64:	4602      	mov	r2, r0
 8004b66:	693b      	ldr	r3, [r7, #16]
 8004b68:	1ad3      	subs	r3, r2, r3
 8004b6a:	f241 3288 	movw	r2, #5000	; 0x1388
 8004b6e:	4293      	cmp	r3, r2
 8004b70:	d901      	bls.n	8004b76 <HAL_RCC_OscConfig+0x37e>
        {
          return HAL_TIMEOUT;
 8004b72:	2303      	movs	r3, #3
 8004b74:	e0d7      	b.n	8004d26 <HAL_RCC_OscConfig+0x52e>
      while(__HAL_RCC_GET_FLAG(RCC_FLAG_LSERDY) == RESET)
 8004b76:	4b4b      	ldr	r3, [pc, #300]	; (8004ca4 <HAL_RCC_OscConfig+0x4ac>)
 8004b78:	6f1b      	ldr	r3, [r3, #112]	; 0x70
 8004b7a:	f003 0302 	and.w	r3, r3, #2
 8004b7e:	2b00      	cmp	r3, #0
 8004b80:	d0ee      	beq.n	8004b60 <HAL_RCC_OscConfig+0x368>
 8004b82:	e014      	b.n	8004bae <HAL_RCC_OscConfig+0x3b6>
      }
    }
    else
    {
      /* Get Start Tick*/
      tickstart = HAL_GetTick();
 8004b84:	f7fd fef6 	bl	8002974 <HAL_GetTick>
 8004b88:	6138      	str	r0, [r7, #16]

      /* Wait till LSE is ready */
      while(__HAL_RCC_GET_FLAG(RCC_FLAG_LSERDY) != RESET)
 8004b8a:	e00a      	b.n	8004ba2 <HAL_RCC_OscConfig+0x3aa>
      {
        if((HAL_GetTick() - tickstart ) > RCC_LSE_TIMEOUT_VALUE)
 8004b8c:	f7fd fef2 	bl	8002974 <HAL_GetTick>
 8004b90:	4602      	mov	r2, r0
 8004b92:	693b      	ldr	r3, [r7, #16]
 8004b94:	1ad3      	subs	r3, r2, r3
 8004b96:	f241 3288 	movw	r2, #5000	; 0x1388
 8004b9a:	4293      	cmp	r3, r2
 8004b9c:	d901      	bls.n	8004ba2 <HAL_RCC_OscConfig+0x3aa>
        {
          return HAL_TIMEOUT;
 8004b9e:	2303      	movs	r3, #3
 8004ba0:	e0c1      	b.n	8004d26 <HAL_RCC_OscConfig+0x52e>
      while(__HAL_RCC_GET_FLAG(RCC_FLAG_LSERDY) != RESET)
 8004ba2:	4b40      	ldr	r3, [pc, #256]	; (8004ca4 <HAL_RCC_OscConfig+0x4ac>)
 8004ba4:	6f1b      	ldr	r3, [r3, #112]	; 0x70
 8004ba6:	f003 0302 	and.w	r3, r3, #2
 8004baa:	2b00      	cmp	r3, #0
 8004bac:	d1ee      	bne.n	8004b8c <HAL_RCC_OscConfig+0x394>
        }
      }
    }

    /* Restore clock configuration if changed */
    if(pwrclkchanged == SET)
 8004bae:	7dfb      	ldrb	r3, [r7, #23]
 8004bb0:	2b01      	cmp	r3, #1
 8004bb2:	d105      	bne.n	8004bc0 <HAL_RCC_OscConfig+0x3c8>
    {
      __HAL_RCC_PWR_CLK_DISABLE();
 8004bb4:	4b3b      	ldr	r3, [pc, #236]	; (8004ca4 <HAL_RCC_OscConfig+0x4ac>)
 8004bb6:	6c1b      	ldr	r3, [r3, #64]	; 0x40
 8004bb8:	4a3a      	ldr	r2, [pc, #232]	; (8004ca4 <HAL_RCC_OscConfig+0x4ac>)
 8004bba:	f023 5380 	bic.w	r3, r3, #268435456	; 0x10000000
 8004bbe:	6413      	str	r3, [r2, #64]	; 0x40
    }
  }
  /*-------------------------------- PLL Configuration -----------------------*/
  /* Check the parameters */
  assert_param(IS_RCC_PLL(RCC_OscInitStruct->PLL.PLLState));
  if ((RCC_OscInitStruct->PLL.PLLState) != RCC_PLL_NONE)
 8004bc0:	687b      	ldr	r3, [r7, #4]
 8004bc2:	699b      	ldr	r3, [r3, #24]
 8004bc4:	2b00      	cmp	r3, #0
 8004bc6:	f000 80ad 	beq.w	8004d24 <HAL_RCC_OscConfig+0x52c>
  {
    /* Check if the PLL is used as system clock or not */
    if(__HAL_RCC_GET_SYSCLK_SOURCE() != RCC_CFGR_SWS_PLL)
 8004bca:	4b36      	ldr	r3, [pc, #216]	; (8004ca4 <HAL_RCC_OscConfig+0x4ac>)
 8004bcc:	689b      	ldr	r3, [r3, #8]
 8004bce:	f003 030c 	and.w	r3, r3, #12
 8004bd2:	2b08      	cmp	r3, #8
 8004bd4:	d060      	beq.n	8004c98 <HAL_RCC_OscConfig+0x4a0>
    {
      if((RCC_OscInitStruct->PLL.PLLState) == RCC_PLL_ON)
 8004bd6:	687b      	ldr	r3, [r7, #4]
 8004bd8:	699b      	ldr	r3, [r3, #24]
 8004bda:	2b02      	cmp	r3, #2
 8004bdc:	d145      	bne.n	8004c6a <HAL_RCC_OscConfig+0x472>
        assert_param(IS_RCC_PLLP_VALUE(RCC_OscInitStruct->PLL.PLLP));
        assert_param(IS_RCC_PLLQ_VALUE(RCC_OscInitStruct->PLL.PLLQ));
        assert_param(IS_RCC_PLLR_VALUE(RCC_OscInitStruct->PLL.PLLR));

        /* Disable the main PLL. */
        __HAL_RCC_PLL_DISABLE();
 8004bde:	4b33      	ldr	r3, [pc, #204]	; (8004cac <HAL_RCC_OscConfig+0x4b4>)
 8004be0:	2200      	movs	r2, #0
 8004be2:	601a      	str	r2, [r3, #0]

        /* Get Start Tick*/
        tickstart = HAL_GetTick();
 8004be4:	f7fd fec6 	bl	8002974 <HAL_GetTick>
 8004be8:	6138      	str	r0, [r7, #16]

        /* Wait till PLL is ready */
        while(__HAL_RCC_GET_FLAG(RCC_FLAG_PLLRDY) != RESET)
 8004bea:	e008      	b.n	8004bfe <HAL_RCC_OscConfig+0x406>
        {
          if((HAL_GetTick() - tickstart ) > PLL_TIMEOUT_VALUE)
 8004bec:	f7fd fec2 	bl	8002974 <HAL_GetTick>
 8004bf0:	4602      	mov	r2, r0
 8004bf2:	693b      	ldr	r3, [r7, #16]
 8004bf4:	1ad3      	subs	r3, r2, r3
 8004bf6:	2b02      	cmp	r3, #2
 8004bf8:	d901      	bls.n	8004bfe <HAL_RCC_OscConfig+0x406>
          {
            return HAL_TIMEOUT;
 8004bfa:	2303      	movs	r3, #3
 8004bfc:	e093      	b.n	8004d26 <HAL_RCC_OscConfig+0x52e>
        while(__HAL_RCC_GET_FLAG(RCC_FLAG_PLLRDY) != RESET)
 8004bfe:	4b29      	ldr	r3, [pc, #164]	; (8004ca4 <HAL_RCC_OscConfig+0x4ac>)
 8004c00:	681b      	ldr	r3, [r3, #0]
 8004c02:	f003 7300 	and.w	r3, r3, #33554432	; 0x2000000
 8004c06:	2b00      	cmp	r3, #0
 8004c08:	d1f0      	bne.n	8004bec <HAL_RCC_OscConfig+0x3f4>
          }
        }

        /* Configure the main PLL clock source, multiplication and division factors. */
        WRITE_REG(RCC->PLLCFGR, (RCC_OscInitStruct->PLL.PLLSource                                            | \
 8004c0a:	687b      	ldr	r3, [r7, #4]
 8004c0c:	69da      	ldr	r2, [r3, #28]
 8004c0e:	687b      	ldr	r3, [r7, #4]
 8004c10:	6a1b      	ldr	r3, [r3, #32]
 8004c12:	431a      	orrs	r2, r3
 8004c14:	687b      	ldr	r3, [r7, #4]
 8004c16:	6a5b      	ldr	r3, [r3, #36]	; 0x24
 8004c18:	019b      	lsls	r3, r3, #6
 8004c1a:	431a      	orrs	r2, r3
 8004c1c:	687b      	ldr	r3, [r7, #4]
 8004c1e:	6a9b      	ldr	r3, [r3, #40]	; 0x28
 8004c20:	085b      	lsrs	r3, r3, #1
 8004c22:	3b01      	subs	r3, #1
 8004c24:	041b      	lsls	r3, r3, #16
 8004c26:	431a      	orrs	r2, r3
 8004c28:	687b      	ldr	r3, [r7, #4]
 8004c2a:	6adb      	ldr	r3, [r3, #44]	; 0x2c
 8004c2c:	061b      	lsls	r3, r3, #24
 8004c2e:	431a      	orrs	r2, r3
 8004c30:	687b      	ldr	r3, [r7, #4]
 8004c32:	6b1b      	ldr	r3, [r3, #48]	; 0x30
 8004c34:	071b      	lsls	r3, r3, #28
 8004c36:	491b      	ldr	r1, [pc, #108]	; (8004ca4 <HAL_RCC_OscConfig+0x4ac>)
 8004c38:	4313      	orrs	r3, r2
 8004c3a:	604b      	str	r3, [r1, #4]
                                 (RCC_OscInitStruct->PLL.PLLN << RCC_PLLCFGR_PLLN_Pos)                       | \
                                 (((RCC_OscInitStruct->PLL.PLLP >> 1U) - 1U) << RCC_PLLCFGR_PLLP_Pos)        | \
                                 (RCC_OscInitStruct->PLL.PLLQ << RCC_PLLCFGR_PLLQ_Pos)                       | \
                                 (RCC_OscInitStruct->PLL.PLLR << RCC_PLLCFGR_PLLR_Pos)));
        /* Enable the main PLL. */
        __HAL_RCC_PLL_ENABLE();
 8004c3c:	4b1b      	ldr	r3, [pc, #108]	; (8004cac <HAL_RCC_OscConfig+0x4b4>)
 8004c3e:	2201      	movs	r2, #1
 8004c40:	601a      	str	r2, [r3, #0]

        /* Get Start Tick*/
        tickstart = HAL_GetTick();
 8004c42:	f7fd fe97 	bl	8002974 <HAL_GetTick>
 8004c46:	6138      	str	r0, [r7, #16]

        /* Wait till PLL is ready */
        while(__HAL_RCC_GET_FLAG(RCC_FLAG_PLLRDY) == RESET)
 8004c48:	e008      	b.n	8004c5c <HAL_RCC_OscConfig+0x464>
        {
          if((HAL_GetTick() - tickstart ) > PLL_TIMEOUT_VALUE)
 8004c4a:	f7fd fe93 	bl	8002974 <HAL_GetTick>
 8004c4e:	4602      	mov	r2, r0
 8004c50:	693b      	ldr	r3, [r7, #16]
 8004c52:	1ad3      	subs	r3, r2, r3
 8004c54:	2b02      	cmp	r3, #2
 8004c56:	d901      	bls.n	8004c5c <HAL_RCC_OscConfig+0x464>
          {
            return HAL_TIMEOUT;
 8004c58:	2303      	movs	r3, #3
 8004c5a:	e064      	b.n	8004d26 <HAL_RCC_OscConfig+0x52e>
        while(__HAL_RCC_GET_FLAG(RCC_FLAG_PLLRDY) == RESET)
 8004c5c:	4b11      	ldr	r3, [pc, #68]	; (8004ca4 <HAL_RCC_OscConfig+0x4ac>)
 8004c5e:	681b      	ldr	r3, [r3, #0]
 8004c60:	f003 7300 	and.w	r3, r3, #33554432	; 0x2000000
 8004c64:	2b00      	cmp	r3, #0
 8004c66:	d0f0      	beq.n	8004c4a <HAL_RCC_OscConfig+0x452>
 8004c68:	e05c      	b.n	8004d24 <HAL_RCC_OscConfig+0x52c>
        }
      }
      else
      {
        /* Disable the main PLL. */
        __HAL_RCC_PLL_DISABLE();
 8004c6a:	4b10      	ldr	r3, [pc, #64]	; (8004cac <HAL_RCC_OscConfig+0x4b4>)
 8004c6c:	2200      	movs	r2, #0
 8004c6e:	601a      	str	r2, [r3, #0]

        /* Get Start Tick*/
        tickstart = HAL_GetTick();
 8004c70:	f7fd fe80 	bl	8002974 <HAL_GetTick>
 8004c74:	6138      	str	r0, [r7, #16]

        /* Wait till PLL is ready */
        while(__HAL_RCC_GET_FLAG(RCC_FLAG_PLLRDY) != RESET)
 8004c76:	e008      	b.n	8004c8a <HAL_RCC_OscConfig+0x492>
        {
          if((HAL_GetTick() - tickstart ) > PLL_TIMEOUT_VALUE)
 8004c78:	f7fd fe7c 	bl	8002974 <HAL_GetTick>
 8004c7c:	4602      	mov	r2, r0
 8004c7e:	693b      	ldr	r3, [r7, #16]
 8004c80:	1ad3      	subs	r3, r2, r3
 8004c82:	2b02      	cmp	r3, #2
 8004c84:	d901      	bls.n	8004c8a <HAL_RCC_OscConfig+0x492>
          {
            return HAL_TIMEOUT;
 8004c86:	2303      	movs	r3, #3
 8004c88:	e04d      	b.n	8004d26 <HAL_RCC_OscConfig+0x52e>
        while(__HAL_RCC_GET_FLAG(RCC_FLAG_PLLRDY) != RESET)
 8004c8a:	4b06      	ldr	r3, [pc, #24]	; (8004ca4 <HAL_RCC_OscConfig+0x4ac>)
 8004c8c:	681b      	ldr	r3, [r3, #0]
 8004c8e:	f003 7300 	and.w	r3, r3, #33554432	; 0x2000000
 8004c92:	2b00      	cmp	r3, #0
 8004c94:	d1f0      	bne.n	8004c78 <HAL_RCC_OscConfig+0x480>
 8004c96:	e045      	b.n	8004d24 <HAL_RCC_OscConfig+0x52c>
      }
    }
    else
    {
      /* Check if there is a request to disable the PLL used as System clock source */
      if((RCC_OscInitStruct->PLL.PLLState) == RCC_PLL_OFF)
 8004c98:	687b      	ldr	r3, [r7, #4]
 8004c9a:	699b      	ldr	r3, [r3, #24]
 8004c9c:	2b01      	cmp	r3, #1
 8004c9e:	d107      	bne.n	8004cb0 <HAL_RCC_OscConfig+0x4b8>
      {
        return HAL_ERROR;
 8004ca0:	2301      	movs	r3, #1
 8004ca2:	e040      	b.n	8004d26 <HAL_RCC_OscConfig+0x52e>
 8004ca4:	40023800 	.word	0x40023800
 8004ca8:	40007000 	.word	0x40007000
 8004cac:	42470060 	.word	0x42470060
      }
      else
      {
        /* Do not return HAL_ERROR if request repeats the current configuration */
        pll_config = RCC->PLLCFGR;
 8004cb0:	4b1f      	ldr	r3, [pc, #124]	; (8004d30 <HAL_RCC_OscConfig+0x538>)
 8004cb2:	685b      	ldr	r3, [r3, #4]
 8004cb4:	60fb      	str	r3, [r7, #12]
#if defined (RCC_PLLCFGR_PLLR)
        if (((RCC_OscInitStruct->PLL.PLLState) == RCC_PLL_OFF) ||
 8004cb6:	687b      	ldr	r3, [r7, #4]
 8004cb8:	699b      	ldr	r3, [r3, #24]
 8004cba:	2b01      	cmp	r3, #1
 8004cbc:	d030      	beq.n	8004d20 <HAL_RCC_OscConfig+0x528>
            (READ_BIT(pll_config, RCC_PLLCFGR_PLLSRC) != RCC_OscInitStruct->PLL.PLLSource) ||
 8004cbe:	68fb      	ldr	r3, [r7, #12]
 8004cc0:	f403 0280 	and.w	r2, r3, #4194304	; 0x400000
 8004cc4:	687b      	ldr	r3, [r7, #4]
 8004cc6:	69db      	ldr	r3, [r3, #28]
        if (((RCC_OscInitStruct->PLL.PLLState) == RCC_PLL_OFF) ||
 8004cc8:	429a      	cmp	r2, r3
 8004cca:	d129      	bne.n	8004d20 <HAL_RCC_OscConfig+0x528>
            (READ_BIT(pll_config, RCC_PLLCFGR_PLLM) != (RCC_OscInitStruct->PLL.PLLM) << RCC_PLLCFGR_PLLM_Pos) ||
 8004ccc:	68fb      	ldr	r3, [r7, #12]
 8004cce:	f003 023f 	and.w	r2, r3, #63	; 0x3f
 8004cd2:	687b      	ldr	r3, [r7, #4]
 8004cd4:	6a1b      	ldr	r3, [r3, #32]
            (READ_BIT(pll_config, RCC_PLLCFGR_PLLSRC) != RCC_OscInitStruct->PLL.PLLSource) ||
 8004cd6:	429a      	cmp	r2, r3
 8004cd8:	d122      	bne.n	8004d20 <HAL_RCC_OscConfig+0x528>
            (READ_BIT(pll_config, RCC_PLLCFGR_PLLN) != (RCC_OscInitStruct->PLL.PLLN) << RCC_PLLCFGR_PLLN_Pos) ||
 8004cda:	68fa      	ldr	r2, [r7, #12]
 8004cdc:	f647 73c0 	movw	r3, #32704	; 0x7fc0
 8004ce0:	4013      	ands	r3, r2
 8004ce2:	687a      	ldr	r2, [r7, #4]
 8004ce4:	6a52      	ldr	r2, [r2, #36]	; 0x24
 8004ce6:	0192      	lsls	r2, r2, #6
            (READ_BIT(pll_config, RCC_PLLCFGR_PLLM) != (RCC_OscInitStruct->PLL.PLLM) << RCC_PLLCFGR_PLLM_Pos) ||
 8004ce8:	4293      	cmp	r3, r2
 8004cea:	d119      	bne.n	8004d20 <HAL_RCC_OscConfig+0x528>
            (READ_BIT(pll_config, RCC_PLLCFGR_PLLP) != (((RCC_OscInitStruct->PLL.PLLP >> 1U) - 1U)) << RCC_PLLCFGR_PLLP_Pos) ||
 8004cec:	68fb      	ldr	r3, [r7, #12]
 8004cee:	f403 3240 	and.w	r2, r3, #196608	; 0x30000
 8004cf2:	687b      	ldr	r3, [r7, #4]
 8004cf4:	6a9b      	ldr	r3, [r3, #40]	; 0x28
 8004cf6:	085b      	lsrs	r3, r3, #1
 8004cf8:	3b01      	subs	r3, #1
 8004cfa:	041b      	lsls	r3, r3, #16
            (READ_BIT(pll_config, RCC_PLLCFGR_PLLN) != (RCC_OscInitStruct->PLL.PLLN) << RCC_PLLCFGR_PLLN_Pos) ||
 8004cfc:	429a      	cmp	r2, r3
 8004cfe:	d10f      	bne.n	8004d20 <HAL_RCC_OscConfig+0x528>
            (READ_BIT(pll_config, RCC_PLLCFGR_PLLQ) != (RCC_OscInitStruct->PLL.PLLQ << RCC_PLLCFGR_PLLQ_Pos)) ||
 8004d00:	68fb      	ldr	r3, [r7, #12]
 8004d02:	f003 6270 	and.w	r2, r3, #251658240	; 0xf000000
 8004d06:	687b      	ldr	r3, [r7, #4]
 8004d08:	6adb      	ldr	r3, [r3, #44]	; 0x2c
 8004d0a:	061b      	lsls	r3, r3, #24
            (READ_BIT(pll_config, RCC_PLLCFGR_PLLP) != (((RCC_OscInitStruct->PLL.PLLP >> 1U) - 1U)) << RCC_PLLCFGR_PLLP_Pos) ||
 8004d0c:	429a      	cmp	r2, r3
 8004d0e:	d107      	bne.n	8004d20 <HAL_RCC_OscConfig+0x528>
            (READ_BIT(pll_config, RCC_PLLCFGR_PLLR) != (RCC_OscInitStruct->PLL.PLLR << RCC_PLLCFGR_PLLR_Pos)))
 8004d10:	68fb      	ldr	r3, [r7, #12]
 8004d12:	f003 42e0 	and.w	r2, r3, #1879048192	; 0x70000000
 8004d16:	687b      	ldr	r3, [r7, #4]
 8004d18:	6b1b      	ldr	r3, [r3, #48]	; 0x30
 8004d1a:	071b      	lsls	r3, r3, #28
            (READ_BIT(pll_config, RCC_PLLCFGR_PLLQ) != (RCC_OscInitStruct->PLL.PLLQ << RCC_PLLCFGR_PLLQ_Pos)) ||
 8004d1c:	429a      	cmp	r2, r3
 8004d1e:	d001      	beq.n	8004d24 <HAL_RCC_OscConfig+0x52c>
            (READ_BIT(pll_config, RCC_PLLCFGR_PLLN) != (RCC_OscInitStruct->PLL.PLLN) << RCC_PLLCFGR_PLLN_Pos) ||
            (READ_BIT(pll_config, RCC_PLLCFGR_PLLP) != (((RCC_OscInitStruct->PLL.PLLP >> 1U) - 1U)) << RCC_PLLCFGR_PLLP_Pos) ||
            (READ_BIT(pll_config, RCC_PLLCFGR_PLLQ) != (RCC_OscInitStruct->PLL.PLLQ << RCC_PLLCFGR_PLLQ_Pos)))
#endif
        {
          return HAL_ERROR;
 8004d20:	2301      	movs	r3, #1
 8004d22:	e000      	b.n	8004d26 <HAL_RCC_OscConfig+0x52e>
        }
      }
    }
  }
  return HAL_OK;
 8004d24:	2300      	movs	r3, #0
}
 8004d26:	4618      	mov	r0, r3
 8004d28:	3718      	adds	r7, #24
 8004d2a:	46bd      	mov	sp, r7
 8004d2c:	bd80      	pop	{r7, pc}
 8004d2e:	bf00      	nop
 8004d30:	40023800 	.word	0x40023800

08004d34 <HAL_SAI_InitProtocol>:
  *                   the configuration information for SAI module.
  * @param  nbslot Number of slot.
  * @retval HAL status
  */
HAL_StatusTypeDef HAL_SAI_InitProtocol(SAI_HandleTypeDef *hsai, uint32_t protocol, uint32_t datasize, uint32_t nbslot)
{
 8004d34:	b580      	push	{r7, lr}
 8004d36:	b086      	sub	sp, #24
 8004d38:	af00      	add	r7, sp, #0
 8004d3a:	60f8      	str	r0, [r7, #12]
 8004d3c:	60b9      	str	r1, [r7, #8]
 8004d3e:	607a      	str	r2, [r7, #4]
 8004d40:	603b      	str	r3, [r7, #0]
  HAL_StatusTypeDef status = HAL_OK;
 8004d42:	2300      	movs	r3, #0
 8004d44:	75fb      	strb	r3, [r7, #23]

  /* Check the parameters */
  assert_param(IS_SAI_SUPPORTED_PROTOCOL(protocol));
  assert_param(IS_SAI_PROTOCOL_DATASIZE(datasize));

  switch (protocol)
 8004d46:	68bb      	ldr	r3, [r7, #8]
 8004d48:	2b02      	cmp	r3, #2
 8004d4a:	d904      	bls.n	8004d56 <HAL_SAI_InitProtocol+0x22>
 8004d4c:	68bb      	ldr	r3, [r7, #8]
 8004d4e:	3b03      	subs	r3, #3
 8004d50:	2b01      	cmp	r3, #1
 8004d52:	d812      	bhi.n	8004d7a <HAL_SAI_InitProtocol+0x46>
 8004d54:	e008      	b.n	8004d68 <HAL_SAI_InitProtocol+0x34>
  {
    case SAI_I2S_STANDARD :
    case SAI_I2S_MSBJUSTIFIED :
    case SAI_I2S_LSBJUSTIFIED :
      status = SAI_InitI2S(hsai, protocol, datasize, nbslot);
 8004d56:	683b      	ldr	r3, [r7, #0]
 8004d58:	687a      	ldr	r2, [r7, #4]
 8004d5a:	68b9      	ldr	r1, [r7, #8]
 8004d5c:	68f8      	ldr	r0, [r7, #12]
 8004d5e:	f000 f9dd 	bl	800511c <SAI_InitI2S>
 8004d62:	4603      	mov	r3, r0
 8004d64:	75fb      	strb	r3, [r7, #23]
      break;
 8004d66:	e00b      	b.n	8004d80 <HAL_SAI_InitProtocol+0x4c>
    case SAI_PCM_LONG :
    case SAI_PCM_SHORT :
      status = SAI_InitPCM(hsai, protocol, datasize, nbslot);
 8004d68:	683b      	ldr	r3, [r7, #0]
 8004d6a:	687a      	ldr	r2, [r7, #4]
 8004d6c:	68b9      	ldr	r1, [r7, #8]
 8004d6e:	68f8      	ldr	r0, [r7, #12]
 8004d70:	f000 fa82 	bl	8005278 <SAI_InitPCM>
 8004d74:	4603      	mov	r3, r0
 8004d76:	75fb      	strb	r3, [r7, #23]
      break;
 8004d78:	e002      	b.n	8004d80 <HAL_SAI_InitProtocol+0x4c>
    default :
      status = HAL_ERROR;
 8004d7a:	2301      	movs	r3, #1
 8004d7c:	75fb      	strb	r3, [r7, #23]
      break;
 8004d7e:	bf00      	nop
  }

  if (status == HAL_OK)
 8004d80:	7dfb      	ldrb	r3, [r7, #23]
 8004d82:	2b00      	cmp	r3, #0
 8004d84:	d104      	bne.n	8004d90 <HAL_SAI_InitProtocol+0x5c>
  {
    status = HAL_SAI_Init(hsai);
 8004d86:	68f8      	ldr	r0, [r7, #12]
 8004d88:	f000 f808 	bl	8004d9c <HAL_SAI_Init>
 8004d8c:	4603      	mov	r3, r0
 8004d8e:	75fb      	strb	r3, [r7, #23]
  }

  return status;
 8004d90:	7dfb      	ldrb	r3, [r7, #23]
}
 8004d92:	4618      	mov	r0, r3
 8004d94:	3718      	adds	r7, #24
 8004d96:	46bd      	mov	sp, r7
 8004d98:	bd80      	pop	{r7, pc}
	...

08004d9c <HAL_SAI_Init>:
  * @param  hsai pointer to a SAI_HandleTypeDef structure that contains
  *               the configuration information for SAI module.
  * @retval HAL status
  */
HAL_StatusTypeDef HAL_SAI_Init(SAI_HandleTypeDef *hsai)
{
 8004d9c:	b580      	push	{r7, lr}
 8004d9e:	b086      	sub	sp, #24
 8004da0:	af00      	add	r7, sp, #0
 8004da2:	6078      	str	r0, [r7, #4]
  uint32_t tmpregisterGCR = 0U;
 8004da4:	2300      	movs	r3, #0
 8004da6:	60fb      	str	r3, [r7, #12]

  /* This variable used to store the SAI_CK_x (value in Hz) */
  uint32_t freq = 0U;
 8004da8:	2300      	movs	r3, #0
 8004daa:	60bb      	str	r3, [r7, #8]

  /* This variable is used to compute CKSTR bits of SAI CR1 according to
     ClockStrobing and AudioMode fields */
  uint32_t ckstr_bits = 0U;
 8004dac:	2300      	movs	r3, #0
 8004dae:	617b      	str	r3, [r7, #20]
  uint32_t syncen_bits = 0U;
 8004db0:	2300      	movs	r3, #0
 8004db2:	613b      	str	r3, [r7, #16]

  /* Check the SAI handle allocation */
  if (hsai == NULL)
 8004db4:	687b      	ldr	r3, [r7, #4]
 8004db6:	2b00      	cmp	r3, #0
 8004db8:	d101      	bne.n	8004dbe <HAL_SAI_Init+0x22>
  {
    return HAL_ERROR;
 8004dba:	2301      	movs	r3, #1
 8004dbc:	e10c      	b.n	8004fd8 <HAL_SAI_Init+0x23c>
  assert_param(IS_SAI_BLOCK_FIRSTBIT_OFFSET(hsai->SlotInit.FirstBitOffset));
  assert_param(IS_SAI_BLOCK_SLOT_SIZE(hsai->SlotInit.SlotSize));
  assert_param(IS_SAI_BLOCK_SLOT_NUMBER(hsai->SlotInit.SlotNumber));
  assert_param(IS_SAI_SLOT_ACTIVE(hsai->SlotInit.SlotActive));

  if (hsai->State == HAL_SAI_STATE_RESET)
 8004dbe:	687b      	ldr	r3, [r7, #4]
 8004dc0:	f893 3081 	ldrb.w	r3, [r3, #129]	; 0x81
 8004dc4:	b2db      	uxtb	r3, r3
 8004dc6:	2b00      	cmp	r3, #0
 8004dc8:	d106      	bne.n	8004dd8 <HAL_SAI_Init+0x3c>
  {
    /* Allocate lock resource and initialize it */
    hsai->Lock = HAL_UNLOCKED;
 8004dca:	687b      	ldr	r3, [r7, #4]
 8004dcc:	2200      	movs	r2, #0
 8004dce:	f883 2080 	strb.w	r2, [r3, #128]	; 0x80
      hsai->MspInitCallback = HAL_SAI_MspInit;
    }
    hsai->MspInitCallback(hsai);
#else
    /* Init the low level hardware : GPIO, CLOCK, NVIC and DMA */
    HAL_SAI_MspInit(hsai);
 8004dd2:	6878      	ldr	r0, [r7, #4]
 8004dd4:	f7fd fbe6 	bl	80025a4 <HAL_SAI_MspInit>
#endif /* USE_HAL_SAI_REGISTER_CALLBACKS */
  }

  hsai->State = HAL_SAI_STATE_BUSY;
 8004dd8:	687b      	ldr	r3, [r7, #4]
 8004dda:	2202      	movs	r2, #2
 8004ddc:	f883 2081 	strb.w	r2, [r3, #129]	; 0x81

  /* Disable the selected SAI peripheral */
  SAI_Disable(hsai);
 8004de0:	6878      	ldr	r0, [r7, #4]
 8004de2:	f000 faff 	bl	80053e4 <SAI_Disable>

  /* SAI Block Synchro Configuration -----------------------------------------*/
  SAI_BlockSynchroConfig(hsai);
 8004de6:	6878      	ldr	r0, [r7, #4]
 8004de8:	f000 fba6 	bl	8005538 <SAI_BlockSynchroConfig>

  /* Configure Master Clock using the following formula :
     MCLK_x = SAI_CK_x / (MCKDIV[3:0] * 2) with MCLK_x = 256 * FS
     FS = SAI_CK_x / (MCKDIV[3:0] * 2) * 256
     MCKDIV[3:0] = SAI_CK_x / FS * 512 */
  if (hsai->Init.AudioFrequency != SAI_AUDIO_FREQUENCY_MCKDIV)
 8004dec:	687b      	ldr	r3, [r7, #4]
 8004dee:	6a1b      	ldr	r3, [r3, #32]
 8004df0:	2b00      	cmp	r3, #0
 8004df2:	d030      	beq.n	8004e56 <HAL_SAI_Init+0xba>
  {
    /* Get SAI clock source based on Source clock selection from RCC */
    freq = SAI_GetInputClock(hsai);
 8004df4:	6878      	ldr	r0, [r7, #4]
 8004df6:	f000 fbe3 	bl	80055c0 <SAI_GetInputClock>
 8004dfa:	60b8      	str	r0, [r7, #8]

    /* (saiclocksource x 10) to keep Significant digits */
    tmpregisterGCR = (((freq * 10U) / ((hsai->Init.AudioFrequency) * 512U)));
 8004dfc:	68ba      	ldr	r2, [r7, #8]
 8004dfe:	4613      	mov	r3, r2
 8004e00:	009b      	lsls	r3, r3, #2
 8004e02:	4413      	add	r3, r2
 8004e04:	005b      	lsls	r3, r3, #1
 8004e06:	461a      	mov	r2, r3
 8004e08:	687b      	ldr	r3, [r7, #4]
 8004e0a:	6a1b      	ldr	r3, [r3, #32]
 8004e0c:	025b      	lsls	r3, r3, #9
 8004e0e:	fbb2 f3f3 	udiv	r3, r2, r3
 8004e12:	60fb      	str	r3, [r7, #12]

    hsai->Init.Mckdiv = tmpregisterGCR / 10U;
 8004e14:	68fb      	ldr	r3, [r7, #12]
 8004e16:	4a72      	ldr	r2, [pc, #456]	; (8004fe0 <HAL_SAI_Init+0x244>)
 8004e18:	fba2 2303 	umull	r2, r3, r2, r3
 8004e1c:	08da      	lsrs	r2, r3, #3
 8004e1e:	687b      	ldr	r3, [r7, #4]
 8004e20:	625a      	str	r2, [r3, #36]	; 0x24

    /* Round result to the nearest integer */
    if ((tmpregisterGCR % 10U) > 8U)
 8004e22:	68f9      	ldr	r1, [r7, #12]
 8004e24:	4b6e      	ldr	r3, [pc, #440]	; (8004fe0 <HAL_SAI_Init+0x244>)
 8004e26:	fba3 2301 	umull	r2, r3, r3, r1
 8004e2a:	08da      	lsrs	r2, r3, #3
 8004e2c:	4613      	mov	r3, r2
 8004e2e:	009b      	lsls	r3, r3, #2
 8004e30:	4413      	add	r3, r2
 8004e32:	005b      	lsls	r3, r3, #1
 8004e34:	1aca      	subs	r2, r1, r3
 8004e36:	2a08      	cmp	r2, #8
 8004e38:	d904      	bls.n	8004e44 <HAL_SAI_Init+0xa8>
    {
      hsai->Init.Mckdiv += 1U;
 8004e3a:	687b      	ldr	r3, [r7, #4]
 8004e3c:	6a5b      	ldr	r3, [r3, #36]	; 0x24
 8004e3e:	1c5a      	adds	r2, r3, #1
 8004e40:	687b      	ldr	r3, [r7, #4]
 8004e42:	625a      	str	r2, [r3, #36]	; 0x24
    }

    /* For SPDIF protocol, SAI shall provide a bit clock twice faster the symbol-rate */
    if (hsai->Init.Protocol == SAI_SPDIF_PROTOCOL)
 8004e44:	687b      	ldr	r3, [r7, #4]
 8004e46:	6b5b      	ldr	r3, [r3, #52]	; 0x34
 8004e48:	2b04      	cmp	r3, #4
 8004e4a:	d104      	bne.n	8004e56 <HAL_SAI_Init+0xba>
    {
      hsai->Init.Mckdiv = hsai->Init.Mckdiv >> 1;
 8004e4c:	687b      	ldr	r3, [r7, #4]
 8004e4e:	6a5b      	ldr	r3, [r3, #36]	; 0x24
 8004e50:	085a      	lsrs	r2, r3, #1
 8004e52:	687b      	ldr	r3, [r7, #4]
 8004e54:	625a      	str	r2, [r3, #36]	; 0x24

  /* Check the SAI Block master clock divider parameter */
  assert_param(IS_SAI_BLOCK_MASTER_DIVIDER(hsai->Init.Mckdiv));

  /* Compute CKSTR bits of SAI CR1 according to ClockStrobing and AudioMode */
  if ((hsai->Init.AudioMode == SAI_MODEMASTER_TX) || (hsai->Init.AudioMode == SAI_MODESLAVE_TX))
 8004e56:	687b      	ldr	r3, [r7, #4]
 8004e58:	685b      	ldr	r3, [r3, #4]
 8004e5a:	2b00      	cmp	r3, #0
 8004e5c:	d003      	beq.n	8004e66 <HAL_SAI_Init+0xca>
 8004e5e:	687b      	ldr	r3, [r7, #4]
 8004e60:	685b      	ldr	r3, [r3, #4]
 8004e62:	2b02      	cmp	r3, #2
 8004e64:	d109      	bne.n	8004e7a <HAL_SAI_Init+0xde>
  {
    ckstr_bits = (hsai->Init.ClockStrobing == SAI_CLOCKSTROBING_RISINGEDGE) ? 0U : SAI_xCR1_CKSTR;
 8004e66:	687b      	ldr	r3, [r7, #4]
 8004e68:	6c1b      	ldr	r3, [r3, #64]	; 0x40
 8004e6a:	2b01      	cmp	r3, #1
 8004e6c:	d101      	bne.n	8004e72 <HAL_SAI_Init+0xd6>
 8004e6e:	2300      	movs	r3, #0
 8004e70:	e001      	b.n	8004e76 <HAL_SAI_Init+0xda>
 8004e72:	f44f 7300 	mov.w	r3, #512	; 0x200
 8004e76:	617b      	str	r3, [r7, #20]
 8004e78:	e008      	b.n	8004e8c <HAL_SAI_Init+0xf0>
  }
  else
  {
    ckstr_bits = (hsai->Init.ClockStrobing == SAI_CLOCKSTROBING_RISINGEDGE) ? SAI_xCR1_CKSTR : 0U;
 8004e7a:	687b      	ldr	r3, [r7, #4]
 8004e7c:	6c1b      	ldr	r3, [r3, #64]	; 0x40
 8004e7e:	2b01      	cmp	r3, #1
 8004e80:	d102      	bne.n	8004e88 <HAL_SAI_Init+0xec>
 8004e82:	f44f 7300 	mov.w	r3, #512	; 0x200
 8004e86:	e000      	b.n	8004e8a <HAL_SAI_Init+0xee>
 8004e88:	2300      	movs	r3, #0
 8004e8a:	617b      	str	r3, [r7, #20]
  }

  /* SAI Block Configuration -------------------------------------------------*/
  switch (hsai->Init.Synchro)
 8004e8c:	687b      	ldr	r3, [r7, #4]
 8004e8e:	689b      	ldr	r3, [r3, #8]
 8004e90:	2b03      	cmp	r3, #3
 8004e92:	d811      	bhi.n	8004eb8 <HAL_SAI_Init+0x11c>
 8004e94:	2b02      	cmp	r3, #2
 8004e96:	d20b      	bcs.n	8004eb0 <HAL_SAI_Init+0x114>
 8004e98:	2b00      	cmp	r3, #0
 8004e9a:	d002      	beq.n	8004ea2 <HAL_SAI_Init+0x106>
 8004e9c:	2b01      	cmp	r3, #1
 8004e9e:	d003      	beq.n	8004ea8 <HAL_SAI_Init+0x10c>
    {
      syncen_bits = SAI_xCR1_SYNCEN_1;
    }
    break;
    default:
      break;
 8004ea0:	e00a      	b.n	8004eb8 <HAL_SAI_Init+0x11c>
      syncen_bits = 0U;
 8004ea2:	2300      	movs	r3, #0
 8004ea4:	613b      	str	r3, [r7, #16]
    break;
 8004ea6:	e008      	b.n	8004eba <HAL_SAI_Init+0x11e>
      syncen_bits = SAI_xCR1_SYNCEN_0;
 8004ea8:	f44f 6380 	mov.w	r3, #1024	; 0x400
 8004eac:	613b      	str	r3, [r7, #16]
    break;
 8004eae:	e004      	b.n	8004eba <HAL_SAI_Init+0x11e>
      syncen_bits = SAI_xCR1_SYNCEN_1;
 8004eb0:	f44f 6300 	mov.w	r3, #2048	; 0x800
 8004eb4:	613b      	str	r3, [r7, #16]
    break;
 8004eb6:	e000      	b.n	8004eba <HAL_SAI_Init+0x11e>
      break;
 8004eb8:	bf00      	nop
  }

  /* SAI CR1 Configuration */
  hsai->Instance->CR1 &= ~(SAI_xCR1_MODE | SAI_xCR1_PRTCFG |  SAI_xCR1_DS |      \
 8004eba:	687b      	ldr	r3, [r7, #4]
 8004ebc:	681b      	ldr	r3, [r3, #0]
 8004ebe:	6819      	ldr	r1, [r3, #0]
 8004ec0:	687b      	ldr	r3, [r7, #4]
 8004ec2:	681a      	ldr	r2, [r3, #0]
 8004ec4:	4b47      	ldr	r3, [pc, #284]	; (8004fe4 <HAL_SAI_Init+0x248>)
 8004ec6:	400b      	ands	r3, r1
 8004ec8:	6013      	str	r3, [r2, #0]
                           SAI_xCR1_LSBFIRST | SAI_xCR1_CKSTR | SAI_xCR1_SYNCEN | \
                           SAI_xCR1_MONO | SAI_xCR1_OUTDRIV  | SAI_xCR1_DMAEN |  \
                           SAI_xCR1_NODIV | SAI_xCR1_MCKDIV);

  hsai->Instance->CR1 |= (hsai->Init.AudioMode | hsai->Init.Protocol |           \
 8004eca:	687b      	ldr	r3, [r7, #4]
 8004ecc:	681b      	ldr	r3, [r3, #0]
 8004ece:	6819      	ldr	r1, [r3, #0]
 8004ed0:	687b      	ldr	r3, [r7, #4]
 8004ed2:	685a      	ldr	r2, [r3, #4]
 8004ed4:	687b      	ldr	r3, [r7, #4]
 8004ed6:	6b5b      	ldr	r3, [r3, #52]	; 0x34
 8004ed8:	431a      	orrs	r2, r3
                          hsai->Init.DataSize | hsai->Init.FirstBit  |           \
 8004eda:	687b      	ldr	r3, [r7, #4]
 8004edc:	6b9b      	ldr	r3, [r3, #56]	; 0x38
  hsai->Instance->CR1 |= (hsai->Init.AudioMode | hsai->Init.Protocol |           \
 8004ede:	431a      	orrs	r2, r3
                          hsai->Init.DataSize | hsai->Init.FirstBit  |           \
 8004ee0:	687b      	ldr	r3, [r7, #4]
 8004ee2:	6bdb      	ldr	r3, [r3, #60]	; 0x3c
 8004ee4:	431a      	orrs	r2, r3
 8004ee6:	697b      	ldr	r3, [r7, #20]
 8004ee8:	431a      	orrs	r2, r3
                          ckstr_bits | syncen_bits |                             \
 8004eea:	693b      	ldr	r3, [r7, #16]
 8004eec:	431a      	orrs	r2, r3
                          hsai->Init.MonoStereoMode | hsai->Init.OutputDrive |   \
 8004eee:	687b      	ldr	r3, [r7, #4]
 8004ef0:	6a9b      	ldr	r3, [r3, #40]	; 0x28
                          ckstr_bits | syncen_bits |                             \
 8004ef2:	431a      	orrs	r2, r3
                          hsai->Init.MonoStereoMode | hsai->Init.OutputDrive |   \
 8004ef4:	687b      	ldr	r3, [r7, #4]
 8004ef6:	691b      	ldr	r3, [r3, #16]
 8004ef8:	431a      	orrs	r2, r3
                          hsai->Init.NoDivider | (hsai->Init.Mckdiv << 20U));
 8004efa:	687b      	ldr	r3, [r7, #4]
 8004efc:	695b      	ldr	r3, [r3, #20]
                          hsai->Init.MonoStereoMode | hsai->Init.OutputDrive |   \
 8004efe:	431a      	orrs	r2, r3
                          hsai->Init.NoDivider | (hsai->Init.Mckdiv << 20U));
 8004f00:	687b      	ldr	r3, [r7, #4]
 8004f02:	6a5b      	ldr	r3, [r3, #36]	; 0x24
 8004f04:	051b      	lsls	r3, r3, #20
 8004f06:	431a      	orrs	r2, r3
  hsai->Instance->CR1 |= (hsai->Init.AudioMode | hsai->Init.Protocol |           \
 8004f08:	687b      	ldr	r3, [r7, #4]
 8004f0a:	681b      	ldr	r3, [r3, #0]
 8004f0c:	430a      	orrs	r2, r1
 8004f0e:	601a      	str	r2, [r3, #0]

  /* SAI CR2 Configuration */
  hsai->Instance->CR2 &= ~(SAI_xCR2_FTH | SAI_xCR2_FFLUSH | SAI_xCR2_COMP | SAI_xCR2_CPL);
 8004f10:	687b      	ldr	r3, [r7, #4]
 8004f12:	681b      	ldr	r3, [r3, #0]
 8004f14:	685b      	ldr	r3, [r3, #4]
 8004f16:	687a      	ldr	r2, [r7, #4]
 8004f18:	6812      	ldr	r2, [r2, #0]
 8004f1a:	f423 4360 	bic.w	r3, r3, #57344	; 0xe000
 8004f1e:	f023 030f 	bic.w	r3, r3, #15
 8004f22:	6053      	str	r3, [r2, #4]
  hsai->Instance->CR2 |= (hsai->Init.FIFOThreshold | hsai->Init.CompandingMode | hsai->Init.TriState);
 8004f24:	687b      	ldr	r3, [r7, #4]
 8004f26:	681b      	ldr	r3, [r3, #0]
 8004f28:	6859      	ldr	r1, [r3, #4]
 8004f2a:	687b      	ldr	r3, [r7, #4]
 8004f2c:	699a      	ldr	r2, [r3, #24]
 8004f2e:	687b      	ldr	r3, [r7, #4]
 8004f30:	6adb      	ldr	r3, [r3, #44]	; 0x2c
 8004f32:	431a      	orrs	r2, r3
 8004f34:	687b      	ldr	r3, [r7, #4]
 8004f36:	6b1b      	ldr	r3, [r3, #48]	; 0x30
 8004f38:	431a      	orrs	r2, r3
 8004f3a:	687b      	ldr	r3, [r7, #4]
 8004f3c:	681b      	ldr	r3, [r3, #0]
 8004f3e:	430a      	orrs	r2, r1
 8004f40:	605a      	str	r2, [r3, #4]

  /* SAI Frame Configuration -----------------------------------------*/
  hsai->Instance->FRCR &= (~(SAI_xFRCR_FRL | SAI_xFRCR_FSALL | SAI_xFRCR_FSDEF | \
 8004f42:	687b      	ldr	r3, [r7, #4]
 8004f44:	681b      	ldr	r3, [r3, #0]
 8004f46:	6899      	ldr	r1, [r3, #8]
 8004f48:	687b      	ldr	r3, [r7, #4]
 8004f4a:	681a      	ldr	r2, [r3, #0]
 8004f4c:	4b26      	ldr	r3, [pc, #152]	; (8004fe8 <HAL_SAI_Init+0x24c>)
 8004f4e:	400b      	ands	r3, r1
 8004f50:	6093      	str	r3, [r2, #8]
                             SAI_xFRCR_FSPOL | SAI_xFRCR_FSOFF));
  hsai->Instance->FRCR |= ((hsai->FrameInit.FrameLength - 1U) |
 8004f52:	687b      	ldr	r3, [r7, #4]
 8004f54:	681b      	ldr	r3, [r3, #0]
 8004f56:	6899      	ldr	r1, [r3, #8]
 8004f58:	687b      	ldr	r3, [r7, #4]
 8004f5a:	6c5b      	ldr	r3, [r3, #68]	; 0x44
 8004f5c:	1e5a      	subs	r2, r3, #1
                           hsai->FrameInit.FSOffset     |
 8004f5e:	687b      	ldr	r3, [r7, #4]
 8004f60:	6d5b      	ldr	r3, [r3, #84]	; 0x54
  hsai->Instance->FRCR |= ((hsai->FrameInit.FrameLength - 1U) |
 8004f62:	431a      	orrs	r2, r3
                           hsai->FrameInit.FSDefinition |
 8004f64:	687b      	ldr	r3, [r7, #4]
 8004f66:	6cdb      	ldr	r3, [r3, #76]	; 0x4c
                           hsai->FrameInit.FSOffset     |
 8004f68:	431a      	orrs	r2, r3
                           hsai->FrameInit.FSPolarity   |
 8004f6a:	687b      	ldr	r3, [r7, #4]
 8004f6c:	6d1b      	ldr	r3, [r3, #80]	; 0x50
                           hsai->FrameInit.FSDefinition |
 8004f6e:	431a      	orrs	r2, r3
                           ((hsai->FrameInit.ActiveFrameLength - 1U) << 8U));
 8004f70:	687b      	ldr	r3, [r7, #4]
 8004f72:	6c9b      	ldr	r3, [r3, #72]	; 0x48
 8004f74:	3b01      	subs	r3, #1
 8004f76:	021b      	lsls	r3, r3, #8
                           hsai->FrameInit.FSPolarity   |
 8004f78:	431a      	orrs	r2, r3
  hsai->Instance->FRCR |= ((hsai->FrameInit.FrameLength - 1U) |
 8004f7a:	687b      	ldr	r3, [r7, #4]
 8004f7c:	681b      	ldr	r3, [r3, #0]
 8004f7e:	430a      	orrs	r2, r1
 8004f80:	609a      	str	r2, [r3, #8]

  /* SAI Block_x SLOT Configuration ------------------------------------------*/
  /* This register has no meaning in AC 97 and SPDIF audio protocol */
  hsai->Instance->SLOTR &= ~(SAI_xSLOTR_FBOFF | SAI_xSLOTR_SLOTSZ | \
 8004f82:	687b      	ldr	r3, [r7, #4]
 8004f84:	681b      	ldr	r3, [r3, #0]
 8004f86:	68d9      	ldr	r1, [r3, #12]
 8004f88:	687b      	ldr	r3, [r7, #4]
 8004f8a:	681a      	ldr	r2, [r3, #0]
 8004f8c:	f24f 0320 	movw	r3, #61472	; 0xf020
 8004f90:	400b      	ands	r3, r1
 8004f92:	60d3      	str	r3, [r2, #12]
                             SAI_xSLOTR_NBSLOT | SAI_xSLOTR_SLOTEN);

  hsai->Instance->SLOTR |=  hsai->SlotInit.FirstBitOffset |  hsai->SlotInit.SlotSize  | \
 8004f94:	687b      	ldr	r3, [r7, #4]
 8004f96:	681b      	ldr	r3, [r3, #0]
 8004f98:	68d9      	ldr	r1, [r3, #12]
 8004f9a:	687b      	ldr	r3, [r7, #4]
 8004f9c:	6d9a      	ldr	r2, [r3, #88]	; 0x58
 8004f9e:	687b      	ldr	r3, [r7, #4]
 8004fa0:	6ddb      	ldr	r3, [r3, #92]	; 0x5c
 8004fa2:	431a      	orrs	r2, r3
                            (hsai->SlotInit.SlotActive << 16U) | ((hsai->SlotInit.SlotNumber - 1U) <<  8U);
 8004fa4:	687b      	ldr	r3, [r7, #4]
 8004fa6:	6e5b      	ldr	r3, [r3, #100]	; 0x64
 8004fa8:	041b      	lsls	r3, r3, #16
  hsai->Instance->SLOTR |=  hsai->SlotInit.FirstBitOffset |  hsai->SlotInit.SlotSize  | \
 8004faa:	431a      	orrs	r2, r3
                            (hsai->SlotInit.SlotActive << 16U) | ((hsai->SlotInit.SlotNumber - 1U) <<  8U);
 8004fac:	687b      	ldr	r3, [r7, #4]
 8004fae:	6e1b      	ldr	r3, [r3, #96]	; 0x60
 8004fb0:	3b01      	subs	r3, #1
 8004fb2:	021b      	lsls	r3, r3, #8
 8004fb4:	431a      	orrs	r2, r3
  hsai->Instance->SLOTR |=  hsai->SlotInit.FirstBitOffset |  hsai->SlotInit.SlotSize  | \
 8004fb6:	687b      	ldr	r3, [r7, #4]
 8004fb8:	681b      	ldr	r3, [r3, #0]
 8004fba:	430a      	orrs	r2, r1
 8004fbc:	60da      	str	r2, [r3, #12]

  /* Initialize the error code */
  hsai->ErrorCode = HAL_SAI_ERROR_NONE;
 8004fbe:	687b      	ldr	r3, [r7, #4]
 8004fc0:	2200      	movs	r2, #0
 8004fc2:	f8c3 2084 	str.w	r2, [r3, #132]	; 0x84

  /* Initialize the SAI state */
  hsai->State = HAL_SAI_STATE_READY;
 8004fc6:	687b      	ldr	r3, [r7, #4]
 8004fc8:	2201      	movs	r2, #1
 8004fca:	f883 2081 	strb.w	r2, [r3, #129]	; 0x81

  /* Release Lock */
  __HAL_UNLOCK(hsai);
 8004fce:	687b      	ldr	r3, [r7, #4]
 8004fd0:	2200      	movs	r2, #0
 8004fd2:	f883 2080 	strb.w	r2, [r3, #128]	; 0x80

  return HAL_OK;
 8004fd6:	2300      	movs	r3, #0
}
 8004fd8:	4618      	mov	r0, r3
 8004fda:	3718      	adds	r7, #24
 8004fdc:	46bd      	mov	sp, r7
 8004fde:	bd80      	pop	{r7, pc}
 8004fe0:	cccccccd 	.word	0xcccccccd
 8004fe4:	ff05c010 	.word	0xff05c010
 8004fe8:	fff88000 	.word	0xfff88000

08004fec <HAL_SAI_Receive_DMA>:
  * @param  pData Pointer to data buffer
  * @param  Size Amount of data to be received
  * @retval HAL status
  */
HAL_StatusTypeDef HAL_SAI_Receive_DMA(SAI_HandleTypeDef *hsai, uint8_t *pData, uint16_t Size)
{
 8004fec:	b580      	push	{r7, lr}
 8004fee:	b084      	sub	sp, #16
 8004ff0:	af00      	add	r7, sp, #0
 8004ff2:	60f8      	str	r0, [r7, #12]
 8004ff4:	60b9      	str	r1, [r7, #8]
 8004ff6:	4613      	mov	r3, r2
 8004ff8:	80fb      	strh	r3, [r7, #6]
  if ((pData == NULL) || (Size == 0))
 8004ffa:	68bb      	ldr	r3, [r7, #8]
 8004ffc:	2b00      	cmp	r3, #0
 8004ffe:	d002      	beq.n	8005006 <HAL_SAI_Receive_DMA+0x1a>
 8005000:	88fb      	ldrh	r3, [r7, #6]
 8005002:	2b00      	cmp	r3, #0
 8005004:	d101      	bne.n	800500a <HAL_SAI_Receive_DMA+0x1e>
  {
    return  HAL_ERROR;
 8005006:	2301      	movs	r3, #1
 8005008:	e074      	b.n	80050f4 <HAL_SAI_Receive_DMA+0x108>
  }

  if (hsai->State == HAL_SAI_STATE_READY)
 800500a:	68fb      	ldr	r3, [r7, #12]
 800500c:	f893 3081 	ldrb.w	r3, [r3, #129]	; 0x81
 8005010:	b2db      	uxtb	r3, r3
 8005012:	2b01      	cmp	r3, #1
 8005014:	d16d      	bne.n	80050f2 <HAL_SAI_Receive_DMA+0x106>
  {
    /* Process Locked */
    __HAL_LOCK(hsai);
 8005016:	68fb      	ldr	r3, [r7, #12]
 8005018:	f893 3080 	ldrb.w	r3, [r3, #128]	; 0x80
 800501c:	2b01      	cmp	r3, #1
 800501e:	d101      	bne.n	8005024 <HAL_SAI_Receive_DMA+0x38>
 8005020:	2302      	movs	r3, #2
 8005022:	e067      	b.n	80050f4 <HAL_SAI_Receive_DMA+0x108>
 8005024:	68fb      	ldr	r3, [r7, #12]
 8005026:	2201      	movs	r2, #1
 8005028:	f883 2080 	strb.w	r2, [r3, #128]	; 0x80

    hsai->pBuffPtr = pData;
 800502c:	68fb      	ldr	r3, [r7, #12]
 800502e:	68ba      	ldr	r2, [r7, #8]
 8005030:	669a      	str	r2, [r3, #104]	; 0x68
    hsai->XferSize = Size;
 8005032:	68fb      	ldr	r3, [r7, #12]
 8005034:	88fa      	ldrh	r2, [r7, #6]
 8005036:	f8a3 206c 	strh.w	r2, [r3, #108]	; 0x6c
    hsai->XferCount = Size;
 800503a:	68fb      	ldr	r3, [r7, #12]
 800503c:	88fa      	ldrh	r2, [r7, #6]
 800503e:	f8a3 206e 	strh.w	r2, [r3, #110]	; 0x6e
    hsai->ErrorCode = HAL_SAI_ERROR_NONE;
 8005042:	68fb      	ldr	r3, [r7, #12]
 8005044:	2200      	movs	r2, #0
 8005046:	f8c3 2084 	str.w	r2, [r3, #132]	; 0x84
    hsai->State = HAL_SAI_STATE_BUSY_RX;
 800504a:	68fb      	ldr	r3, [r7, #12]
 800504c:	2222      	movs	r2, #34	; 0x22
 800504e:	f883 2081 	strb.w	r2, [r3, #129]	; 0x81

    /* Set the SAI Rx DMA Half transfer complete callback */
    hsai->hdmarx->XferHalfCpltCallback = SAI_DMARxHalfCplt;
 8005052:	68fb      	ldr	r3, [r7, #12]
 8005054:	6f5b      	ldr	r3, [r3, #116]	; 0x74
 8005056:	4a29      	ldr	r2, [pc, #164]	; (80050fc <HAL_SAI_Receive_DMA+0x110>)
 8005058:	641a      	str	r2, [r3, #64]	; 0x40

    /* Set the SAI Rx DMA transfer complete callback */
    hsai->hdmarx->XferCpltCallback = SAI_DMARxCplt;
 800505a:	68fb      	ldr	r3, [r7, #12]
 800505c:	6f5b      	ldr	r3, [r3, #116]	; 0x74
 800505e:	4a28      	ldr	r2, [pc, #160]	; (8005100 <HAL_SAI_Receive_DMA+0x114>)
 8005060:	63da      	str	r2, [r3, #60]	; 0x3c

    /* Set the DMA error callback */
    hsai->hdmarx->XferErrorCallback = SAI_DMAError;
 8005062:	68fb      	ldr	r3, [r7, #12]
 8005064:	6f5b      	ldr	r3, [r3, #116]	; 0x74
 8005066:	4a27      	ldr	r2, [pc, #156]	; (8005104 <HAL_SAI_Receive_DMA+0x118>)
 8005068:	64da      	str	r2, [r3, #76]	; 0x4c

    /* Set the DMA Rx abort callback */
    hsai->hdmarx->XferAbortCallback = NULL;
 800506a:	68fb      	ldr	r3, [r7, #12]
 800506c:	6f5b      	ldr	r3, [r3, #116]	; 0x74
 800506e:	2200      	movs	r2, #0
 8005070:	651a      	str	r2, [r3, #80]	; 0x50

    /* Enable the Rx DMA Stream */
    if (HAL_DMA_Start_IT(hsai->hdmarx, (uint32_t)&hsai->Instance->DR, (uint32_t)hsai->pBuffPtr, hsai->XferSize) != HAL_OK)
 8005072:	68fb      	ldr	r3, [r7, #12]
 8005074:	6f58      	ldr	r0, [r3, #116]	; 0x74
 8005076:	68fb      	ldr	r3, [r7, #12]
 8005078:	681b      	ldr	r3, [r3, #0]
 800507a:	331c      	adds	r3, #28
 800507c:	4619      	mov	r1, r3
 800507e:	68fb      	ldr	r3, [r7, #12]
 8005080:	6e9b      	ldr	r3, [r3, #104]	; 0x68
 8005082:	461a      	mov	r2, r3
 8005084:	68fb      	ldr	r3, [r7, #12]
 8005086:	f8b3 306c 	ldrh.w	r3, [r3, #108]	; 0x6c
 800508a:	f7fd fe63 	bl	8002d54 <HAL_DMA_Start_IT>
 800508e:	4603      	mov	r3, r0
 8005090:	2b00      	cmp	r3, #0
 8005092:	d005      	beq.n	80050a0 <HAL_SAI_Receive_DMA+0xb4>
    {
      __HAL_UNLOCK(hsai);
 8005094:	68fb      	ldr	r3, [r7, #12]
 8005096:	2200      	movs	r2, #0
 8005098:	f883 2080 	strb.w	r2, [r3, #128]	; 0x80
      return  HAL_ERROR;
 800509c:	2301      	movs	r3, #1
 800509e:	e029      	b.n	80050f4 <HAL_SAI_Receive_DMA+0x108>
    }

    /* Enable the interrupts for error handling */
    __HAL_SAI_ENABLE_IT(hsai, SAI_InterruptFlag(hsai, SAI_MODE_DMA));
 80050a0:	2100      	movs	r1, #0
 80050a2:	68f8      	ldr	r0, [r7, #12]
 80050a4:	f000 f968 	bl	8005378 <SAI_InterruptFlag>
 80050a8:	4601      	mov	r1, r0
 80050aa:	68fb      	ldr	r3, [r7, #12]
 80050ac:	681b      	ldr	r3, [r3, #0]
 80050ae:	691a      	ldr	r2, [r3, #16]
 80050b0:	68fb      	ldr	r3, [r7, #12]
 80050b2:	681b      	ldr	r3, [r3, #0]
 80050b4:	430a      	orrs	r2, r1
 80050b6:	611a      	str	r2, [r3, #16]

    /* Enable SAI Rx DMA Request */
    hsai->Instance->CR1 |= SAI_xCR1_DMAEN;
 80050b8:	68fb      	ldr	r3, [r7, #12]
 80050ba:	681b      	ldr	r3, [r3, #0]
 80050bc:	681a      	ldr	r2, [r3, #0]
 80050be:	68fb      	ldr	r3, [r7, #12]
 80050c0:	681b      	ldr	r3, [r3, #0]
 80050c2:	f442 3200 	orr.w	r2, r2, #131072	; 0x20000
 80050c6:	601a      	str	r2, [r3, #0]

    /* Check if the SAI is already enabled */
    if ((hsai->Instance->CR1 & SAI_xCR1_SAIEN) == RESET)
 80050c8:	68fb      	ldr	r3, [r7, #12]
 80050ca:	681b      	ldr	r3, [r3, #0]
 80050cc:	681b      	ldr	r3, [r3, #0]
 80050ce:	f403 3380 	and.w	r3, r3, #65536	; 0x10000
 80050d2:	2b00      	cmp	r3, #0
 80050d4:	d107      	bne.n	80050e6 <HAL_SAI_Receive_DMA+0xfa>
    {
      /* Enable SAI peripheral */
      __HAL_SAI_ENABLE(hsai);
 80050d6:	68fb      	ldr	r3, [r7, #12]
 80050d8:	681b      	ldr	r3, [r3, #0]
 80050da:	681a      	ldr	r2, [r3, #0]
 80050dc:	68fb      	ldr	r3, [r7, #12]
 80050de:	681b      	ldr	r3, [r3, #0]
 80050e0:	f442 3280 	orr.w	r2, r2, #65536	; 0x10000
 80050e4:	601a      	str	r2, [r3, #0]
    }

    /* Process Unlocked */
    __HAL_UNLOCK(hsai);
 80050e6:	68fb      	ldr	r3, [r7, #12]
 80050e8:	2200      	movs	r2, #0
 80050ea:	f883 2080 	strb.w	r2, [r3, #128]	; 0x80

    return HAL_OK;
 80050ee:	2300      	movs	r3, #0
 80050f0:	e000      	b.n	80050f4 <HAL_SAI_Receive_DMA+0x108>
  }
  else
  {
    return HAL_BUSY;
 80050f2:	2302      	movs	r3, #2
  }
}
 80050f4:	4618      	mov	r0, r3
 80050f6:	3710      	adds	r7, #16
 80050f8:	46bd      	mov	sp, r7
 80050fa:	bd80      	pop	{r7, pc}
 80050fc:	080054b5 	.word	0x080054b5
 8005100:	08005455 	.word	0x08005455
 8005104:	080054d1 	.word	0x080054d1

08005108 <HAL_SAI_ErrorCallback>:
  * @param  hsai pointer to a SAI_HandleTypeDef structure that contains
  *               the configuration information for SAI module.
  * @retval None
  */
__weak void HAL_SAI_ErrorCallback(SAI_HandleTypeDef *hsai)
{
 8005108:	b480      	push	{r7}
 800510a:	b083      	sub	sp, #12
 800510c:	af00      	add	r7, sp, #0
 800510e:	6078      	str	r0, [r7, #4]
  UNUSED(hsai);

  /* NOTE : This function should not be modified, when the callback is needed,
            the HAL_SAI_ErrorCallback could be implemented in the user file
   */
}
 8005110:	bf00      	nop
 8005112:	370c      	adds	r7, #12
 8005114:	46bd      	mov	sp, r7
 8005116:	f85d 7b04 	ldr.w	r7, [sp], #4
 800511a:	4770      	bx	lr

0800511c <SAI_InitI2S>:
  * @param  nbslot number of slot minimum value is 2 and max is 16.
  *                    the value must be a multiple of 2.
  * @retval HAL status
  */
static HAL_StatusTypeDef SAI_InitI2S(SAI_HandleTypeDef *hsai, uint32_t protocol, uint32_t datasize, uint32_t nbslot)
{
 800511c:	b480      	push	{r7}
 800511e:	b085      	sub	sp, #20
 8005120:	af00      	add	r7, sp, #0
 8005122:	60f8      	str	r0, [r7, #12]
 8005124:	60b9      	str	r1, [r7, #8]
 8005126:	607a      	str	r2, [r7, #4]
 8005128:	603b      	str	r3, [r7, #0]
  hsai->Init.Protocol            = SAI_FREE_PROTOCOL;
 800512a:	68fb      	ldr	r3, [r7, #12]
 800512c:	2200      	movs	r2, #0
 800512e:	635a      	str	r2, [r3, #52]	; 0x34
  hsai->Init.FirstBit            = SAI_FIRSTBIT_MSB;
 8005130:	68fb      	ldr	r3, [r7, #12]
 8005132:	2200      	movs	r2, #0
 8005134:	63da      	str	r2, [r3, #60]	; 0x3c
  /* Compute ClockStrobing according AudioMode */
  if ((hsai->Init.AudioMode == SAI_MODEMASTER_TX) || (hsai->Init.AudioMode == SAI_MODESLAVE_TX))
 8005136:	68fb      	ldr	r3, [r7, #12]
 8005138:	685b      	ldr	r3, [r3, #4]
 800513a:	2b00      	cmp	r3, #0
 800513c:	d003      	beq.n	8005146 <SAI_InitI2S+0x2a>
 800513e:	68fb      	ldr	r3, [r7, #12]
 8005140:	685b      	ldr	r3, [r3, #4]
 8005142:	2b02      	cmp	r3, #2
 8005144:	d103      	bne.n	800514e <SAI_InitI2S+0x32>
  {
    /* Transmit */
    hsai->Init.ClockStrobing     = SAI_CLOCKSTROBING_FALLINGEDGE;
 8005146:	68fb      	ldr	r3, [r7, #12]
 8005148:	2200      	movs	r2, #0
 800514a:	641a      	str	r2, [r3, #64]	; 0x40
 800514c:	e002      	b.n	8005154 <SAI_InitI2S+0x38>
  }
  else
  {
    /* Receive */
    hsai->Init.ClockStrobing     = SAI_CLOCKSTROBING_RISINGEDGE;
 800514e:	68fb      	ldr	r3, [r7, #12]
 8005150:	2201      	movs	r2, #1
 8005152:	641a      	str	r2, [r3, #64]	; 0x40
  }
  hsai->FrameInit.FSDefinition   = SAI_FS_CHANNEL_IDENTIFICATION;
 8005154:	68fb      	ldr	r3, [r7, #12]
 8005156:	f44f 3280 	mov.w	r2, #65536	; 0x10000
 800515a:	64da      	str	r2, [r3, #76]	; 0x4c
  hsai->SlotInit.SlotActive      = SAI_SLOTACTIVE_ALL;
 800515c:	68fb      	ldr	r3, [r7, #12]
 800515e:	f64f 72ff 	movw	r2, #65535	; 0xffff
 8005162:	665a      	str	r2, [r3, #100]	; 0x64
  hsai->SlotInit.FirstBitOffset  = 0U;
 8005164:	68fb      	ldr	r3, [r7, #12]
 8005166:	2200      	movs	r2, #0
 8005168:	659a      	str	r2, [r3, #88]	; 0x58
  hsai->SlotInit.SlotNumber      = nbslot;
 800516a:	68fb      	ldr	r3, [r7, #12]
 800516c:	683a      	ldr	r2, [r7, #0]
 800516e:	661a      	str	r2, [r3, #96]	; 0x60

  /* in IS2 the number of slot must be even */
  if ((nbslot & 0x1U) != 0U)
 8005170:	683b      	ldr	r3, [r7, #0]
 8005172:	f003 0301 	and.w	r3, r3, #1
 8005176:	2b00      	cmp	r3, #0
 8005178:	d001      	beq.n	800517e <SAI_InitI2S+0x62>
  {
    return HAL_ERROR;
 800517a:	2301      	movs	r3, #1
 800517c:	e076      	b.n	800526c <SAI_InitI2S+0x150>
  }

  if (protocol == SAI_I2S_STANDARD)
 800517e:	68bb      	ldr	r3, [r7, #8]
 8005180:	2b00      	cmp	r3, #0
 8005182:	d107      	bne.n	8005194 <SAI_InitI2S+0x78>
  {
    hsai->FrameInit.FSPolarity = SAI_FS_ACTIVE_LOW;
 8005184:	68fb      	ldr	r3, [r7, #12]
 8005186:	2200      	movs	r2, #0
 8005188:	651a      	str	r2, [r3, #80]	; 0x50
    hsai->FrameInit.FSOffset   = SAI_FS_BEFOREFIRSTBIT;
 800518a:	68fb      	ldr	r3, [r7, #12]
 800518c:	f44f 2280 	mov.w	r2, #262144	; 0x40000
 8005190:	655a      	str	r2, [r3, #84]	; 0x54
 8005192:	e006      	b.n	80051a2 <SAI_InitI2S+0x86>
  }
  else
  {
    /* SAI_I2S_MSBJUSTIFIED or SAI_I2S_LSBJUSTIFIED */
    hsai->FrameInit.FSPolarity = SAI_FS_ACTIVE_HIGH;
 8005194:	68fb      	ldr	r3, [r7, #12]
 8005196:	f44f 3200 	mov.w	r2, #131072	; 0x20000
 800519a:	651a      	str	r2, [r3, #80]	; 0x50
    hsai->FrameInit.FSOffset   = SAI_FS_FIRSTBIT;
 800519c:	68fb      	ldr	r3, [r7, #12]
 800519e:	2200      	movs	r2, #0
 80051a0:	655a      	str	r2, [r3, #84]	; 0x54
  }

  /* Frame definition */
  switch (datasize)
 80051a2:	687b      	ldr	r3, [r7, #4]
 80051a4:	2b03      	cmp	r3, #3
 80051a6:	d84f      	bhi.n	8005248 <SAI_InitI2S+0x12c>
 80051a8:	a201      	add	r2, pc, #4	; (adr r2, 80051b0 <SAI_InitI2S+0x94>)
 80051aa:	f852 f023 	ldr.w	pc, [r2, r3, lsl #2]
 80051ae:	bf00      	nop
 80051b0:	080051c1 	.word	0x080051c1
 80051b4:	080051e3 	.word	0x080051e3
 80051b8:	08005205 	.word	0x08005205
 80051bc:	08005227 	.word	0x08005227
  {
    case SAI_PROTOCOL_DATASIZE_16BIT:
      hsai->Init.DataSize = SAI_DATASIZE_16;
 80051c0:	68fb      	ldr	r3, [r7, #12]
 80051c2:	2280      	movs	r2, #128	; 0x80
 80051c4:	639a      	str	r2, [r3, #56]	; 0x38
      hsai->FrameInit.FrameLength = 32U * (nbslot / 2U);
 80051c6:	683b      	ldr	r3, [r7, #0]
 80051c8:	085b      	lsrs	r3, r3, #1
 80051ca:	015a      	lsls	r2, r3, #5
 80051cc:	68fb      	ldr	r3, [r7, #12]
 80051ce:	645a      	str	r2, [r3, #68]	; 0x44
      hsai->FrameInit.ActiveFrameLength = 16U * (nbslot / 2U);
 80051d0:	683b      	ldr	r3, [r7, #0]
 80051d2:	085b      	lsrs	r3, r3, #1
 80051d4:	011a      	lsls	r2, r3, #4
 80051d6:	68fb      	ldr	r3, [r7, #12]
 80051d8:	649a      	str	r2, [r3, #72]	; 0x48
      hsai->SlotInit.SlotSize = SAI_SLOTSIZE_16B;
 80051da:	68fb      	ldr	r3, [r7, #12]
 80051dc:	2240      	movs	r2, #64	; 0x40
 80051de:	65da      	str	r2, [r3, #92]	; 0x5c
      break;
 80051e0:	e034      	b.n	800524c <SAI_InitI2S+0x130>
    case SAI_PROTOCOL_DATASIZE_16BITEXTENDED :
      hsai->Init.DataSize = SAI_DATASIZE_16;
 80051e2:	68fb      	ldr	r3, [r7, #12]
 80051e4:	2280      	movs	r2, #128	; 0x80
 80051e6:	639a      	str	r2, [r3, #56]	; 0x38
      hsai->FrameInit.FrameLength = 64U * (nbslot / 2U);
 80051e8:	683b      	ldr	r3, [r7, #0]
 80051ea:	085b      	lsrs	r3, r3, #1
 80051ec:	019a      	lsls	r2, r3, #6
 80051ee:	68fb      	ldr	r3, [r7, #12]
 80051f0:	645a      	str	r2, [r3, #68]	; 0x44
      hsai->FrameInit.ActiveFrameLength = 32U * (nbslot / 2U);
 80051f2:	683b      	ldr	r3, [r7, #0]
 80051f4:	085b      	lsrs	r3, r3, #1
 80051f6:	015a      	lsls	r2, r3, #5
 80051f8:	68fb      	ldr	r3, [r7, #12]
 80051fa:	649a      	str	r2, [r3, #72]	; 0x48
      hsai->SlotInit.SlotSize = SAI_SLOTSIZE_32B;
 80051fc:	68fb      	ldr	r3, [r7, #12]
 80051fe:	2280      	movs	r2, #128	; 0x80
 8005200:	65da      	str	r2, [r3, #92]	; 0x5c
      break;
 8005202:	e023      	b.n	800524c <SAI_InitI2S+0x130>
    case SAI_PROTOCOL_DATASIZE_24BIT:
      hsai->Init.DataSize = SAI_DATASIZE_24;
 8005204:	68fb      	ldr	r3, [r7, #12]
 8005206:	22c0      	movs	r2, #192	; 0xc0
 8005208:	639a      	str	r2, [r3, #56]	; 0x38
      hsai->FrameInit.FrameLength = 64U * (nbslot / 2U);
 800520a:	683b      	ldr	r3, [r7, #0]
 800520c:	085b      	lsrs	r3, r3, #1
 800520e:	019a      	lsls	r2, r3, #6
 8005210:	68fb      	ldr	r3, [r7, #12]
 8005212:	645a      	str	r2, [r3, #68]	; 0x44
      hsai->FrameInit.ActiveFrameLength = 32U * (nbslot / 2U);
 8005214:	683b      	ldr	r3, [r7, #0]
 8005216:	085b      	lsrs	r3, r3, #1
 8005218:	015a      	lsls	r2, r3, #5
 800521a:	68fb      	ldr	r3, [r7, #12]
 800521c:	649a      	str	r2, [r3, #72]	; 0x48
      hsai->SlotInit.SlotSize = SAI_SLOTSIZE_32B;
 800521e:	68fb      	ldr	r3, [r7, #12]
 8005220:	2280      	movs	r2, #128	; 0x80
 8005222:	65da      	str	r2, [r3, #92]	; 0x5c
      break;
 8005224:	e012      	b.n	800524c <SAI_InitI2S+0x130>
    case SAI_PROTOCOL_DATASIZE_32BIT:
      hsai->Init.DataSize = SAI_DATASIZE_32;
 8005226:	68fb      	ldr	r3, [r7, #12]
 8005228:	22e0      	movs	r2, #224	; 0xe0
 800522a:	639a      	str	r2, [r3, #56]	; 0x38
      hsai->FrameInit.FrameLength = 64U * (nbslot / 2U);
 800522c:	683b      	ldr	r3, [r7, #0]
 800522e:	085b      	lsrs	r3, r3, #1
 8005230:	019a      	lsls	r2, r3, #6
 8005232:	68fb      	ldr	r3, [r7, #12]
 8005234:	645a      	str	r2, [r3, #68]	; 0x44
      hsai->FrameInit.ActiveFrameLength = 32U * (nbslot / 2U);
 8005236:	683b      	ldr	r3, [r7, #0]
 8005238:	085b      	lsrs	r3, r3, #1
 800523a:	015a      	lsls	r2, r3, #5
 800523c:	68fb      	ldr	r3, [r7, #12]
 800523e:	649a      	str	r2, [r3, #72]	; 0x48
      hsai->SlotInit.SlotSize = SAI_SLOTSIZE_32B;
 8005240:	68fb      	ldr	r3, [r7, #12]
 8005242:	2280      	movs	r2, #128	; 0x80
 8005244:	65da      	str	r2, [r3, #92]	; 0x5c
      break;
 8005246:	e001      	b.n	800524c <SAI_InitI2S+0x130>
    default :
      return HAL_ERROR;
 8005248:	2301      	movs	r3, #1
 800524a:	e00f      	b.n	800526c <SAI_InitI2S+0x150>
  }
  if (protocol == SAI_I2S_LSBJUSTIFIED)
 800524c:	68bb      	ldr	r3, [r7, #8]
 800524e:	2b02      	cmp	r3, #2
 8005250:	d10b      	bne.n	800526a <SAI_InitI2S+0x14e>
  {
    if (datasize == SAI_PROTOCOL_DATASIZE_16BITEXTENDED)
 8005252:	687b      	ldr	r3, [r7, #4]
 8005254:	2b01      	cmp	r3, #1
 8005256:	d102      	bne.n	800525e <SAI_InitI2S+0x142>
    {
      hsai->SlotInit.FirstBitOffset = 16U;
 8005258:	68fb      	ldr	r3, [r7, #12]
 800525a:	2210      	movs	r2, #16
 800525c:	659a      	str	r2, [r3, #88]	; 0x58
    }
    if (datasize == SAI_PROTOCOL_DATASIZE_24BIT)
 800525e:	687b      	ldr	r3, [r7, #4]
 8005260:	2b02      	cmp	r3, #2
 8005262:	d102      	bne.n	800526a <SAI_InitI2S+0x14e>
    {
      hsai->SlotInit.FirstBitOffset = 8U;
 8005264:	68fb      	ldr	r3, [r7, #12]
 8005266:	2208      	movs	r2, #8
 8005268:	659a      	str	r2, [r3, #88]	; 0x58
    }
  }
  return HAL_OK;
 800526a:	2300      	movs	r3, #0
}
 800526c:	4618      	mov	r0, r3
 800526e:	3714      	adds	r7, #20
 8005270:	46bd      	mov	sp, r7
 8005272:	f85d 7b04 	ldr.w	r7, [sp], #4
 8005276:	4770      	bx	lr

08005278 <SAI_InitPCM>:
  * @param  datasize one of the supported datasize @ref SAI_Protocol_DataSize
  * @param  nbslot number of slot minimum value is 1 and the max is 16.
  * @retval HAL status
  */
static HAL_StatusTypeDef SAI_InitPCM(SAI_HandleTypeDef *hsai, uint32_t protocol, uint32_t datasize, uint32_t nbslot)
{
 8005278:	b480      	push	{r7}
 800527a:	b085      	sub	sp, #20
 800527c:	af00      	add	r7, sp, #0
 800527e:	60f8      	str	r0, [r7, #12]
 8005280:	60b9      	str	r1, [r7, #8]
 8005282:	607a      	str	r2, [r7, #4]
 8005284:	603b      	str	r3, [r7, #0]
  hsai->Init.Protocol            = SAI_FREE_PROTOCOL;
 8005286:	68fb      	ldr	r3, [r7, #12]
 8005288:	2200      	movs	r2, #0
 800528a:	635a      	str	r2, [r3, #52]	; 0x34
  hsai->Init.FirstBit            = SAI_FIRSTBIT_MSB;
 800528c:	68fb      	ldr	r3, [r7, #12]
 800528e:	2200      	movs	r2, #0
 8005290:	63da      	str	r2, [r3, #60]	; 0x3c
  /* Compute ClockStrobing according AudioMode */
  if ((hsai->Init.AudioMode == SAI_MODEMASTER_TX) || (hsai->Init.AudioMode == SAI_MODESLAVE_TX))
 8005292:	68fb      	ldr	r3, [r7, #12]
 8005294:	685b      	ldr	r3, [r3, #4]
 8005296:	2b00      	cmp	r3, #0
 8005298:	d003      	beq.n	80052a2 <SAI_InitPCM+0x2a>
 800529a:	68fb      	ldr	r3, [r7, #12]
 800529c:	685b      	ldr	r3, [r3, #4]
 800529e:	2b02      	cmp	r3, #2
 80052a0:	d103      	bne.n	80052aa <SAI_InitPCM+0x32>
  {
    /* Transmit */
    hsai->Init.ClockStrobing     = SAI_CLOCKSTROBING_RISINGEDGE;
 80052a2:	68fb      	ldr	r3, [r7, #12]
 80052a4:	2201      	movs	r2, #1
 80052a6:	641a      	str	r2, [r3, #64]	; 0x40
 80052a8:	e002      	b.n	80052b0 <SAI_InitPCM+0x38>
  }
  else
  {
    /* Receive */
    hsai->Init.ClockStrobing     = SAI_CLOCKSTROBING_FALLINGEDGE;
 80052aa:	68fb      	ldr	r3, [r7, #12]
 80052ac:	2200      	movs	r2, #0
 80052ae:	641a      	str	r2, [r3, #64]	; 0x40
  }
  hsai->FrameInit.FSDefinition   = SAI_FS_STARTFRAME;
 80052b0:	68fb      	ldr	r3, [r7, #12]
 80052b2:	2200      	movs	r2, #0
 80052b4:	64da      	str	r2, [r3, #76]	; 0x4c
  hsai->FrameInit.FSPolarity     = SAI_FS_ACTIVE_HIGH;
 80052b6:	68fb      	ldr	r3, [r7, #12]
 80052b8:	f44f 3200 	mov.w	r2, #131072	; 0x20000
 80052bc:	651a      	str	r2, [r3, #80]	; 0x50
  hsai->FrameInit.FSOffset       = SAI_FS_BEFOREFIRSTBIT;
 80052be:	68fb      	ldr	r3, [r7, #12]
 80052c0:	f44f 2280 	mov.w	r2, #262144	; 0x40000
 80052c4:	655a      	str	r2, [r3, #84]	; 0x54
  hsai->SlotInit.FirstBitOffset  = 0U;
 80052c6:	68fb      	ldr	r3, [r7, #12]
 80052c8:	2200      	movs	r2, #0
 80052ca:	659a      	str	r2, [r3, #88]	; 0x58
  hsai->SlotInit.SlotNumber      = nbslot;
 80052cc:	68fb      	ldr	r3, [r7, #12]
 80052ce:	683a      	ldr	r2, [r7, #0]
 80052d0:	661a      	str	r2, [r3, #96]	; 0x60
  hsai->SlotInit.SlotActive      = SAI_SLOTACTIVE_ALL;
 80052d2:	68fb      	ldr	r3, [r7, #12]
 80052d4:	f64f 72ff 	movw	r2, #65535	; 0xffff
 80052d8:	665a      	str	r2, [r3, #100]	; 0x64

  if (protocol == SAI_PCM_SHORT)
 80052da:	68bb      	ldr	r3, [r7, #8]
 80052dc:	2b04      	cmp	r3, #4
 80052de:	d103      	bne.n	80052e8 <SAI_InitPCM+0x70>
  {
    hsai->FrameInit.ActiveFrameLength = 1;
 80052e0:	68fb      	ldr	r3, [r7, #12]
 80052e2:	2201      	movs	r2, #1
 80052e4:	649a      	str	r2, [r3, #72]	; 0x48
 80052e6:	e002      	b.n	80052ee <SAI_InitPCM+0x76>
  }
  else
  {
    /* SAI_PCM_LONG */
    hsai->FrameInit.ActiveFrameLength = 13;
 80052e8:	68fb      	ldr	r3, [r7, #12]
 80052ea:	220d      	movs	r2, #13
 80052ec:	649a      	str	r2, [r3, #72]	; 0x48
  }

  switch (datasize)
 80052ee:	687b      	ldr	r3, [r7, #4]
 80052f0:	2b03      	cmp	r3, #3
 80052f2:	d837      	bhi.n	8005364 <SAI_InitPCM+0xec>
 80052f4:	a201      	add	r2, pc, #4	; (adr r2, 80052fc <SAI_InitPCM+0x84>)
 80052f6:	f852 f023 	ldr.w	pc, [r2, r3, lsl #2]
 80052fa:	bf00      	nop
 80052fc:	0800530d 	.word	0x0800530d
 8005300:	08005323 	.word	0x08005323
 8005304:	08005339 	.word	0x08005339
 8005308:	0800534f 	.word	0x0800534f
  {
    case SAI_PROTOCOL_DATASIZE_16BIT:
      hsai->Init.DataSize = SAI_DATASIZE_16;
 800530c:	68fb      	ldr	r3, [r7, #12]
 800530e:	2280      	movs	r2, #128	; 0x80
 8005310:	639a      	str	r2, [r3, #56]	; 0x38
      hsai->FrameInit.FrameLength = 16U * nbslot;
 8005312:	683b      	ldr	r3, [r7, #0]
 8005314:	011a      	lsls	r2, r3, #4
 8005316:	68fb      	ldr	r3, [r7, #12]
 8005318:	645a      	str	r2, [r3, #68]	; 0x44
      hsai->SlotInit.SlotSize = SAI_SLOTSIZE_16B;
 800531a:	68fb      	ldr	r3, [r7, #12]
 800531c:	2240      	movs	r2, #64	; 0x40
 800531e:	65da      	str	r2, [r3, #92]	; 0x5c
      break;
 8005320:	e022      	b.n	8005368 <SAI_InitPCM+0xf0>
    case SAI_PROTOCOL_DATASIZE_16BITEXTENDED :
      hsai->Init.DataSize = SAI_DATASIZE_16;
 8005322:	68fb      	ldr	r3, [r7, #12]
 8005324:	2280      	movs	r2, #128	; 0x80
 8005326:	639a      	str	r2, [r3, #56]	; 0x38
      hsai->FrameInit.FrameLength = 32U * nbslot;
 8005328:	683b      	ldr	r3, [r7, #0]
 800532a:	015a      	lsls	r2, r3, #5
 800532c:	68fb      	ldr	r3, [r7, #12]
 800532e:	645a      	str	r2, [r3, #68]	; 0x44
      hsai->SlotInit.SlotSize = SAI_SLOTSIZE_32B;
 8005330:	68fb      	ldr	r3, [r7, #12]
 8005332:	2280      	movs	r2, #128	; 0x80
 8005334:	65da      	str	r2, [r3, #92]	; 0x5c
      break;
 8005336:	e017      	b.n	8005368 <SAI_InitPCM+0xf0>
    case SAI_PROTOCOL_DATASIZE_24BIT :
      hsai->Init.DataSize = SAI_DATASIZE_24;
 8005338:	68fb      	ldr	r3, [r7, #12]
 800533a:	22c0      	movs	r2, #192	; 0xc0
 800533c:	639a      	str	r2, [r3, #56]	; 0x38
      hsai->FrameInit.FrameLength = 32U * nbslot;
 800533e:	683b      	ldr	r3, [r7, #0]
 8005340:	015a      	lsls	r2, r3, #5
 8005342:	68fb      	ldr	r3, [r7, #12]
 8005344:	645a      	str	r2, [r3, #68]	; 0x44
      hsai->SlotInit.SlotSize = SAI_SLOTSIZE_32B;
 8005346:	68fb      	ldr	r3, [r7, #12]
 8005348:	2280      	movs	r2, #128	; 0x80
 800534a:	65da      	str	r2, [r3, #92]	; 0x5c
      break;
 800534c:	e00c      	b.n	8005368 <SAI_InitPCM+0xf0>
    case SAI_PROTOCOL_DATASIZE_32BIT:
      hsai->Init.DataSize = SAI_DATASIZE_32;
 800534e:	68fb      	ldr	r3, [r7, #12]
 8005350:	22e0      	movs	r2, #224	; 0xe0
 8005352:	639a      	str	r2, [r3, #56]	; 0x38
      hsai->FrameInit.FrameLength = 32U * nbslot;
 8005354:	683b      	ldr	r3, [r7, #0]
 8005356:	015a      	lsls	r2, r3, #5
 8005358:	68fb      	ldr	r3, [r7, #12]
 800535a:	645a      	str	r2, [r3, #68]	; 0x44
      hsai->SlotInit.SlotSize = SAI_SLOTSIZE_32B;
 800535c:	68fb      	ldr	r3, [r7, #12]
 800535e:	2280      	movs	r2, #128	; 0x80
 8005360:	65da      	str	r2, [r3, #92]	; 0x5c
      break;
 8005362:	e001      	b.n	8005368 <SAI_InitPCM+0xf0>
    default :
      return HAL_ERROR;
 8005364:	2301      	movs	r3, #1
 8005366:	e000      	b.n	800536a <SAI_InitPCM+0xf2>
  }

  return HAL_OK;
 8005368:	2300      	movs	r3, #0
}
 800536a:	4618      	mov	r0, r3
 800536c:	3714      	adds	r7, #20
 800536e:	46bd      	mov	sp, r7
 8005370:	f85d 7b04 	ldr.w	r7, [sp], #4
 8005374:	4770      	bx	lr
 8005376:	bf00      	nop

08005378 <SAI_InterruptFlag>:
  *               the configuration information for SAI module.
  * @param  mode SAI_MODE_DMA or SAI_MODE_IT
  * @retval the list of the IT flag to enable
 */
static uint32_t SAI_InterruptFlag(SAI_HandleTypeDef *hsai, uint32_t mode)
{
 8005378:	b480      	push	{r7}
 800537a:	b085      	sub	sp, #20
 800537c:	af00      	add	r7, sp, #0
 800537e:	6078      	str	r0, [r7, #4]
 8005380:	6039      	str	r1, [r7, #0]
  uint32_t tmpIT = SAI_IT_OVRUDR;
 8005382:	2301      	movs	r3, #1
 8005384:	60fb      	str	r3, [r7, #12]

  if (mode == SAI_MODE_IT)
 8005386:	683b      	ldr	r3, [r7, #0]
 8005388:	2b01      	cmp	r3, #1
 800538a:	d103      	bne.n	8005394 <SAI_InterruptFlag+0x1c>
  {
    tmpIT |= SAI_IT_FREQ;
 800538c:	68fb      	ldr	r3, [r7, #12]
 800538e:	f043 0308 	orr.w	r3, r3, #8
 8005392:	60fb      	str	r3, [r7, #12]
  }

  if ((hsai->Init.Protocol == SAI_AC97_PROTOCOL) &&
 8005394:	687b      	ldr	r3, [r7, #4]
 8005396:	6b5b      	ldr	r3, [r3, #52]	; 0x34
 8005398:	2b08      	cmp	r3, #8
 800539a:	d10b      	bne.n	80053b4 <SAI_InterruptFlag+0x3c>
      ((hsai->Init.AudioMode == SAI_MODESLAVE_RX) || (hsai->Init.AudioMode == SAI_MODEMASTER_RX)))
 800539c:	687b      	ldr	r3, [r7, #4]
 800539e:	685b      	ldr	r3, [r3, #4]
  if ((hsai->Init.Protocol == SAI_AC97_PROTOCOL) &&
 80053a0:	2b03      	cmp	r3, #3
 80053a2:	d003      	beq.n	80053ac <SAI_InterruptFlag+0x34>
      ((hsai->Init.AudioMode == SAI_MODESLAVE_RX) || (hsai->Init.AudioMode == SAI_MODEMASTER_RX)))
 80053a4:	687b      	ldr	r3, [r7, #4]
 80053a6:	685b      	ldr	r3, [r3, #4]
 80053a8:	2b01      	cmp	r3, #1
 80053aa:	d103      	bne.n	80053b4 <SAI_InterruptFlag+0x3c>
  {
    tmpIT |= SAI_IT_CNRDY;
 80053ac:	68fb      	ldr	r3, [r7, #12]
 80053ae:	f043 0310 	orr.w	r3, r3, #16
 80053b2:	60fb      	str	r3, [r7, #12]
  }

  if ((hsai->Init.AudioMode == SAI_MODESLAVE_RX) || (hsai->Init.AudioMode == SAI_MODESLAVE_TX))
 80053b4:	687b      	ldr	r3, [r7, #4]
 80053b6:	685b      	ldr	r3, [r3, #4]
 80053b8:	2b03      	cmp	r3, #3
 80053ba:	d003      	beq.n	80053c4 <SAI_InterruptFlag+0x4c>
 80053bc:	687b      	ldr	r3, [r7, #4]
 80053be:	685b      	ldr	r3, [r3, #4]
 80053c0:	2b02      	cmp	r3, #2
 80053c2:	d104      	bne.n	80053ce <SAI_InterruptFlag+0x56>
  {
    tmpIT |= SAI_IT_AFSDET | SAI_IT_LFSDET;
 80053c4:	68fb      	ldr	r3, [r7, #12]
 80053c6:	f043 0360 	orr.w	r3, r3, #96	; 0x60
 80053ca:	60fb      	str	r3, [r7, #12]
 80053cc:	e003      	b.n	80053d6 <SAI_InterruptFlag+0x5e>
  }
  else
  {
    /* hsai has been configured in master mode */
    tmpIT |= SAI_IT_WCKCFG;
 80053ce:	68fb      	ldr	r3, [r7, #12]
 80053d0:	f043 0304 	orr.w	r3, r3, #4
 80053d4:	60fb      	str	r3, [r7, #12]
  }
  return tmpIT;
 80053d6:	68fb      	ldr	r3, [r7, #12]
}
 80053d8:	4618      	mov	r0, r3
 80053da:	3714      	adds	r7, #20
 80053dc:	46bd      	mov	sp, r7
 80053de:	f85d 7b04 	ldr.w	r7, [sp], #4
 80053e2:	4770      	bx	lr

080053e4 <SAI_Disable>:
  * @param  hsai  pointer to a SAI_HandleTypeDef structure that contains
  *               the configuration information for SAI module.
  * @retval None
  */
static HAL_StatusTypeDef SAI_Disable(SAI_HandleTypeDef *hsai)
{
 80053e4:	b480      	push	{r7}
 80053e6:	b085      	sub	sp, #20
 80053e8:	af00      	add	r7, sp, #0
 80053ea:	6078      	str	r0, [r7, #4]
  uint32_t count = SAI_DEFAULT_TIMEOUT * (SystemCoreClock / 7U / 1000U);
 80053ec:	4b17      	ldr	r3, [pc, #92]	; (800544c <SAI_Disable+0x68>)
 80053ee:	681b      	ldr	r3, [r3, #0]
 80053f0:	4a17      	ldr	r2, [pc, #92]	; (8005450 <SAI_Disable+0x6c>)
 80053f2:	fba2 2303 	umull	r2, r3, r2, r3
 80053f6:	0b1b      	lsrs	r3, r3, #12
 80053f8:	009b      	lsls	r3, r3, #2
 80053fa:	60fb      	str	r3, [r7, #12]
  HAL_StatusTypeDef status = HAL_OK;
 80053fc:	2300      	movs	r3, #0
 80053fe:	72fb      	strb	r3, [r7, #11]

  /* Disable the SAI instance */
  __HAL_SAI_DISABLE(hsai);
 8005400:	687b      	ldr	r3, [r7, #4]
 8005402:	681b      	ldr	r3, [r3, #0]
 8005404:	681a      	ldr	r2, [r3, #0]
 8005406:	687b      	ldr	r3, [r7, #4]
 8005408:	681b      	ldr	r3, [r3, #0]
 800540a:	f422 3280 	bic.w	r2, r2, #65536	; 0x10000
 800540e:	601a      	str	r2, [r3, #0]

  do
  {
    /* Check for the Timeout */
    if (count-- == 0U)
 8005410:	68fb      	ldr	r3, [r7, #12]
 8005412:	1e5a      	subs	r2, r3, #1
 8005414:	60fa      	str	r2, [r7, #12]
 8005416:	2b00      	cmp	r3, #0
 8005418:	d10a      	bne.n	8005430 <SAI_Disable+0x4c>
    {
      /* Update error code */
      hsai->ErrorCode |= HAL_SAI_ERROR_TIMEOUT;
 800541a:	687b      	ldr	r3, [r7, #4]
 800541c:	f8d3 3084 	ldr.w	r3, [r3, #132]	; 0x84
 8005420:	f043 0240 	orr.w	r2, r3, #64	; 0x40
 8005424:	687b      	ldr	r3, [r7, #4]
 8005426:	f8c3 2084 	str.w	r2, [r3, #132]	; 0x84
      status = HAL_TIMEOUT;
 800542a:	2303      	movs	r3, #3
 800542c:	72fb      	strb	r3, [r7, #11]
      break;
 800542e:	e006      	b.n	800543e <SAI_Disable+0x5a>
    }
  }
  while ((hsai->Instance->CR1 & SAI_xCR1_SAIEN) != RESET);
 8005430:	687b      	ldr	r3, [r7, #4]
 8005432:	681b      	ldr	r3, [r3, #0]
 8005434:	681b      	ldr	r3, [r3, #0]
 8005436:	f403 3380 	and.w	r3, r3, #65536	; 0x10000
 800543a:	2b00      	cmp	r3, #0
 800543c:	d1e8      	bne.n	8005410 <SAI_Disable+0x2c>

  return status;
 800543e:	7afb      	ldrb	r3, [r7, #11]
}
 8005440:	4618      	mov	r0, r3
 8005442:	3714      	adds	r7, #20
 8005444:	46bd      	mov	sp, r7
 8005446:	f85d 7b04 	ldr.w	r7, [sp], #4
 800544a:	4770      	bx	lr
 800544c:	2000000c 	.word	0x2000000c
 8005450:	95cbec1b 	.word	0x95cbec1b

08005454 <SAI_DMARxCplt>:
  * @param  hdma pointer to a DMA_HandleTypeDef structure that contains
  *               the configuration information for the specified DMA module.
  * @retval None
  */
static void SAI_DMARxCplt(DMA_HandleTypeDef *hdma)
{
 8005454:	b580      	push	{r7, lr}
 8005456:	b084      	sub	sp, #16
 8005458:	af00      	add	r7, sp, #0
 800545a:	6078      	str	r0, [r7, #4]
  SAI_HandleTypeDef *hsai = (SAI_HandleTypeDef *)((DMA_HandleTypeDef *)hdma)->Parent;
 800545c:	687b      	ldr	r3, [r7, #4]
 800545e:	6b9b      	ldr	r3, [r3, #56]	; 0x38
 8005460:	60fb      	str	r3, [r7, #12]

  if (hdma->Init.Mode != DMA_CIRCULAR)
 8005462:	687b      	ldr	r3, [r7, #4]
 8005464:	69db      	ldr	r3, [r3, #28]
 8005466:	f5b3 7f80 	cmp.w	r3, #256	; 0x100
 800546a:	d01c      	beq.n	80054a6 <SAI_DMARxCplt+0x52>
  {
    /* Disable Rx DMA Request */
    hsai->Instance->CR1 &= (uint32_t)(~SAI_xCR1_DMAEN);
 800546c:	68fb      	ldr	r3, [r7, #12]
 800546e:	681b      	ldr	r3, [r3, #0]
 8005470:	681a      	ldr	r2, [r3, #0]
 8005472:	68fb      	ldr	r3, [r7, #12]
 8005474:	681b      	ldr	r3, [r3, #0]
 8005476:	f422 3200 	bic.w	r2, r2, #131072	; 0x20000
 800547a:	601a      	str	r2, [r3, #0]
    hsai->XferCount = 0U;
 800547c:	68fb      	ldr	r3, [r7, #12]
 800547e:	2200      	movs	r2, #0
 8005480:	f8a3 206e 	strh.w	r2, [r3, #110]	; 0x6e

    /* Stop the interrupts error handling */
    __HAL_SAI_DISABLE_IT(hsai, SAI_InterruptFlag(hsai, SAI_MODE_DMA));
 8005484:	2100      	movs	r1, #0
 8005486:	68f8      	ldr	r0, [r7, #12]
 8005488:	f7ff ff76 	bl	8005378 <SAI_InterruptFlag>
 800548c:	4603      	mov	r3, r0
 800548e:	43d9      	mvns	r1, r3
 8005490:	68fb      	ldr	r3, [r7, #12]
 8005492:	681b      	ldr	r3, [r3, #0]
 8005494:	691a      	ldr	r2, [r3, #16]
 8005496:	68fb      	ldr	r3, [r7, #12]
 8005498:	681b      	ldr	r3, [r3, #0]
 800549a:	400a      	ands	r2, r1
 800549c:	611a      	str	r2, [r3, #16]

    hsai->State = HAL_SAI_STATE_READY;
 800549e:	68fb      	ldr	r3, [r7, #12]
 80054a0:	2201      	movs	r2, #1
 80054a2:	f883 2081 	strb.w	r2, [r3, #129]	; 0x81
  }
#if (USE_HAL_SAI_REGISTER_CALLBACKS == 1)
  hsai->RxCpltCallback(hsai);
#else
  HAL_SAI_RxCpltCallback(hsai);
 80054a6:	68f8      	ldr	r0, [r7, #12]
 80054a8:	f7fc fc68 	bl	8001d7c <HAL_SAI_RxCpltCallback>
#endif /* USE_HAL_SAI_REGISTER_CALLBACKS */
}
 80054ac:	bf00      	nop
 80054ae:	3710      	adds	r7, #16
 80054b0:	46bd      	mov	sp, r7
 80054b2:	bd80      	pop	{r7, pc}

080054b4 <SAI_DMARxHalfCplt>:
  * @param  hdma pointer to a DMA_HandleTypeDef structure that contains
  *               the configuration information for the specified DMA module.
  * @retval None
  */
static void SAI_DMARxHalfCplt(DMA_HandleTypeDef *hdma)
{
 80054b4:	b580      	push	{r7, lr}
 80054b6:	b084      	sub	sp, #16
 80054b8:	af00      	add	r7, sp, #0
 80054ba:	6078      	str	r0, [r7, #4]
  SAI_HandleTypeDef *hsai = (SAI_HandleTypeDef *)((DMA_HandleTypeDef *)hdma)->Parent;
 80054bc:	687b      	ldr	r3, [r7, #4]
 80054be:	6b9b      	ldr	r3, [r3, #56]	; 0x38
 80054c0:	60fb      	str	r3, [r7, #12]

#if (USE_HAL_SAI_REGISTER_CALLBACKS == 1)
  hsai->RxHalfCpltCallback(hsai);
#else
  HAL_SAI_RxHalfCpltCallback(hsai);
 80054c2:	68f8      	ldr	r0, [r7, #12]
 80054c4:	f7fc fc4c 	bl	8001d60 <HAL_SAI_RxHalfCpltCallback>
#endif /* USE_HAL_SAI_REGISTER_CALLBACKS */
}
 80054c8:	bf00      	nop
 80054ca:	3710      	adds	r7, #16
 80054cc:	46bd      	mov	sp, r7
 80054ce:	bd80      	pop	{r7, pc}

080054d0 <SAI_DMAError>:
  * @param  hdma pointer to a DMA_HandleTypeDef structure that contains
  *               the configuration information for the specified DMA module.
  * @retval None
  */
static void SAI_DMAError(DMA_HandleTypeDef *hdma)
{
 80054d0:	b580      	push	{r7, lr}
 80054d2:	b084      	sub	sp, #16
 80054d4:	af00      	add	r7, sp, #0
 80054d6:	6078      	str	r0, [r7, #4]
  SAI_HandleTypeDef *hsai = (SAI_HandleTypeDef *)((DMA_HandleTypeDef *)hdma)->Parent;
 80054d8:	687b      	ldr	r3, [r7, #4]
 80054da:	6b9b      	ldr	r3, [r3, #56]	; 0x38
 80054dc:	60fb      	str	r3, [r7, #12]

  /* Set SAI error code */
  hsai->ErrorCode |= HAL_SAI_ERROR_DMA;
 80054de:	68fb      	ldr	r3, [r7, #12]
 80054e0:	f8d3 3084 	ldr.w	r3, [r3, #132]	; 0x84
 80054e4:	f043 0280 	orr.w	r2, r3, #128	; 0x80
 80054e8:	68fb      	ldr	r3, [r7, #12]
 80054ea:	f8c3 2084 	str.w	r2, [r3, #132]	; 0x84

  if ((hsai->hdmatx->ErrorCode == HAL_DMA_ERROR_TE) || (hsai->hdmarx->ErrorCode == HAL_DMA_ERROR_TE))
 80054ee:	68fb      	ldr	r3, [r7, #12]
 80054f0:	6f1b      	ldr	r3, [r3, #112]	; 0x70
 80054f2:	6d5b      	ldr	r3, [r3, #84]	; 0x54
 80054f4:	2b01      	cmp	r3, #1
 80054f6:	d004      	beq.n	8005502 <SAI_DMAError+0x32>
 80054f8:	68fb      	ldr	r3, [r7, #12]
 80054fa:	6f5b      	ldr	r3, [r3, #116]	; 0x74
 80054fc:	6d5b      	ldr	r3, [r3, #84]	; 0x54
 80054fe:	2b01      	cmp	r3, #1
 8005500:	d112      	bne.n	8005528 <SAI_DMAError+0x58>
  {
    /* Disable the SAI DMA request */
    hsai->Instance->CR1 &= ~SAI_xCR1_DMAEN;
 8005502:	68fb      	ldr	r3, [r7, #12]
 8005504:	681b      	ldr	r3, [r3, #0]
 8005506:	681a      	ldr	r2, [r3, #0]
 8005508:	68fb      	ldr	r3, [r7, #12]
 800550a:	681b      	ldr	r3, [r3, #0]
 800550c:	f422 3200 	bic.w	r2, r2, #131072	; 0x20000
 8005510:	601a      	str	r2, [r3, #0]

    /* Disable SAI peripheral */
    SAI_Disable(hsai);
 8005512:	68f8      	ldr	r0, [r7, #12]
 8005514:	f7ff ff66 	bl	80053e4 <SAI_Disable>

    /* Set the SAI state ready to be able to start again the process */
    hsai->State = HAL_SAI_STATE_READY;
 8005518:	68fb      	ldr	r3, [r7, #12]
 800551a:	2201      	movs	r2, #1
 800551c:	f883 2081 	strb.w	r2, [r3, #129]	; 0x81

    /* Initialize XferCount */
    hsai->XferCount = 0U;
 8005520:	68fb      	ldr	r3, [r7, #12]
 8005522:	2200      	movs	r2, #0
 8005524:	f8a3 206e 	strh.w	r2, [r3, #110]	; 0x6e
  }
  /* SAI error Callback */
#if (USE_HAL_SAI_REGISTER_CALLBACKS == 1)
  hsai->ErrorCallback(hsai);
#else
  HAL_SAI_ErrorCallback(hsai);
 8005528:	68f8      	ldr	r0, [r7, #12]
 800552a:	f7ff fded 	bl	8005108 <HAL_SAI_ErrorCallback>
#endif /* USE_HAL_SAI_REGISTER_CALLBACKS */
}
 800552e:	bf00      	nop
 8005530:	3710      	adds	r7, #16
 8005532:	46bd      	mov	sp, r7
 8005534:	bd80      	pop	{r7, pc}
	...

08005538 <SAI_BlockSynchroConfig>:
  * @param  hsai pointer to a SAI_HandleTypeDef structure that contains
  *               the configuration information for SAI module.
  * @retval SAI Clock Input
  */
void SAI_BlockSynchroConfig(SAI_HandleTypeDef *hsai)
{
 8005538:	b480      	push	{r7}
 800553a:	b085      	sub	sp, #20
 800553c:	af00      	add	r7, sp, #0
 800553e:	6078      	str	r0, [r7, #4]
  uint32_t tmpregisterGCR;

#if defined(STM32F446xx)
  /* This setting must be done with both audio block (A & B) disabled         */
  switch (hsai->Init.SynchroExt)
 8005540:	687b      	ldr	r3, [r7, #4]
 8005542:	68db      	ldr	r3, [r3, #12]
 8005544:	2b02      	cmp	r3, #2
 8005546:	d00c      	beq.n	8005562 <SAI_BlockSynchroConfig+0x2a>
 8005548:	2b02      	cmp	r3, #2
 800554a:	d80d      	bhi.n	8005568 <SAI_BlockSynchroConfig+0x30>
 800554c:	2b00      	cmp	r3, #0
 800554e:	d002      	beq.n	8005556 <SAI_BlockSynchroConfig+0x1e>
 8005550:	2b01      	cmp	r3, #1
 8005552:	d003      	beq.n	800555c <SAI_BlockSynchroConfig+0x24>
 8005554:	e008      	b.n	8005568 <SAI_BlockSynchroConfig+0x30>
  {
    case SAI_SYNCEXT_DISABLE :
      tmpregisterGCR = 0U;
 8005556:	2300      	movs	r3, #0
 8005558:	60fb      	str	r3, [r7, #12]
      break;
 800555a:	e008      	b.n	800556e <SAI_BlockSynchroConfig+0x36>
    case SAI_SYNCEXT_OUTBLOCKA_ENABLE :
      tmpregisterGCR = SAI_GCR_SYNCOUT_0;
 800555c:	2310      	movs	r3, #16
 800555e:	60fb      	str	r3, [r7, #12]
      break;
 8005560:	e005      	b.n	800556e <SAI_BlockSynchroConfig+0x36>
    case SAI_SYNCEXT_OUTBLOCKB_ENABLE :
      tmpregisterGCR = SAI_GCR_SYNCOUT_1;
 8005562:	2320      	movs	r3, #32
 8005564:	60fb      	str	r3, [r7, #12]
      break;
 8005566:	e002      	b.n	800556e <SAI_BlockSynchroConfig+0x36>
    default:
      tmpregisterGCR = 0U;
 8005568:	2300      	movs	r3, #0
 800556a:	60fb      	str	r3, [r7, #12]
      break;
 800556c:	bf00      	nop
  }

  if ((hsai->Init.Synchro) == SAI_SYNCHRONOUS_EXT_SAI2)
 800556e:	687b      	ldr	r3, [r7, #4]
 8005570:	689b      	ldr	r3, [r3, #8]
 8005572:	2b03      	cmp	r3, #3
 8005574:	d103      	bne.n	800557e <SAI_BlockSynchroConfig+0x46>
  {
    tmpregisterGCR |= SAI_GCR_SYNCIN_0;
 8005576:	68fb      	ldr	r3, [r7, #12]
 8005578:	f043 0301 	orr.w	r3, r3, #1
 800557c:	60fb      	str	r3, [r7, #12]
  }

  if ((hsai->Instance == SAI1_Block_A) || (hsai->Instance == SAI1_Block_B))
 800557e:	687b      	ldr	r3, [r7, #4]
 8005580:	681b      	ldr	r3, [r3, #0]
 8005582:	4a0b      	ldr	r2, [pc, #44]	; (80055b0 <SAI_BlockSynchroConfig+0x78>)
 8005584:	4293      	cmp	r3, r2
 8005586:	d004      	beq.n	8005592 <SAI_BlockSynchroConfig+0x5a>
 8005588:	687b      	ldr	r3, [r7, #4]
 800558a:	681b      	ldr	r3, [r3, #0]
 800558c:	4a09      	ldr	r2, [pc, #36]	; (80055b4 <SAI_BlockSynchroConfig+0x7c>)
 800558e:	4293      	cmp	r3, r2
 8005590:	d103      	bne.n	800559a <SAI_BlockSynchroConfig+0x62>
  {
    SAI1->GCR = tmpregisterGCR;
 8005592:	4a09      	ldr	r2, [pc, #36]	; (80055b8 <SAI_BlockSynchroConfig+0x80>)
 8005594:	68fb      	ldr	r3, [r7, #12]
 8005596:	6013      	str	r3, [r2, #0]
 8005598:	e003      	b.n	80055a2 <SAI_BlockSynchroConfig+0x6a>
  }
  else
  {
    SAI2->GCR = tmpregisterGCR;
 800559a:	4a08      	ldr	r2, [pc, #32]	; (80055bc <SAI_BlockSynchroConfig+0x84>)
 800559c:	68fb      	ldr	r3, [r7, #12]
 800559e:	6013      	str	r3, [r2, #0]
      tmpregisterGCR = 0U;
      break;
  }
  SAI1->GCR = tmpregisterGCR;
#endif /* STM32F427xx || STM32F437xx || STM32F429xx || STM32F439xx || STM32F469xx || STM32F479xx || STM32F413xx || STM32F423xx */
}
 80055a0:	bf00      	nop
 80055a2:	bf00      	nop
 80055a4:	3714      	adds	r7, #20
 80055a6:	46bd      	mov	sp, r7
 80055a8:	f85d 7b04 	ldr.w	r7, [sp], #4
 80055ac:	4770      	bx	lr
 80055ae:	bf00      	nop
 80055b0:	40015804 	.word	0x40015804
 80055b4:	40015824 	.word	0x40015824
 80055b8:	40015800 	.word	0x40015800
 80055bc:	40015c00 	.word	0x40015c00

080055c0 <SAI_GetInputClock>:
* @param  hsai pointer to a SAI_HandleTypeDef structure that contains
*               the configuration information for SAI module.
* @retval SAI Clock Input
*/
uint32_t SAI_GetInputClock(SAI_HandleTypeDef *hsai)
{
 80055c0:	b580      	push	{r7, lr}
 80055c2:	b084      	sub	sp, #16
 80055c4:	af00      	add	r7, sp, #0
 80055c6:	6078      	str	r0, [r7, #4]
  /* This variable used to store the SAI_CK_x (value in Hz) */
  uint32_t saiclocksource = 0U;
 80055c8:	2300      	movs	r3, #0
 80055ca:	60fb      	str	r3, [r7, #12]

#if defined(STM32F446xx)
  if ((hsai->Instance == SAI1_Block_A) || (hsai->Instance == SAI1_Block_B))
 80055cc:	687b      	ldr	r3, [r7, #4]
 80055ce:	681b      	ldr	r3, [r3, #0]
 80055d0:	4a0a      	ldr	r2, [pc, #40]	; (80055fc <SAI_GetInputClock+0x3c>)
 80055d2:	4293      	cmp	r3, r2
 80055d4:	d004      	beq.n	80055e0 <SAI_GetInputClock+0x20>
 80055d6:	687b      	ldr	r3, [r7, #4]
 80055d8:	681b      	ldr	r3, [r3, #0]
 80055da:	4a09      	ldr	r2, [pc, #36]	; (8005600 <SAI_GetInputClock+0x40>)
 80055dc:	4293      	cmp	r3, r2
 80055de:	d104      	bne.n	80055ea <SAI_GetInputClock+0x2a>
  {
    saiclocksource = HAL_RCCEx_GetPeriphCLKFreq(RCC_PERIPHCLK_SAI1);
 80055e0:	2004      	movs	r0, #4
 80055e2:	f7fe fd17 	bl	8004014 <HAL_RCCEx_GetPeriphCLKFreq>
 80055e6:	60f8      	str	r0, [r7, #12]
 80055e8:	e003      	b.n	80055f2 <SAI_GetInputClock+0x32>
  }
  else /* SAI2_Block_A || SAI2_Block_B*/
  {
    saiclocksource = HAL_RCCEx_GetPeriphCLKFreq(RCC_PERIPHCLK_SAI2);
 80055ea:	2008      	movs	r0, #8
 80055ec:	f7fe fd12 	bl	8004014 <HAL_RCCEx_GetPeriphCLKFreq>
 80055f0:	60f8      	str	r0, [r7, #12]
    saiclocksource = EXTERNAL_CLOCK_VALUE;
  }
#endif /* STM32F413xx || STM32F423xx */
#endif /* STM32F427xx || STM32F437xx || STM32F429xx || STM32F439xx || STM32F469xx || STM32F479xx || STM32F413xx || STM32F423xx */
  /* the return result is the value of SAI clock */
  return saiclocksource;
 80055f2:	68fb      	ldr	r3, [r7, #12]
}
 80055f4:	4618      	mov	r0, r3
 80055f6:	3710      	adds	r7, #16
 80055f8:	46bd      	mov	sp, r7
 80055fa:	bd80      	pop	{r7, pc}
 80055fc:	40015804 	.word	0x40015804
 8005600:	40015824 	.word	0x40015824

08005604 <HAL_SPI_Init>:
  * @param  hspi pointer to a SPI_HandleTypeDef structure that contains
  *               the configuration information for SPI module.
  * @retval HAL status
  */
HAL_StatusTypeDef HAL_SPI_Init(SPI_HandleTypeDef *hspi)
{
 8005604:	b580      	push	{r7, lr}
 8005606:	b082      	sub	sp, #8
 8005608:	af00      	add	r7, sp, #0
 800560a:	6078      	str	r0, [r7, #4]
  /* Check the SPI handle allocation */
  if (hspi == NULL)
 800560c:	687b      	ldr	r3, [r7, #4]
 800560e:	2b00      	cmp	r3, #0
 8005610:	d101      	bne.n	8005616 <HAL_SPI_Init+0x12>
  {
    return HAL_ERROR;
 8005612:	2301      	movs	r3, #1
 8005614:	e07b      	b.n	800570e <HAL_SPI_Init+0x10a>
  assert_param(IS_SPI_DATASIZE(hspi->Init.DataSize));
  assert_param(IS_SPI_NSS(hspi->Init.NSS));
  assert_param(IS_SPI_BAUDRATE_PRESCALER(hspi->Init.BaudRatePrescaler));
  assert_param(IS_SPI_FIRST_BIT(hspi->Init.FirstBit));
  assert_param(IS_SPI_TIMODE(hspi->Init.TIMode));
  if (hspi->Init.TIMode == SPI_TIMODE_DISABLE)
 8005616:	687b      	ldr	r3, [r7, #4]
 8005618:	6a5b      	ldr	r3, [r3, #36]	; 0x24
 800561a:	2b00      	cmp	r3, #0
 800561c:	d108      	bne.n	8005630 <HAL_SPI_Init+0x2c>
  {
    assert_param(IS_SPI_CPOL(hspi->Init.CLKPolarity));
    assert_param(IS_SPI_CPHA(hspi->Init.CLKPhase));

    if (hspi->Init.Mode == SPI_MODE_MASTER)
 800561e:	687b      	ldr	r3, [r7, #4]
 8005620:	685b      	ldr	r3, [r3, #4]
 8005622:	f5b3 7f82 	cmp.w	r3, #260	; 0x104
 8005626:	d009      	beq.n	800563c <HAL_SPI_Init+0x38>
      assert_param(IS_SPI_BAUDRATE_PRESCALER(hspi->Init.BaudRatePrescaler));
    }
    else
    {
      /* Baudrate prescaler not use in Motoraola Slave mode. force to default value */
      hspi->Init.BaudRatePrescaler = SPI_BAUDRATEPRESCALER_2;
 8005628:	687b      	ldr	r3, [r7, #4]
 800562a:	2200      	movs	r2, #0
 800562c:	61da      	str	r2, [r3, #28]
 800562e:	e005      	b.n	800563c <HAL_SPI_Init+0x38>
  else
  {
    assert_param(IS_SPI_BAUDRATE_PRESCALER(hspi->Init.BaudRatePrescaler));

    /* Force polarity and phase to TI protocaol requirements */
    hspi->Init.CLKPolarity = SPI_POLARITY_LOW;
 8005630:	687b      	ldr	r3, [r7, #4]
 8005632:	2200      	movs	r2, #0
 8005634:	611a      	str	r2, [r3, #16]
    hspi->Init.CLKPhase    = SPI_PHASE_1EDGE;
 8005636:	687b      	ldr	r3, [r7, #4]
 8005638:	2200      	movs	r2, #0
 800563a:	615a      	str	r2, [r3, #20]
  if (hspi->Init.CRCCalculation == SPI_CRCCALCULATION_ENABLE)
  {
    assert_param(IS_SPI_CRC_POLYNOMIAL(hspi->Init.CRCPolynomial));
  }
#else
  hspi->Init.CRCCalculation = SPI_CRCCALCULATION_DISABLE;
 800563c:	687b      	ldr	r3, [r7, #4]
 800563e:	2200      	movs	r2, #0
 8005640:	629a      	str	r2, [r3, #40]	; 0x28
#endif /* USE_SPI_CRC */

  if (hspi->State == HAL_SPI_STATE_RESET)
 8005642:	687b      	ldr	r3, [r7, #4]
 8005644:	f893 3051 	ldrb.w	r3, [r3, #81]	; 0x51
 8005648:	b2db      	uxtb	r3, r3
 800564a:	2b00      	cmp	r3, #0
 800564c:	d106      	bne.n	800565c <HAL_SPI_Init+0x58>
  {
    /* Allocate lock resource and initialize it */
    hspi->Lock = HAL_UNLOCKED;
 800564e:	687b      	ldr	r3, [r7, #4]
 8005650:	2200      	movs	r2, #0
 8005652:	f883 2050 	strb.w	r2, [r3, #80]	; 0x50

    /* Init the low level hardware : GPIO, CLOCK, NVIC... */
    hspi->MspInitCallback(hspi);
#else
    /* Init the low level hardware : GPIO, CLOCK, NVIC... */
    HAL_SPI_MspInit(hspi);
 8005656:	6878      	ldr	r0, [r7, #4]
 8005658:	f7fc fe04 	bl	8002264 <HAL_SPI_MspInit>
#endif /* USE_HAL_SPI_REGISTER_CALLBACKS */
  }

  hspi->State = HAL_SPI_STATE_BUSY;
 800565c:	687b      	ldr	r3, [r7, #4]
 800565e:	2202      	movs	r2, #2
 8005660:	f883 2051 	strb.w	r2, [r3, #81]	; 0x51

  /* Disable the selected SPI peripheral */
  __HAL_SPI_DISABLE(hspi);
 8005664:	687b      	ldr	r3, [r7, #4]
 8005666:	681b      	ldr	r3, [r3, #0]
 8005668:	681a      	ldr	r2, [r3, #0]
 800566a:	687b      	ldr	r3, [r7, #4]
 800566c:	681b      	ldr	r3, [r3, #0]
 800566e:	f022 0240 	bic.w	r2, r2, #64	; 0x40
 8005672:	601a      	str	r2, [r3, #0]

  /*----------------------- SPIx CR1 & CR2 Configuration ---------------------*/
  /* Configure : SPI Mode, Communication Mode, Data size, Clock polarity and phase, NSS management,
  Communication speed, First bit and CRC calculation state */
  WRITE_REG(hspi->Instance->CR1, ((hspi->Init.Mode & (SPI_CR1_MSTR | SPI_CR1_SSI)) |
 8005674:	687b      	ldr	r3, [r7, #4]
 8005676:	685b      	ldr	r3, [r3, #4]
 8005678:	f403 7282 	and.w	r2, r3, #260	; 0x104
 800567c:	687b      	ldr	r3, [r7, #4]
 800567e:	689b      	ldr	r3, [r3, #8]
 8005680:	f403 4304 	and.w	r3, r3, #33792	; 0x8400
 8005684:	431a      	orrs	r2, r3
 8005686:	687b      	ldr	r3, [r7, #4]
 8005688:	68db      	ldr	r3, [r3, #12]
 800568a:	f403 6300 	and.w	r3, r3, #2048	; 0x800
 800568e:	431a      	orrs	r2, r3
 8005690:	687b      	ldr	r3, [r7, #4]
 8005692:	691b      	ldr	r3, [r3, #16]
 8005694:	f003 0302 	and.w	r3, r3, #2
 8005698:	431a      	orrs	r2, r3
 800569a:	687b      	ldr	r3, [r7, #4]
 800569c:	695b      	ldr	r3, [r3, #20]
 800569e:	f003 0301 	and.w	r3, r3, #1
 80056a2:	431a      	orrs	r2, r3
 80056a4:	687b      	ldr	r3, [r7, #4]
 80056a6:	699b      	ldr	r3, [r3, #24]
 80056a8:	f403 7300 	and.w	r3, r3, #512	; 0x200
 80056ac:	431a      	orrs	r2, r3
 80056ae:	687b      	ldr	r3, [r7, #4]
 80056b0:	69db      	ldr	r3, [r3, #28]
 80056b2:	f003 0338 	and.w	r3, r3, #56	; 0x38
 80056b6:	431a      	orrs	r2, r3
 80056b8:	687b      	ldr	r3, [r7, #4]
 80056ba:	6a1b      	ldr	r3, [r3, #32]
 80056bc:	f003 0380 	and.w	r3, r3, #128	; 0x80
 80056c0:	ea42 0103 	orr.w	r1, r2, r3
 80056c4:	687b      	ldr	r3, [r7, #4]
 80056c6:	6a9b      	ldr	r3, [r3, #40]	; 0x28
 80056c8:	f403 5200 	and.w	r2, r3, #8192	; 0x2000
 80056cc:	687b      	ldr	r3, [r7, #4]
 80056ce:	681b      	ldr	r3, [r3, #0]
 80056d0:	430a      	orrs	r2, r1
 80056d2:	601a      	str	r2, [r3, #0]
                                  (hspi->Init.BaudRatePrescaler & SPI_CR1_BR_Msk) |
                                  (hspi->Init.FirstBit  & SPI_CR1_LSBFIRST) |
                                  (hspi->Init.CRCCalculation & SPI_CR1_CRCEN)));

  /* Configure : NSS management, TI Mode */
  WRITE_REG(hspi->Instance->CR2, (((hspi->Init.NSS >> 16U) & SPI_CR2_SSOE) | (hspi->Init.TIMode & SPI_CR2_FRF)));
 80056d4:	687b      	ldr	r3, [r7, #4]
 80056d6:	699b      	ldr	r3, [r3, #24]
 80056d8:	0c1b      	lsrs	r3, r3, #16
 80056da:	f003 0104 	and.w	r1, r3, #4
 80056de:	687b      	ldr	r3, [r7, #4]
 80056e0:	6a5b      	ldr	r3, [r3, #36]	; 0x24
 80056e2:	f003 0210 	and.w	r2, r3, #16
 80056e6:	687b      	ldr	r3, [r7, #4]
 80056e8:	681b      	ldr	r3, [r3, #0]
 80056ea:	430a      	orrs	r2, r1
 80056ec:	605a      	str	r2, [r3, #4]
  }
#endif /* USE_SPI_CRC */

#if defined(SPI_I2SCFGR_I2SMOD)
  /* Activate the SPI mode (Make sure that I2SMOD bit in I2SCFGR register is reset) */
  CLEAR_BIT(hspi->Instance->I2SCFGR, SPI_I2SCFGR_I2SMOD);
 80056ee:	687b      	ldr	r3, [r7, #4]
 80056f0:	681b      	ldr	r3, [r3, #0]
 80056f2:	69da      	ldr	r2, [r3, #28]
 80056f4:	687b      	ldr	r3, [r7, #4]
 80056f6:	681b      	ldr	r3, [r3, #0]
 80056f8:	f422 6200 	bic.w	r2, r2, #2048	; 0x800
 80056fc:	61da      	str	r2, [r3, #28]
#endif /* SPI_I2SCFGR_I2SMOD */

  hspi->ErrorCode = HAL_SPI_ERROR_NONE;
 80056fe:	687b      	ldr	r3, [r7, #4]
 8005700:	2200      	movs	r2, #0
 8005702:	655a      	str	r2, [r3, #84]	; 0x54
  hspi->State     = HAL_SPI_STATE_READY;
 8005704:	687b      	ldr	r3, [r7, #4]
 8005706:	2201      	movs	r2, #1
 8005708:	f883 2051 	strb.w	r2, [r3, #81]	; 0x51

  return HAL_OK;
 800570c:	2300      	movs	r3, #0
}
 800570e:	4618      	mov	r0, r3
 8005710:	3708      	adds	r7, #8
 8005712:	46bd      	mov	sp, r7
 8005714:	bd80      	pop	{r7, pc}

08005716 <HAL_SPI_Transmit>:
  * @param  Size amount of data to be sent
  * @param  Timeout Timeout duration
  * @retval HAL status
  */
HAL_StatusTypeDef HAL_SPI_Transmit(SPI_HandleTypeDef *hspi, uint8_t *pData, uint16_t Size, uint32_t Timeout)
{
 8005716:	b580      	push	{r7, lr}
 8005718:	b088      	sub	sp, #32
 800571a:	af00      	add	r7, sp, #0
 800571c:	60f8      	str	r0, [r7, #12]
 800571e:	60b9      	str	r1, [r7, #8]
 8005720:	603b      	str	r3, [r7, #0]
 8005722:	4613      	mov	r3, r2
 8005724:	80fb      	strh	r3, [r7, #6]
  uint32_t tickstart;
  HAL_StatusTypeDef errorcode = HAL_OK;
 8005726:	2300      	movs	r3, #0
 8005728:	77fb      	strb	r3, [r7, #31]

  /* Check Direction parameter */
  assert_param(IS_SPI_DIRECTION_2LINES_OR_1LINE(hspi->Init.Direction));

  /* Process Locked */
  __HAL_LOCK(hspi);
 800572a:	68fb      	ldr	r3, [r7, #12]
 800572c:	f893 3050 	ldrb.w	r3, [r3, #80]	; 0x50
 8005730:	2b01      	cmp	r3, #1
 8005732:	d101      	bne.n	8005738 <HAL_SPI_Transmit+0x22>
 8005734:	2302      	movs	r3, #2
 8005736:	e126      	b.n	8005986 <HAL_SPI_Transmit+0x270>
 8005738:	68fb      	ldr	r3, [r7, #12]
 800573a:	2201      	movs	r2, #1
 800573c:	f883 2050 	strb.w	r2, [r3, #80]	; 0x50

  /* Init tickstart for timeout management*/
  tickstart = HAL_GetTick();
 8005740:	f7fd f918 	bl	8002974 <HAL_GetTick>
 8005744:	61b8      	str	r0, [r7, #24]
  initial_TxXferCount = Size;
 8005746:	88fb      	ldrh	r3, [r7, #6]
 8005748:	82fb      	strh	r3, [r7, #22]

  if (hspi->State != HAL_SPI_STATE_READY)
 800574a:	68fb      	ldr	r3, [r7, #12]
 800574c:	f893 3051 	ldrb.w	r3, [r3, #81]	; 0x51
 8005750:	b2db      	uxtb	r3, r3
 8005752:	2b01      	cmp	r3, #1
 8005754:	d002      	beq.n	800575c <HAL_SPI_Transmit+0x46>
  {
    errorcode = HAL_BUSY;
 8005756:	2302      	movs	r3, #2
 8005758:	77fb      	strb	r3, [r7, #31]
    goto error;
 800575a:	e10b      	b.n	8005974 <HAL_SPI_Transmit+0x25e>
  }

  if ((pData == NULL) || (Size == 0U))
 800575c:	68bb      	ldr	r3, [r7, #8]
 800575e:	2b00      	cmp	r3, #0
 8005760:	d002      	beq.n	8005768 <HAL_SPI_Transmit+0x52>
 8005762:	88fb      	ldrh	r3, [r7, #6]
 8005764:	2b00      	cmp	r3, #0
 8005766:	d102      	bne.n	800576e <HAL_SPI_Transmit+0x58>
  {
    errorcode = HAL_ERROR;
 8005768:	2301      	movs	r3, #1
 800576a:	77fb      	strb	r3, [r7, #31]
    goto error;
 800576c:	e102      	b.n	8005974 <HAL_SPI_Transmit+0x25e>
  }

  /* Set the transaction information */
  hspi->State       = HAL_SPI_STATE_BUSY_TX;
 800576e:	68fb      	ldr	r3, [r7, #12]
 8005770:	2203      	movs	r2, #3
 8005772:	f883 2051 	strb.w	r2, [r3, #81]	; 0x51
  hspi->ErrorCode   = HAL_SPI_ERROR_NONE;
 8005776:	68fb      	ldr	r3, [r7, #12]
 8005778:	2200      	movs	r2, #0
 800577a:	655a      	str	r2, [r3, #84]	; 0x54
  hspi->pTxBuffPtr  = (uint8_t *)pData;
 800577c:	68fb      	ldr	r3, [r7, #12]
 800577e:	68ba      	ldr	r2, [r7, #8]
 8005780:	631a      	str	r2, [r3, #48]	; 0x30
  hspi->TxXferSize  = Size;
 8005782:	68fb      	ldr	r3, [r7, #12]
 8005784:	88fa      	ldrh	r2, [r7, #6]
 8005786:	869a      	strh	r2, [r3, #52]	; 0x34
  hspi->TxXferCount = Size;
 8005788:	68fb      	ldr	r3, [r7, #12]
 800578a:	88fa      	ldrh	r2, [r7, #6]
 800578c:	86da      	strh	r2, [r3, #54]	; 0x36

  /*Init field not used in handle to zero */
  hspi->pRxBuffPtr  = (uint8_t *)NULL;
 800578e:	68fb      	ldr	r3, [r7, #12]
 8005790:	2200      	movs	r2, #0
 8005792:	639a      	str	r2, [r3, #56]	; 0x38
  hspi->RxXferSize  = 0U;
 8005794:	68fb      	ldr	r3, [r7, #12]
 8005796:	2200      	movs	r2, #0
 8005798:	879a      	strh	r2, [r3, #60]	; 0x3c
  hspi->RxXferCount = 0U;
 800579a:	68fb      	ldr	r3, [r7, #12]
 800579c:	2200      	movs	r2, #0
 800579e:	87da      	strh	r2, [r3, #62]	; 0x3e
  hspi->TxISR       = NULL;
 80057a0:	68fb      	ldr	r3, [r7, #12]
 80057a2:	2200      	movs	r2, #0
 80057a4:	645a      	str	r2, [r3, #68]	; 0x44
  hspi->RxISR       = NULL;
 80057a6:	68fb      	ldr	r3, [r7, #12]
 80057a8:	2200      	movs	r2, #0
 80057aa:	641a      	str	r2, [r3, #64]	; 0x40

  /* Configure communication direction : 1Line */
  if (hspi->Init.Direction == SPI_DIRECTION_1LINE)
 80057ac:	68fb      	ldr	r3, [r7, #12]
 80057ae:	689b      	ldr	r3, [r3, #8]
 80057b0:	f5b3 4f00 	cmp.w	r3, #32768	; 0x8000
 80057b4:	d10f      	bne.n	80057d6 <HAL_SPI_Transmit+0xc0>
  {
    /* Disable SPI Peripheral before set 1Line direction (BIDIOE bit) */
    __HAL_SPI_DISABLE(hspi);
 80057b6:	68fb      	ldr	r3, [r7, #12]
 80057b8:	681b      	ldr	r3, [r3, #0]
 80057ba:	681a      	ldr	r2, [r3, #0]
 80057bc:	68fb      	ldr	r3, [r7, #12]
 80057be:	681b      	ldr	r3, [r3, #0]
 80057c0:	f022 0240 	bic.w	r2, r2, #64	; 0x40
 80057c4:	601a      	str	r2, [r3, #0]
    SPI_1LINE_TX(hspi);
 80057c6:	68fb      	ldr	r3, [r7, #12]
 80057c8:	681b      	ldr	r3, [r3, #0]
 80057ca:	681a      	ldr	r2, [r3, #0]
 80057cc:	68fb      	ldr	r3, [r7, #12]
 80057ce:	681b      	ldr	r3, [r3, #0]
 80057d0:	f442 4280 	orr.w	r2, r2, #16384	; 0x4000
 80057d4:	601a      	str	r2, [r3, #0]
    SPI_RESET_CRC(hspi);
  }
#endif /* USE_SPI_CRC */

  /* Check if the SPI is already enabled */
  if ((hspi->Instance->CR1 & SPI_CR1_SPE) != SPI_CR1_SPE)
 80057d6:	68fb      	ldr	r3, [r7, #12]
 80057d8:	681b      	ldr	r3, [r3, #0]
 80057da:	681b      	ldr	r3, [r3, #0]
 80057dc:	f003 0340 	and.w	r3, r3, #64	; 0x40
 80057e0:	2b40      	cmp	r3, #64	; 0x40
 80057e2:	d007      	beq.n	80057f4 <HAL_SPI_Transmit+0xde>
  {
    /* Enable SPI peripheral */
    __HAL_SPI_ENABLE(hspi);
 80057e4:	68fb      	ldr	r3, [r7, #12]
 80057e6:	681b      	ldr	r3, [r3, #0]
 80057e8:	681a      	ldr	r2, [r3, #0]
 80057ea:	68fb      	ldr	r3, [r7, #12]
 80057ec:	681b      	ldr	r3, [r3, #0]
 80057ee:	f042 0240 	orr.w	r2, r2, #64	; 0x40
 80057f2:	601a      	str	r2, [r3, #0]
  }

  /* Transmit data in 16 Bit mode */
  if (hspi->Init.DataSize == SPI_DATASIZE_16BIT)
 80057f4:	68fb      	ldr	r3, [r7, #12]
 80057f6:	68db      	ldr	r3, [r3, #12]
 80057f8:	f5b3 6f00 	cmp.w	r3, #2048	; 0x800
 80057fc:	d14b      	bne.n	8005896 <HAL_SPI_Transmit+0x180>
  {
    if ((hspi->Init.Mode == SPI_MODE_SLAVE) || (initial_TxXferCount == 0x01U))
 80057fe:	68fb      	ldr	r3, [r7, #12]
 8005800:	685b      	ldr	r3, [r3, #4]
 8005802:	2b00      	cmp	r3, #0
 8005804:	d002      	beq.n	800580c <HAL_SPI_Transmit+0xf6>
 8005806:	8afb      	ldrh	r3, [r7, #22]
 8005808:	2b01      	cmp	r3, #1
 800580a:	d13e      	bne.n	800588a <HAL_SPI_Transmit+0x174>
    {
      hspi->Instance->DR = *((uint16_t *)hspi->pTxBuffPtr);
 800580c:	68fb      	ldr	r3, [r7, #12]
 800580e:	6b1b      	ldr	r3, [r3, #48]	; 0x30
 8005810:	881a      	ldrh	r2, [r3, #0]
 8005812:	68fb      	ldr	r3, [r7, #12]
 8005814:	681b      	ldr	r3, [r3, #0]
 8005816:	60da      	str	r2, [r3, #12]
      hspi->pTxBuffPtr += sizeof(uint16_t);
 8005818:	68fb      	ldr	r3, [r7, #12]
 800581a:	6b1b      	ldr	r3, [r3, #48]	; 0x30
 800581c:	1c9a      	adds	r2, r3, #2
 800581e:	68fb      	ldr	r3, [r7, #12]
 8005820:	631a      	str	r2, [r3, #48]	; 0x30
      hspi->TxXferCount--;
 8005822:	68fb      	ldr	r3, [r7, #12]
 8005824:	8edb      	ldrh	r3, [r3, #54]	; 0x36
 8005826:	b29b      	uxth	r3, r3
 8005828:	3b01      	subs	r3, #1
 800582a:	b29a      	uxth	r2, r3
 800582c:	68fb      	ldr	r3, [r7, #12]
 800582e:	86da      	strh	r2, [r3, #54]	; 0x36
    }
    /* Transmit data in 16 Bit mode */
    while (hspi->TxXferCount > 0U)
 8005830:	e02b      	b.n	800588a <HAL_SPI_Transmit+0x174>
    {
      /* Wait until TXE flag is set to send data */
      if (__HAL_SPI_GET_FLAG(hspi, SPI_FLAG_TXE))
 8005832:	68fb      	ldr	r3, [r7, #12]
 8005834:	681b      	ldr	r3, [r3, #0]
 8005836:	689b      	ldr	r3, [r3, #8]
 8005838:	f003 0302 	and.w	r3, r3, #2
 800583c:	2b02      	cmp	r3, #2
 800583e:	d112      	bne.n	8005866 <HAL_SPI_Transmit+0x150>
      {
        hspi->Instance->DR = *((uint16_t *)hspi->pTxBuffPtr);
 8005840:	68fb      	ldr	r3, [r7, #12]
 8005842:	6b1b      	ldr	r3, [r3, #48]	; 0x30
 8005844:	881a      	ldrh	r2, [r3, #0]
 8005846:	68fb      	ldr	r3, [r7, #12]
 8005848:	681b      	ldr	r3, [r3, #0]
 800584a:	60da      	str	r2, [r3, #12]
        hspi->pTxBuffPtr += sizeof(uint16_t);
 800584c:	68fb      	ldr	r3, [r7, #12]
 800584e:	6b1b      	ldr	r3, [r3, #48]	; 0x30
 8005850:	1c9a      	adds	r2, r3, #2
 8005852:	68fb      	ldr	r3, [r7, #12]
 8005854:	631a      	str	r2, [r3, #48]	; 0x30
        hspi->TxXferCount--;
 8005856:	68fb      	ldr	r3, [r7, #12]
 8005858:	8edb      	ldrh	r3, [r3, #54]	; 0x36
 800585a:	b29b      	uxth	r3, r3
 800585c:	3b01      	subs	r3, #1
 800585e:	b29a      	uxth	r2, r3
 8005860:	68fb      	ldr	r3, [r7, #12]
 8005862:	86da      	strh	r2, [r3, #54]	; 0x36
 8005864:	e011      	b.n	800588a <HAL_SPI_Transmit+0x174>
      }
      else
      {
        /* Timeout management */
        if ((((HAL_GetTick() - tickstart) >=  Timeout) && (Timeout != HAL_MAX_DELAY)) || (Timeout == 0U))
 8005866:	f7fd f885 	bl	8002974 <HAL_GetTick>
 800586a:	4602      	mov	r2, r0
 800586c:	69bb      	ldr	r3, [r7, #24]
 800586e:	1ad3      	subs	r3, r2, r3
 8005870:	683a      	ldr	r2, [r7, #0]
 8005872:	429a      	cmp	r2, r3
 8005874:	d803      	bhi.n	800587e <HAL_SPI_Transmit+0x168>
 8005876:	683b      	ldr	r3, [r7, #0]
 8005878:	f1b3 3fff 	cmp.w	r3, #4294967295	; 0xffffffff
 800587c:	d102      	bne.n	8005884 <HAL_SPI_Transmit+0x16e>
 800587e:	683b      	ldr	r3, [r7, #0]
 8005880:	2b00      	cmp	r3, #0
 8005882:	d102      	bne.n	800588a <HAL_SPI_Transmit+0x174>
        {
          errorcode = HAL_TIMEOUT;
 8005884:	2303      	movs	r3, #3
 8005886:	77fb      	strb	r3, [r7, #31]
          goto error;
 8005888:	e074      	b.n	8005974 <HAL_SPI_Transmit+0x25e>
    while (hspi->TxXferCount > 0U)
 800588a:	68fb      	ldr	r3, [r7, #12]
 800588c:	8edb      	ldrh	r3, [r3, #54]	; 0x36
 800588e:	b29b      	uxth	r3, r3
 8005890:	2b00      	cmp	r3, #0
 8005892:	d1ce      	bne.n	8005832 <HAL_SPI_Transmit+0x11c>
 8005894:	e04c      	b.n	8005930 <HAL_SPI_Transmit+0x21a>
    }
  }
  /* Transmit data in 8 Bit mode */
  else
  {
    if ((hspi->Init.Mode == SPI_MODE_SLAVE) || (initial_TxXferCount == 0x01U))
 8005896:	68fb      	ldr	r3, [r7, #12]
 8005898:	685b      	ldr	r3, [r3, #4]
 800589a:	2b00      	cmp	r3, #0
 800589c:	d002      	beq.n	80058a4 <HAL_SPI_Transmit+0x18e>
 800589e:	8afb      	ldrh	r3, [r7, #22]
 80058a0:	2b01      	cmp	r3, #1
 80058a2:	d140      	bne.n	8005926 <HAL_SPI_Transmit+0x210>
    {
      *((__IO uint8_t *)&hspi->Instance->DR) = (*hspi->pTxBuffPtr);
 80058a4:	68fb      	ldr	r3, [r7, #12]
 80058a6:	6b1a      	ldr	r2, [r3, #48]	; 0x30
 80058a8:	68fb      	ldr	r3, [r7, #12]
 80058aa:	681b      	ldr	r3, [r3, #0]
 80058ac:	330c      	adds	r3, #12
 80058ae:	7812      	ldrb	r2, [r2, #0]
 80058b0:	701a      	strb	r2, [r3, #0]
      hspi->pTxBuffPtr += sizeof(uint8_t);
 80058b2:	68fb      	ldr	r3, [r7, #12]
 80058b4:	6b1b      	ldr	r3, [r3, #48]	; 0x30
 80058b6:	1c5a      	adds	r2, r3, #1
 80058b8:	68fb      	ldr	r3, [r7, #12]
 80058ba:	631a      	str	r2, [r3, #48]	; 0x30
      hspi->TxXferCount--;
 80058bc:	68fb      	ldr	r3, [r7, #12]
 80058be:	8edb      	ldrh	r3, [r3, #54]	; 0x36
 80058c0:	b29b      	uxth	r3, r3
 80058c2:	3b01      	subs	r3, #1
 80058c4:	b29a      	uxth	r2, r3
 80058c6:	68fb      	ldr	r3, [r7, #12]
 80058c8:	86da      	strh	r2, [r3, #54]	; 0x36
    }
    while (hspi->TxXferCount > 0U)
 80058ca:	e02c      	b.n	8005926 <HAL_SPI_Transmit+0x210>
    {
      /* Wait until TXE flag is set to send data */
      if (__HAL_SPI_GET_FLAG(hspi, SPI_FLAG_TXE))
 80058cc:	68fb      	ldr	r3, [r7, #12]
 80058ce:	681b      	ldr	r3, [r3, #0]
 80058d0:	689b      	ldr	r3, [r3, #8]
 80058d2:	f003 0302 	and.w	r3, r3, #2
 80058d6:	2b02      	cmp	r3, #2
 80058d8:	d113      	bne.n	8005902 <HAL_SPI_Transmit+0x1ec>
      {
        *((__IO uint8_t *)&hspi->Instance->DR) = (*hspi->pTxBuffPtr);
 80058da:	68fb      	ldr	r3, [r7, #12]
 80058dc:	6b1a      	ldr	r2, [r3, #48]	; 0x30
 80058de:	68fb      	ldr	r3, [r7, #12]
 80058e0:	681b      	ldr	r3, [r3, #0]
 80058e2:	330c      	adds	r3, #12
 80058e4:	7812      	ldrb	r2, [r2, #0]
 80058e6:	701a      	strb	r2, [r3, #0]
        hspi->pTxBuffPtr += sizeof(uint8_t);
 80058e8:	68fb      	ldr	r3, [r7, #12]
 80058ea:	6b1b      	ldr	r3, [r3, #48]	; 0x30
 80058ec:	1c5a      	adds	r2, r3, #1
 80058ee:	68fb      	ldr	r3, [r7, #12]
 80058f0:	631a      	str	r2, [r3, #48]	; 0x30
        hspi->TxXferCount--;
 80058f2:	68fb      	ldr	r3, [r7, #12]
 80058f4:	8edb      	ldrh	r3, [r3, #54]	; 0x36
 80058f6:	b29b      	uxth	r3, r3
 80058f8:	3b01      	subs	r3, #1
 80058fa:	b29a      	uxth	r2, r3
 80058fc:	68fb      	ldr	r3, [r7, #12]
 80058fe:	86da      	strh	r2, [r3, #54]	; 0x36
 8005900:	e011      	b.n	8005926 <HAL_SPI_Transmit+0x210>
      }
      else
      {
        /* Timeout management */
        if ((((HAL_GetTick() - tickstart) >=  Timeout) && (Timeout != HAL_MAX_DELAY)) || (Timeout == 0U))
 8005902:	f7fd f837 	bl	8002974 <HAL_GetTick>
 8005906:	4602      	mov	r2, r0
 8005908:	69bb      	ldr	r3, [r7, #24]
 800590a:	1ad3      	subs	r3, r2, r3
 800590c:	683a      	ldr	r2, [r7, #0]
 800590e:	429a      	cmp	r2, r3
 8005910:	d803      	bhi.n	800591a <HAL_SPI_Transmit+0x204>
 8005912:	683b      	ldr	r3, [r7, #0]
 8005914:	f1b3 3fff 	cmp.w	r3, #4294967295	; 0xffffffff
 8005918:	d102      	bne.n	8005920 <HAL_SPI_Transmit+0x20a>
 800591a:	683b      	ldr	r3, [r7, #0]
 800591c:	2b00      	cmp	r3, #0
 800591e:	d102      	bne.n	8005926 <HAL_SPI_Transmit+0x210>
        {
          errorcode = HAL_TIMEOUT;
 8005920:	2303      	movs	r3, #3
 8005922:	77fb      	strb	r3, [r7, #31]
          goto error;
 8005924:	e026      	b.n	8005974 <HAL_SPI_Transmit+0x25e>
    while (hspi->TxXferCount > 0U)
 8005926:	68fb      	ldr	r3, [r7, #12]
 8005928:	8edb      	ldrh	r3, [r3, #54]	; 0x36
 800592a:	b29b      	uxth	r3, r3
 800592c:	2b00      	cmp	r3, #0
 800592e:	d1cd      	bne.n	80058cc <HAL_SPI_Transmit+0x1b6>
    SET_BIT(hspi->Instance->CR1, SPI_CR1_CRCNEXT);
  }
#endif /* USE_SPI_CRC */

  /* Check the end of the transaction */
  if (SPI_EndRxTxTransaction(hspi, Timeout, tickstart) != HAL_OK)
 8005930:	69ba      	ldr	r2, [r7, #24]
 8005932:	6839      	ldr	r1, [r7, #0]
 8005934:	68f8      	ldr	r0, [r7, #12]
 8005936:	f000 fbcb 	bl	80060d0 <SPI_EndRxTxTransaction>
 800593a:	4603      	mov	r3, r0
 800593c:	2b00      	cmp	r3, #0
 800593e:	d002      	beq.n	8005946 <HAL_SPI_Transmit+0x230>
  {
    hspi->ErrorCode = HAL_SPI_ERROR_FLAG;
 8005940:	68fb      	ldr	r3, [r7, #12]
 8005942:	2220      	movs	r2, #32
 8005944:	655a      	str	r2, [r3, #84]	; 0x54
  }

  /* Clear overrun flag in 2 Lines communication mode because received is not read */
  if (hspi->Init.Direction == SPI_DIRECTION_2LINES)
 8005946:	68fb      	ldr	r3, [r7, #12]
 8005948:	689b      	ldr	r3, [r3, #8]
 800594a:	2b00      	cmp	r3, #0
 800594c:	d10a      	bne.n	8005964 <HAL_SPI_Transmit+0x24e>
  {
    __HAL_SPI_CLEAR_OVRFLAG(hspi);
 800594e:	2300      	movs	r3, #0
 8005950:	613b      	str	r3, [r7, #16]
 8005952:	68fb      	ldr	r3, [r7, #12]
 8005954:	681b      	ldr	r3, [r3, #0]
 8005956:	68db      	ldr	r3, [r3, #12]
 8005958:	613b      	str	r3, [r7, #16]
 800595a:	68fb      	ldr	r3, [r7, #12]
 800595c:	681b      	ldr	r3, [r3, #0]
 800595e:	689b      	ldr	r3, [r3, #8]
 8005960:	613b      	str	r3, [r7, #16]
 8005962:	693b      	ldr	r3, [r7, #16]
  }

  if (hspi->ErrorCode != HAL_SPI_ERROR_NONE)
 8005964:	68fb      	ldr	r3, [r7, #12]
 8005966:	6d5b      	ldr	r3, [r3, #84]	; 0x54
 8005968:	2b00      	cmp	r3, #0
 800596a:	d002      	beq.n	8005972 <HAL_SPI_Transmit+0x25c>
  {
    errorcode = HAL_ERROR;
 800596c:	2301      	movs	r3, #1
 800596e:	77fb      	strb	r3, [r7, #31]
 8005970:	e000      	b.n	8005974 <HAL_SPI_Transmit+0x25e>
  }

error:
 8005972:	bf00      	nop
  hspi->State = HAL_SPI_STATE_READY;
 8005974:	68fb      	ldr	r3, [r7, #12]
 8005976:	2201      	movs	r2, #1
 8005978:	f883 2051 	strb.w	r2, [r3, #81]	; 0x51
  /* Process Unlocked */
  __HAL_UNLOCK(hspi);
 800597c:	68fb      	ldr	r3, [r7, #12]
 800597e:	2200      	movs	r2, #0
 8005980:	f883 2050 	strb.w	r2, [r3, #80]	; 0x50
  return errorcode;
 8005984:	7ffb      	ldrb	r3, [r7, #31]
}
 8005986:	4618      	mov	r0, r3
 8005988:	3720      	adds	r7, #32
 800598a:	46bd      	mov	sp, r7
 800598c:	bd80      	pop	{r7, pc}

0800598e <HAL_SPI_Receive>:
  * @param  Size amount of data to be received
  * @param  Timeout Timeout duration
  * @retval HAL status
  */
HAL_StatusTypeDef HAL_SPI_Receive(SPI_HandleTypeDef *hspi, uint8_t *pData, uint16_t Size, uint32_t Timeout)
{
 800598e:	b580      	push	{r7, lr}
 8005990:	b088      	sub	sp, #32
 8005992:	af02      	add	r7, sp, #8
 8005994:	60f8      	str	r0, [r7, #12]
 8005996:	60b9      	str	r1, [r7, #8]
 8005998:	603b      	str	r3, [r7, #0]
 800599a:	4613      	mov	r3, r2
 800599c:	80fb      	strh	r3, [r7, #6]
#if (USE_SPI_CRC != 0U)
  __IO uint32_t tmpreg = 0U;
#endif /* USE_SPI_CRC */
  uint32_t tickstart;
  HAL_StatusTypeDef errorcode = HAL_OK;
 800599e:	2300      	movs	r3, #0
 80059a0:	75fb      	strb	r3, [r7, #23]

  if ((hspi->Init.Mode == SPI_MODE_MASTER) && (hspi->Init.Direction == SPI_DIRECTION_2LINES))
 80059a2:	68fb      	ldr	r3, [r7, #12]
 80059a4:	685b      	ldr	r3, [r3, #4]
 80059a6:	f5b3 7f82 	cmp.w	r3, #260	; 0x104
 80059aa:	d112      	bne.n	80059d2 <HAL_SPI_Receive+0x44>
 80059ac:	68fb      	ldr	r3, [r7, #12]
 80059ae:	689b      	ldr	r3, [r3, #8]
 80059b0:	2b00      	cmp	r3, #0
 80059b2:	d10e      	bne.n	80059d2 <HAL_SPI_Receive+0x44>
  {
    hspi->State = HAL_SPI_STATE_BUSY_RX;
 80059b4:	68fb      	ldr	r3, [r7, #12]
 80059b6:	2204      	movs	r2, #4
 80059b8:	f883 2051 	strb.w	r2, [r3, #81]	; 0x51
    /* Call transmit-receive function to send Dummy data on Tx line and generate clock on CLK line */
    return HAL_SPI_TransmitReceive(hspi, pData, pData, Size, Timeout);
 80059bc:	88fa      	ldrh	r2, [r7, #6]
 80059be:	683b      	ldr	r3, [r7, #0]
 80059c0:	9300      	str	r3, [sp, #0]
 80059c2:	4613      	mov	r3, r2
 80059c4:	68ba      	ldr	r2, [r7, #8]
 80059c6:	68b9      	ldr	r1, [r7, #8]
 80059c8:	68f8      	ldr	r0, [r7, #12]
 80059ca:	f000 f8f1 	bl	8005bb0 <HAL_SPI_TransmitReceive>
 80059ce:	4603      	mov	r3, r0
 80059d0:	e0ea      	b.n	8005ba8 <HAL_SPI_Receive+0x21a>
  }

  /* Process Locked */
  __HAL_LOCK(hspi);
 80059d2:	68fb      	ldr	r3, [r7, #12]
 80059d4:	f893 3050 	ldrb.w	r3, [r3, #80]	; 0x50
 80059d8:	2b01      	cmp	r3, #1
 80059da:	d101      	bne.n	80059e0 <HAL_SPI_Receive+0x52>
 80059dc:	2302      	movs	r3, #2
 80059de:	e0e3      	b.n	8005ba8 <HAL_SPI_Receive+0x21a>
 80059e0:	68fb      	ldr	r3, [r7, #12]
 80059e2:	2201      	movs	r2, #1
 80059e4:	f883 2050 	strb.w	r2, [r3, #80]	; 0x50

  /* Init tickstart for timeout management*/
  tickstart = HAL_GetTick();
 80059e8:	f7fc ffc4 	bl	8002974 <HAL_GetTick>
 80059ec:	6138      	str	r0, [r7, #16]

  if (hspi->State != HAL_SPI_STATE_READY)
 80059ee:	68fb      	ldr	r3, [r7, #12]
 80059f0:	f893 3051 	ldrb.w	r3, [r3, #81]	; 0x51
 80059f4:	b2db      	uxtb	r3, r3
 80059f6:	2b01      	cmp	r3, #1
 80059f8:	d002      	beq.n	8005a00 <HAL_SPI_Receive+0x72>
  {
    errorcode = HAL_BUSY;
 80059fa:	2302      	movs	r3, #2
 80059fc:	75fb      	strb	r3, [r7, #23]
    goto error;
 80059fe:	e0ca      	b.n	8005b96 <HAL_SPI_Receive+0x208>
  }

  if ((pData == NULL) || (Size == 0U))
 8005a00:	68bb      	ldr	r3, [r7, #8]
 8005a02:	2b00      	cmp	r3, #0
 8005a04:	d002      	beq.n	8005a0c <HAL_SPI_Receive+0x7e>
 8005a06:	88fb      	ldrh	r3, [r7, #6]
 8005a08:	2b00      	cmp	r3, #0
 8005a0a:	d102      	bne.n	8005a12 <HAL_SPI_Receive+0x84>
  {
    errorcode = HAL_ERROR;
 8005a0c:	2301      	movs	r3, #1
 8005a0e:	75fb      	strb	r3, [r7, #23]
    goto error;
 8005a10:	e0c1      	b.n	8005b96 <HAL_SPI_Receive+0x208>
  }

  /* Set the transaction information */
  hspi->State       = HAL_SPI_STATE_BUSY_RX;
 8005a12:	68fb      	ldr	r3, [r7, #12]
 8005a14:	2204      	movs	r2, #4
 8005a16:	f883 2051 	strb.w	r2, [r3, #81]	; 0x51
  hspi->ErrorCode   = HAL_SPI_ERROR_NONE;
 8005a1a:	68fb      	ldr	r3, [r7, #12]
 8005a1c:	2200      	movs	r2, #0
 8005a1e:	655a      	str	r2, [r3, #84]	; 0x54
  hspi->pRxBuffPtr  = (uint8_t *)pData;
 8005a20:	68fb      	ldr	r3, [r7, #12]
 8005a22:	68ba      	ldr	r2, [r7, #8]
 8005a24:	639a      	str	r2, [r3, #56]	; 0x38
  hspi->RxXferSize  = Size;
 8005a26:	68fb      	ldr	r3, [r7, #12]
 8005a28:	88fa      	ldrh	r2, [r7, #6]
 8005a2a:	879a      	strh	r2, [r3, #60]	; 0x3c
  hspi->RxXferCount = Size;
 8005a2c:	68fb      	ldr	r3, [r7, #12]
 8005a2e:	88fa      	ldrh	r2, [r7, #6]
 8005a30:	87da      	strh	r2, [r3, #62]	; 0x3e

  /*Init field not used in handle to zero */
  hspi->pTxBuffPtr  = (uint8_t *)NULL;
 8005a32:	68fb      	ldr	r3, [r7, #12]
 8005a34:	2200      	movs	r2, #0
 8005a36:	631a      	str	r2, [r3, #48]	; 0x30
  hspi->TxXferSize  = 0U;
 8005a38:	68fb      	ldr	r3, [r7, #12]
 8005a3a:	2200      	movs	r2, #0
 8005a3c:	869a      	strh	r2, [r3, #52]	; 0x34
  hspi->TxXferCount = 0U;
 8005a3e:	68fb      	ldr	r3, [r7, #12]
 8005a40:	2200      	movs	r2, #0
 8005a42:	86da      	strh	r2, [r3, #54]	; 0x36
  hspi->RxISR       = NULL;
 8005a44:	68fb      	ldr	r3, [r7, #12]
 8005a46:	2200      	movs	r2, #0
 8005a48:	641a      	str	r2, [r3, #64]	; 0x40
  hspi->TxISR       = NULL;
 8005a4a:	68fb      	ldr	r3, [r7, #12]
 8005a4c:	2200      	movs	r2, #0
 8005a4e:	645a      	str	r2, [r3, #68]	; 0x44
    hspi->RxXferCount--;
  }
#endif /* USE_SPI_CRC */

  /* Configure communication direction: 1Line */
  if (hspi->Init.Direction == SPI_DIRECTION_1LINE)
 8005a50:	68fb      	ldr	r3, [r7, #12]
 8005a52:	689b      	ldr	r3, [r3, #8]
 8005a54:	f5b3 4f00 	cmp.w	r3, #32768	; 0x8000
 8005a58:	d10f      	bne.n	8005a7a <HAL_SPI_Receive+0xec>
  {
    /* Disable SPI Peripheral before set 1Line direction (BIDIOE bit) */
    __HAL_SPI_DISABLE(hspi);
 8005a5a:	68fb      	ldr	r3, [r7, #12]
 8005a5c:	681b      	ldr	r3, [r3, #0]
 8005a5e:	681a      	ldr	r2, [r3, #0]
 8005a60:	68fb      	ldr	r3, [r7, #12]
 8005a62:	681b      	ldr	r3, [r3, #0]
 8005a64:	f022 0240 	bic.w	r2, r2, #64	; 0x40
 8005a68:	601a      	str	r2, [r3, #0]
    SPI_1LINE_RX(hspi);
 8005a6a:	68fb      	ldr	r3, [r7, #12]
 8005a6c:	681b      	ldr	r3, [r3, #0]
 8005a6e:	681a      	ldr	r2, [r3, #0]
 8005a70:	68fb      	ldr	r3, [r7, #12]
 8005a72:	681b      	ldr	r3, [r3, #0]
 8005a74:	f422 4280 	bic.w	r2, r2, #16384	; 0x4000
 8005a78:	601a      	str	r2, [r3, #0]
  }

  /* Check if the SPI is already enabled */
  if ((hspi->Instance->CR1 & SPI_CR1_SPE) != SPI_CR1_SPE)
 8005a7a:	68fb      	ldr	r3, [r7, #12]
 8005a7c:	681b      	ldr	r3, [r3, #0]
 8005a7e:	681b      	ldr	r3, [r3, #0]
 8005a80:	f003 0340 	and.w	r3, r3, #64	; 0x40
 8005a84:	2b40      	cmp	r3, #64	; 0x40
 8005a86:	d007      	beq.n	8005a98 <HAL_SPI_Receive+0x10a>
  {
    /* Enable SPI peripheral */
    __HAL_SPI_ENABLE(hspi);
 8005a88:	68fb      	ldr	r3, [r7, #12]
 8005a8a:	681b      	ldr	r3, [r3, #0]
 8005a8c:	681a      	ldr	r2, [r3, #0]
 8005a8e:	68fb      	ldr	r3, [r7, #12]
 8005a90:	681b      	ldr	r3, [r3, #0]
 8005a92:	f042 0240 	orr.w	r2, r2, #64	; 0x40
 8005a96:	601a      	str	r2, [r3, #0]
  }

  /* Receive data in 8 Bit mode */
  if (hspi->Init.DataSize == SPI_DATASIZE_8BIT)
 8005a98:	68fb      	ldr	r3, [r7, #12]
 8005a9a:	68db      	ldr	r3, [r3, #12]
 8005a9c:	2b00      	cmp	r3, #0
 8005a9e:	d162      	bne.n	8005b66 <HAL_SPI_Receive+0x1d8>
  {
    /* Transfer loop */
    while (hspi->RxXferCount > 0U)
 8005aa0:	e02e      	b.n	8005b00 <HAL_SPI_Receive+0x172>
    {
      /* Check the RXNE flag */
      if (__HAL_SPI_GET_FLAG(hspi, SPI_FLAG_RXNE))
 8005aa2:	68fb      	ldr	r3, [r7, #12]
 8005aa4:	681b      	ldr	r3, [r3, #0]
 8005aa6:	689b      	ldr	r3, [r3, #8]
 8005aa8:	f003 0301 	and.w	r3, r3, #1
 8005aac:	2b01      	cmp	r3, #1
 8005aae:	d115      	bne.n	8005adc <HAL_SPI_Receive+0x14e>
      {
        /* read the received data */
        (* (uint8_t *)hspi->pRxBuffPtr) = *(__IO uint8_t *)&hspi->Instance->DR;
 8005ab0:	68fb      	ldr	r3, [r7, #12]
 8005ab2:	681b      	ldr	r3, [r3, #0]
 8005ab4:	f103 020c 	add.w	r2, r3, #12
 8005ab8:	68fb      	ldr	r3, [r7, #12]
 8005aba:	6b9b      	ldr	r3, [r3, #56]	; 0x38
 8005abc:	7812      	ldrb	r2, [r2, #0]
 8005abe:	b2d2      	uxtb	r2, r2
 8005ac0:	701a      	strb	r2, [r3, #0]
        hspi->pRxBuffPtr += sizeof(uint8_t);
 8005ac2:	68fb      	ldr	r3, [r7, #12]
 8005ac4:	6b9b      	ldr	r3, [r3, #56]	; 0x38
 8005ac6:	1c5a      	adds	r2, r3, #1
 8005ac8:	68fb      	ldr	r3, [r7, #12]
 8005aca:	639a      	str	r2, [r3, #56]	; 0x38
        hspi->RxXferCount--;
 8005acc:	68fb      	ldr	r3, [r7, #12]
 8005ace:	8fdb      	ldrh	r3, [r3, #62]	; 0x3e
 8005ad0:	b29b      	uxth	r3, r3
 8005ad2:	3b01      	subs	r3, #1
 8005ad4:	b29a      	uxth	r2, r3
 8005ad6:	68fb      	ldr	r3, [r7, #12]
 8005ad8:	87da      	strh	r2, [r3, #62]	; 0x3e
 8005ada:	e011      	b.n	8005b00 <HAL_SPI_Receive+0x172>
      }
      else
      {
        /* Timeout management */
        if ((((HAL_GetTick() - tickstart) >=  Timeout) && (Timeout != HAL_MAX_DELAY)) || (Timeout == 0U))
 8005adc:	f7fc ff4a 	bl	8002974 <HAL_GetTick>
 8005ae0:	4602      	mov	r2, r0
 8005ae2:	693b      	ldr	r3, [r7, #16]
 8005ae4:	1ad3      	subs	r3, r2, r3
 8005ae6:	683a      	ldr	r2, [r7, #0]
 8005ae8:	429a      	cmp	r2, r3
 8005aea:	d803      	bhi.n	8005af4 <HAL_SPI_Receive+0x166>
 8005aec:	683b      	ldr	r3, [r7, #0]
 8005aee:	f1b3 3fff 	cmp.w	r3, #4294967295	; 0xffffffff
 8005af2:	d102      	bne.n	8005afa <HAL_SPI_Receive+0x16c>
 8005af4:	683b      	ldr	r3, [r7, #0]
 8005af6:	2b00      	cmp	r3, #0
 8005af8:	d102      	bne.n	8005b00 <HAL_SPI_Receive+0x172>
        {
          errorcode = HAL_TIMEOUT;
 8005afa:	2303      	movs	r3, #3
 8005afc:	75fb      	strb	r3, [r7, #23]
          goto error;
 8005afe:	e04a      	b.n	8005b96 <HAL_SPI_Receive+0x208>
    while (hspi->RxXferCount > 0U)
 8005b00:	68fb      	ldr	r3, [r7, #12]
 8005b02:	8fdb      	ldrh	r3, [r3, #62]	; 0x3e
 8005b04:	b29b      	uxth	r3, r3
 8005b06:	2b00      	cmp	r3, #0
 8005b08:	d1cb      	bne.n	8005aa2 <HAL_SPI_Receive+0x114>
 8005b0a:	e031      	b.n	8005b70 <HAL_SPI_Receive+0x1e2>
  {
    /* Transfer loop */
    while (hspi->RxXferCount > 0U)
    {
      /* Check the RXNE flag */
      if (__HAL_SPI_GET_FLAG(hspi, SPI_FLAG_RXNE))
 8005b0c:	68fb      	ldr	r3, [r7, #12]
 8005b0e:	681b      	ldr	r3, [r3, #0]
 8005b10:	689b      	ldr	r3, [r3, #8]
 8005b12:	f003 0301 	and.w	r3, r3, #1
 8005b16:	2b01      	cmp	r3, #1
 8005b18:	d113      	bne.n	8005b42 <HAL_SPI_Receive+0x1b4>
      {
        *((uint16_t *)hspi->pRxBuffPtr) = (uint16_t)hspi->Instance->DR;
 8005b1a:	68fb      	ldr	r3, [r7, #12]
 8005b1c:	681b      	ldr	r3, [r3, #0]
 8005b1e:	68da      	ldr	r2, [r3, #12]
 8005b20:	68fb      	ldr	r3, [r7, #12]
 8005b22:	6b9b      	ldr	r3, [r3, #56]	; 0x38
 8005b24:	b292      	uxth	r2, r2
 8005b26:	801a      	strh	r2, [r3, #0]
        hspi->pRxBuffPtr += sizeof(uint16_t);
 8005b28:	68fb      	ldr	r3, [r7, #12]
 8005b2a:	6b9b      	ldr	r3, [r3, #56]	; 0x38
 8005b2c:	1c9a      	adds	r2, r3, #2
 8005b2e:	68fb      	ldr	r3, [r7, #12]
 8005b30:	639a      	str	r2, [r3, #56]	; 0x38
        hspi->RxXferCount--;
 8005b32:	68fb      	ldr	r3, [r7, #12]
 8005b34:	8fdb      	ldrh	r3, [r3, #62]	; 0x3e
 8005b36:	b29b      	uxth	r3, r3
 8005b38:	3b01      	subs	r3, #1
 8005b3a:	b29a      	uxth	r2, r3
 8005b3c:	68fb      	ldr	r3, [r7, #12]
 8005b3e:	87da      	strh	r2, [r3, #62]	; 0x3e
 8005b40:	e011      	b.n	8005b66 <HAL_SPI_Receive+0x1d8>
      }
      else
      {
        /* Timeout management */
        if ((((HAL_GetTick() - tickstart) >=  Timeout) && (Timeout != HAL_MAX_DELAY)) || (Timeout == 0U))
 8005b42:	f7fc ff17 	bl	8002974 <HAL_GetTick>
 8005b46:	4602      	mov	r2, r0
 8005b48:	693b      	ldr	r3, [r7, #16]
 8005b4a:	1ad3      	subs	r3, r2, r3
 8005b4c:	683a      	ldr	r2, [r7, #0]
 8005b4e:	429a      	cmp	r2, r3
 8005b50:	d803      	bhi.n	8005b5a <HAL_SPI_Receive+0x1cc>
 8005b52:	683b      	ldr	r3, [r7, #0]
 8005b54:	f1b3 3fff 	cmp.w	r3, #4294967295	; 0xffffffff
 8005b58:	d102      	bne.n	8005b60 <HAL_SPI_Receive+0x1d2>
 8005b5a:	683b      	ldr	r3, [r7, #0]
 8005b5c:	2b00      	cmp	r3, #0
 8005b5e:	d102      	bne.n	8005b66 <HAL_SPI_Receive+0x1d8>
        {
          errorcode = HAL_TIMEOUT;
 8005b60:	2303      	movs	r3, #3
 8005b62:	75fb      	strb	r3, [r7, #23]
          goto error;
 8005b64:	e017      	b.n	8005b96 <HAL_SPI_Receive+0x208>
    while (hspi->RxXferCount > 0U)
 8005b66:	68fb      	ldr	r3, [r7, #12]
 8005b68:	8fdb      	ldrh	r3, [r3, #62]	; 0x3e
 8005b6a:	b29b      	uxth	r3, r3
 8005b6c:	2b00      	cmp	r3, #0
 8005b6e:	d1cd      	bne.n	8005b0c <HAL_SPI_Receive+0x17e>
    UNUSED(tmpreg);
  }
#endif /* USE_SPI_CRC */

  /* Check the end of the transaction */
  if (SPI_EndRxTransaction(hspi, Timeout, tickstart) != HAL_OK)
 8005b70:	693a      	ldr	r2, [r7, #16]
 8005b72:	6839      	ldr	r1, [r7, #0]
 8005b74:	68f8      	ldr	r0, [r7, #12]
 8005b76:	f000 fa45 	bl	8006004 <SPI_EndRxTransaction>
 8005b7a:	4603      	mov	r3, r0
 8005b7c:	2b00      	cmp	r3, #0
 8005b7e:	d002      	beq.n	8005b86 <HAL_SPI_Receive+0x1f8>
  {
    hspi->ErrorCode = HAL_SPI_ERROR_FLAG;
 8005b80:	68fb      	ldr	r3, [r7, #12]
 8005b82:	2220      	movs	r2, #32
 8005b84:	655a      	str	r2, [r3, #84]	; 0x54
    SET_BIT(hspi->ErrorCode, HAL_SPI_ERROR_CRC);
    __HAL_SPI_CLEAR_CRCERRFLAG(hspi);
  }
#endif /* USE_SPI_CRC */

  if (hspi->ErrorCode != HAL_SPI_ERROR_NONE)
 8005b86:	68fb      	ldr	r3, [r7, #12]
 8005b88:	6d5b      	ldr	r3, [r3, #84]	; 0x54
 8005b8a:	2b00      	cmp	r3, #0
 8005b8c:	d002      	beq.n	8005b94 <HAL_SPI_Receive+0x206>
  {
    errorcode = HAL_ERROR;
 8005b8e:	2301      	movs	r3, #1
 8005b90:	75fb      	strb	r3, [r7, #23]
 8005b92:	e000      	b.n	8005b96 <HAL_SPI_Receive+0x208>
  }

error :
 8005b94:	bf00      	nop
  hspi->State = HAL_SPI_STATE_READY;
 8005b96:	68fb      	ldr	r3, [r7, #12]
 8005b98:	2201      	movs	r2, #1
 8005b9a:	f883 2051 	strb.w	r2, [r3, #81]	; 0x51
  __HAL_UNLOCK(hspi);
 8005b9e:	68fb      	ldr	r3, [r7, #12]
 8005ba0:	2200      	movs	r2, #0
 8005ba2:	f883 2050 	strb.w	r2, [r3, #80]	; 0x50
  return errorcode;
 8005ba6:	7dfb      	ldrb	r3, [r7, #23]
}
 8005ba8:	4618      	mov	r0, r3
 8005baa:	3718      	adds	r7, #24
 8005bac:	46bd      	mov	sp, r7
 8005bae:	bd80      	pop	{r7, pc}

08005bb0 <HAL_SPI_TransmitReceive>:
  * @param  Timeout Timeout duration
  * @retval HAL status
  */
HAL_StatusTypeDef HAL_SPI_TransmitReceive(SPI_HandleTypeDef *hspi, uint8_t *pTxData, uint8_t *pRxData, uint16_t Size,
                                          uint32_t Timeout)
{
 8005bb0:	b580      	push	{r7, lr}
 8005bb2:	b08c      	sub	sp, #48	; 0x30
 8005bb4:	af00      	add	r7, sp, #0
 8005bb6:	60f8      	str	r0, [r7, #12]
 8005bb8:	60b9      	str	r1, [r7, #8]
 8005bba:	607a      	str	r2, [r7, #4]
 8005bbc:	807b      	strh	r3, [r7, #2]
#if (USE_SPI_CRC != 0U)
  __IO uint32_t tmpreg = 0U;
#endif /* USE_SPI_CRC */

  /* Variable used to alternate Rx and Tx during transfer */
  uint32_t             txallowed = 1U;
 8005bbe:	2301      	movs	r3, #1
 8005bc0:	62fb      	str	r3, [r7, #44]	; 0x2c
  HAL_StatusTypeDef    errorcode = HAL_OK;
 8005bc2:	2300      	movs	r3, #0
 8005bc4:	f887 302b 	strb.w	r3, [r7, #43]	; 0x2b

  /* Check Direction parameter */
  assert_param(IS_SPI_DIRECTION_2LINES(hspi->Init.Direction));

  /* Process Locked */
  __HAL_LOCK(hspi);
 8005bc8:	68fb      	ldr	r3, [r7, #12]
 8005bca:	f893 3050 	ldrb.w	r3, [r3, #80]	; 0x50
 8005bce:	2b01      	cmp	r3, #1
 8005bd0:	d101      	bne.n	8005bd6 <HAL_SPI_TransmitReceive+0x26>
 8005bd2:	2302      	movs	r3, #2
 8005bd4:	e18a      	b.n	8005eec <HAL_SPI_TransmitReceive+0x33c>
 8005bd6:	68fb      	ldr	r3, [r7, #12]
 8005bd8:	2201      	movs	r2, #1
 8005bda:	f883 2050 	strb.w	r2, [r3, #80]	; 0x50

  /* Init tickstart for timeout management*/
  tickstart = HAL_GetTick();
 8005bde:	f7fc fec9 	bl	8002974 <HAL_GetTick>
 8005be2:	6278      	str	r0, [r7, #36]	; 0x24

  /* Init temporary variables */
  tmp_state           = hspi->State;
 8005be4:	68fb      	ldr	r3, [r7, #12]
 8005be6:	f893 3051 	ldrb.w	r3, [r3, #81]	; 0x51
 8005bea:	f887 3023 	strb.w	r3, [r7, #35]	; 0x23
  tmp_mode            = hspi->Init.Mode;
 8005bee:	68fb      	ldr	r3, [r7, #12]
 8005bf0:	685b      	ldr	r3, [r3, #4]
 8005bf2:	61fb      	str	r3, [r7, #28]
  initial_TxXferCount = Size;
 8005bf4:	887b      	ldrh	r3, [r7, #2]
 8005bf6:	837b      	strh	r3, [r7, #26]

  if (!((tmp_state == HAL_SPI_STATE_READY) || \
 8005bf8:	f897 3023 	ldrb.w	r3, [r7, #35]	; 0x23
 8005bfc:	2b01      	cmp	r3, #1
 8005bfe:	d00f      	beq.n	8005c20 <HAL_SPI_TransmitReceive+0x70>
 8005c00:	69fb      	ldr	r3, [r7, #28]
 8005c02:	f5b3 7f82 	cmp.w	r3, #260	; 0x104
 8005c06:	d107      	bne.n	8005c18 <HAL_SPI_TransmitReceive+0x68>
        ((tmp_mode == SPI_MODE_MASTER) && (hspi->Init.Direction == SPI_DIRECTION_2LINES) && (tmp_state == HAL_SPI_STATE_BUSY_RX))))
 8005c08:	68fb      	ldr	r3, [r7, #12]
 8005c0a:	689b      	ldr	r3, [r3, #8]
 8005c0c:	2b00      	cmp	r3, #0
 8005c0e:	d103      	bne.n	8005c18 <HAL_SPI_TransmitReceive+0x68>
 8005c10:	f897 3023 	ldrb.w	r3, [r7, #35]	; 0x23
 8005c14:	2b04      	cmp	r3, #4
 8005c16:	d003      	beq.n	8005c20 <HAL_SPI_TransmitReceive+0x70>
  {
    errorcode = HAL_BUSY;
 8005c18:	2302      	movs	r3, #2
 8005c1a:	f887 302b 	strb.w	r3, [r7, #43]	; 0x2b
    goto error;
 8005c1e:	e15b      	b.n	8005ed8 <HAL_SPI_TransmitReceive+0x328>
  }

  if ((pTxData == NULL) || (pRxData == NULL) || (Size == 0U))
 8005c20:	68bb      	ldr	r3, [r7, #8]
 8005c22:	2b00      	cmp	r3, #0
 8005c24:	d005      	beq.n	8005c32 <HAL_SPI_TransmitReceive+0x82>
 8005c26:	687b      	ldr	r3, [r7, #4]
 8005c28:	2b00      	cmp	r3, #0
 8005c2a:	d002      	beq.n	8005c32 <HAL_SPI_TransmitReceive+0x82>
 8005c2c:	887b      	ldrh	r3, [r7, #2]
 8005c2e:	2b00      	cmp	r3, #0
 8005c30:	d103      	bne.n	8005c3a <HAL_SPI_TransmitReceive+0x8a>
  {
    errorcode = HAL_ERROR;
 8005c32:	2301      	movs	r3, #1
 8005c34:	f887 302b 	strb.w	r3, [r7, #43]	; 0x2b
    goto error;
 8005c38:	e14e      	b.n	8005ed8 <HAL_SPI_TransmitReceive+0x328>
  }

  /* Don't overwrite in case of HAL_SPI_STATE_BUSY_RX */
  if (hspi->State != HAL_SPI_STATE_BUSY_RX)
 8005c3a:	68fb      	ldr	r3, [r7, #12]
 8005c3c:	f893 3051 	ldrb.w	r3, [r3, #81]	; 0x51
 8005c40:	b2db      	uxtb	r3, r3
 8005c42:	2b04      	cmp	r3, #4
 8005c44:	d003      	beq.n	8005c4e <HAL_SPI_TransmitReceive+0x9e>
  {
    hspi->State = HAL_SPI_STATE_BUSY_TX_RX;
 8005c46:	68fb      	ldr	r3, [r7, #12]
 8005c48:	2205      	movs	r2, #5
 8005c4a:	f883 2051 	strb.w	r2, [r3, #81]	; 0x51
  }

  /* Set the transaction information */
  hspi->ErrorCode   = HAL_SPI_ERROR_NONE;
 8005c4e:	68fb      	ldr	r3, [r7, #12]
 8005c50:	2200      	movs	r2, #0
 8005c52:	655a      	str	r2, [r3, #84]	; 0x54
  hspi->pRxBuffPtr  = (uint8_t *)pRxData;
 8005c54:	68fb      	ldr	r3, [r7, #12]
 8005c56:	687a      	ldr	r2, [r7, #4]
 8005c58:	639a      	str	r2, [r3, #56]	; 0x38
  hspi->RxXferCount = Size;
 8005c5a:	68fb      	ldr	r3, [r7, #12]
 8005c5c:	887a      	ldrh	r2, [r7, #2]
 8005c5e:	87da      	strh	r2, [r3, #62]	; 0x3e
  hspi->RxXferSize  = Size;
 8005c60:	68fb      	ldr	r3, [r7, #12]
 8005c62:	887a      	ldrh	r2, [r7, #2]
 8005c64:	879a      	strh	r2, [r3, #60]	; 0x3c
  hspi->pTxBuffPtr  = (uint8_t *)pTxData;
 8005c66:	68fb      	ldr	r3, [r7, #12]
 8005c68:	68ba      	ldr	r2, [r7, #8]
 8005c6a:	631a      	str	r2, [r3, #48]	; 0x30
  hspi->TxXferCount = Size;
 8005c6c:	68fb      	ldr	r3, [r7, #12]
 8005c6e:	887a      	ldrh	r2, [r7, #2]
 8005c70:	86da      	strh	r2, [r3, #54]	; 0x36
  hspi->TxXferSize  = Size;
 8005c72:	68fb      	ldr	r3, [r7, #12]
 8005c74:	887a      	ldrh	r2, [r7, #2]
 8005c76:	869a      	strh	r2, [r3, #52]	; 0x34

  /*Init field not used in handle to zero */
  hspi->RxISR       = NULL;
 8005c78:	68fb      	ldr	r3, [r7, #12]
 8005c7a:	2200      	movs	r2, #0
 8005c7c:	641a      	str	r2, [r3, #64]	; 0x40
  hspi->TxISR       = NULL;
 8005c7e:	68fb      	ldr	r3, [r7, #12]
 8005c80:	2200      	movs	r2, #0
 8005c82:	645a      	str	r2, [r3, #68]	; 0x44
    SPI_RESET_CRC(hspi);
  }
#endif /* USE_SPI_CRC */

  /* Check if the SPI is already enabled */
  if ((hspi->Instance->CR1 & SPI_CR1_SPE) != SPI_CR1_SPE)
 8005c84:	68fb      	ldr	r3, [r7, #12]
 8005c86:	681b      	ldr	r3, [r3, #0]
 8005c88:	681b      	ldr	r3, [r3, #0]
 8005c8a:	f003 0340 	and.w	r3, r3, #64	; 0x40
 8005c8e:	2b40      	cmp	r3, #64	; 0x40
 8005c90:	d007      	beq.n	8005ca2 <HAL_SPI_TransmitReceive+0xf2>
  {
    /* Enable SPI peripheral */
    __HAL_SPI_ENABLE(hspi);
 8005c92:	68fb      	ldr	r3, [r7, #12]
 8005c94:	681b      	ldr	r3, [r3, #0]
 8005c96:	681a      	ldr	r2, [r3, #0]
 8005c98:	68fb      	ldr	r3, [r7, #12]
 8005c9a:	681b      	ldr	r3, [r3, #0]
 8005c9c:	f042 0240 	orr.w	r2, r2, #64	; 0x40
 8005ca0:	601a      	str	r2, [r3, #0]
  }

  /* Transmit and Receive data in 16 Bit mode */
  if (hspi->Init.DataSize == SPI_DATASIZE_16BIT)
 8005ca2:	68fb      	ldr	r3, [r7, #12]
 8005ca4:	68db      	ldr	r3, [r3, #12]
 8005ca6:	f5b3 6f00 	cmp.w	r3, #2048	; 0x800
 8005caa:	d178      	bne.n	8005d9e <HAL_SPI_TransmitReceive+0x1ee>
  {
    if ((hspi->Init.Mode == SPI_MODE_SLAVE) || (initial_TxXferCount == 0x01U))
 8005cac:	68fb      	ldr	r3, [r7, #12]
 8005cae:	685b      	ldr	r3, [r3, #4]
 8005cb0:	2b00      	cmp	r3, #0
 8005cb2:	d002      	beq.n	8005cba <HAL_SPI_TransmitReceive+0x10a>
 8005cb4:	8b7b      	ldrh	r3, [r7, #26]
 8005cb6:	2b01      	cmp	r3, #1
 8005cb8:	d166      	bne.n	8005d88 <HAL_SPI_TransmitReceive+0x1d8>
    {
      hspi->Instance->DR = *((uint16_t *)hspi->pTxBuffPtr);
 8005cba:	68fb      	ldr	r3, [r7, #12]
 8005cbc:	6b1b      	ldr	r3, [r3, #48]	; 0x30
 8005cbe:	881a      	ldrh	r2, [r3, #0]
 8005cc0:	68fb      	ldr	r3, [r7, #12]
 8005cc2:	681b      	ldr	r3, [r3, #0]
 8005cc4:	60da      	str	r2, [r3, #12]
      hspi->pTxBuffPtr += sizeof(uint16_t);
 8005cc6:	68fb      	ldr	r3, [r7, #12]
 8005cc8:	6b1b      	ldr	r3, [r3, #48]	; 0x30
 8005cca:	1c9a      	adds	r2, r3, #2
 8005ccc:	68fb      	ldr	r3, [r7, #12]
 8005cce:	631a      	str	r2, [r3, #48]	; 0x30
      hspi->TxXferCount--;
 8005cd0:	68fb      	ldr	r3, [r7, #12]
 8005cd2:	8edb      	ldrh	r3, [r3, #54]	; 0x36
 8005cd4:	b29b      	uxth	r3, r3
 8005cd6:	3b01      	subs	r3, #1
 8005cd8:	b29a      	uxth	r2, r3
 8005cda:	68fb      	ldr	r3, [r7, #12]
 8005cdc:	86da      	strh	r2, [r3, #54]	; 0x36
    }
    while ((hspi->TxXferCount > 0U) || (hspi->RxXferCount > 0U))
 8005cde:	e053      	b.n	8005d88 <HAL_SPI_TransmitReceive+0x1d8>
    {
      /* Check TXE flag */
      if ((__HAL_SPI_GET_FLAG(hspi, SPI_FLAG_TXE)) && (hspi->TxXferCount > 0U) && (txallowed == 1U))
 8005ce0:	68fb      	ldr	r3, [r7, #12]
 8005ce2:	681b      	ldr	r3, [r3, #0]
 8005ce4:	689b      	ldr	r3, [r3, #8]
 8005ce6:	f003 0302 	and.w	r3, r3, #2
 8005cea:	2b02      	cmp	r3, #2
 8005cec:	d11b      	bne.n	8005d26 <HAL_SPI_TransmitReceive+0x176>
 8005cee:	68fb      	ldr	r3, [r7, #12]
 8005cf0:	8edb      	ldrh	r3, [r3, #54]	; 0x36
 8005cf2:	b29b      	uxth	r3, r3
 8005cf4:	2b00      	cmp	r3, #0
 8005cf6:	d016      	beq.n	8005d26 <HAL_SPI_TransmitReceive+0x176>
 8005cf8:	6afb      	ldr	r3, [r7, #44]	; 0x2c
 8005cfa:	2b01      	cmp	r3, #1
 8005cfc:	d113      	bne.n	8005d26 <HAL_SPI_TransmitReceive+0x176>
      {
        hspi->Instance->DR = *((uint16_t *)hspi->pTxBuffPtr);
 8005cfe:	68fb      	ldr	r3, [r7, #12]
 8005d00:	6b1b      	ldr	r3, [r3, #48]	; 0x30
 8005d02:	881a      	ldrh	r2, [r3, #0]
 8005d04:	68fb      	ldr	r3, [r7, #12]
 8005d06:	681b      	ldr	r3, [r3, #0]
 8005d08:	60da      	str	r2, [r3, #12]
        hspi->pTxBuffPtr += sizeof(uint16_t);
 8005d0a:	68fb      	ldr	r3, [r7, #12]
 8005d0c:	6b1b      	ldr	r3, [r3, #48]	; 0x30
 8005d0e:	1c9a      	adds	r2, r3, #2
 8005d10:	68fb      	ldr	r3, [r7, #12]
 8005d12:	631a      	str	r2, [r3, #48]	; 0x30
        hspi->TxXferCount--;
 8005d14:	68fb      	ldr	r3, [r7, #12]
 8005d16:	8edb      	ldrh	r3, [r3, #54]	; 0x36
 8005d18:	b29b      	uxth	r3, r3
 8005d1a:	3b01      	subs	r3, #1
 8005d1c:	b29a      	uxth	r2, r3
 8005d1e:	68fb      	ldr	r3, [r7, #12]
 8005d20:	86da      	strh	r2, [r3, #54]	; 0x36
        /* Next Data is a reception (Rx). Tx not allowed */
        txallowed = 0U;
 8005d22:	2300      	movs	r3, #0
 8005d24:	62fb      	str	r3, [r7, #44]	; 0x2c
        }
#endif /* USE_SPI_CRC */
      }

      /* Check RXNE flag */
      if ((__HAL_SPI_GET_FLAG(hspi, SPI_FLAG_RXNE)) && (hspi->RxXferCount > 0U))
 8005d26:	68fb      	ldr	r3, [r7, #12]
 8005d28:	681b      	ldr	r3, [r3, #0]
 8005d2a:	689b      	ldr	r3, [r3, #8]
 8005d2c:	f003 0301 	and.w	r3, r3, #1
 8005d30:	2b01      	cmp	r3, #1
 8005d32:	d119      	bne.n	8005d68 <HAL_SPI_TransmitReceive+0x1b8>
 8005d34:	68fb      	ldr	r3, [r7, #12]
 8005d36:	8fdb      	ldrh	r3, [r3, #62]	; 0x3e
 8005d38:	b29b      	uxth	r3, r3
 8005d3a:	2b00      	cmp	r3, #0
 8005d3c:	d014      	beq.n	8005d68 <HAL_SPI_TransmitReceive+0x1b8>
      {
        *((uint16_t *)hspi->pRxBuffPtr) = (uint16_t)hspi->Instance->DR;
 8005d3e:	68fb      	ldr	r3, [r7, #12]
 8005d40:	681b      	ldr	r3, [r3, #0]
 8005d42:	68da      	ldr	r2, [r3, #12]
 8005d44:	68fb      	ldr	r3, [r7, #12]
 8005d46:	6b9b      	ldr	r3, [r3, #56]	; 0x38
 8005d48:	b292      	uxth	r2, r2
 8005d4a:	801a      	strh	r2, [r3, #0]
        hspi->pRxBuffPtr += sizeof(uint16_t);
 8005d4c:	68fb      	ldr	r3, [r7, #12]
 8005d4e:	6b9b      	ldr	r3, [r3, #56]	; 0x38
 8005d50:	1c9a      	adds	r2, r3, #2
 8005d52:	68fb      	ldr	r3, [r7, #12]
 8005d54:	639a      	str	r2, [r3, #56]	; 0x38
        hspi->RxXferCount--;
 8005d56:	68fb      	ldr	r3, [r7, #12]
 8005d58:	8fdb      	ldrh	r3, [r3, #62]	; 0x3e
 8005d5a:	b29b      	uxth	r3, r3
 8005d5c:	3b01      	subs	r3, #1
 8005d5e:	b29a      	uxth	r2, r3
 8005d60:	68fb      	ldr	r3, [r7, #12]
 8005d62:	87da      	strh	r2, [r3, #62]	; 0x3e
        /* Next Data is a Transmission (Tx). Tx is allowed */
        txallowed = 1U;
 8005d64:	2301      	movs	r3, #1
 8005d66:	62fb      	str	r3, [r7, #44]	; 0x2c
      }
      if (((HAL_GetTick() - tickstart) >=  Timeout) && (Timeout != HAL_MAX_DELAY))
 8005d68:	f7fc fe04 	bl	8002974 <HAL_GetTick>
 8005d6c:	4602      	mov	r2, r0
 8005d6e:	6a7b      	ldr	r3, [r7, #36]	; 0x24
 8005d70:	1ad3      	subs	r3, r2, r3
 8005d72:	6bba      	ldr	r2, [r7, #56]	; 0x38
 8005d74:	429a      	cmp	r2, r3
 8005d76:	d807      	bhi.n	8005d88 <HAL_SPI_TransmitReceive+0x1d8>
 8005d78:	6bbb      	ldr	r3, [r7, #56]	; 0x38
 8005d7a:	f1b3 3fff 	cmp.w	r3, #4294967295	; 0xffffffff
 8005d7e:	d003      	beq.n	8005d88 <HAL_SPI_TransmitReceive+0x1d8>
      {
        errorcode = HAL_TIMEOUT;
 8005d80:	2303      	movs	r3, #3
 8005d82:	f887 302b 	strb.w	r3, [r7, #43]	; 0x2b
        goto error;
 8005d86:	e0a7      	b.n	8005ed8 <HAL_SPI_TransmitReceive+0x328>
    while ((hspi->TxXferCount > 0U) || (hspi->RxXferCount > 0U))
 8005d88:	68fb      	ldr	r3, [r7, #12]
 8005d8a:	8edb      	ldrh	r3, [r3, #54]	; 0x36
 8005d8c:	b29b      	uxth	r3, r3
 8005d8e:	2b00      	cmp	r3, #0
 8005d90:	d1a6      	bne.n	8005ce0 <HAL_SPI_TransmitReceive+0x130>
 8005d92:	68fb      	ldr	r3, [r7, #12]
 8005d94:	8fdb      	ldrh	r3, [r3, #62]	; 0x3e
 8005d96:	b29b      	uxth	r3, r3
 8005d98:	2b00      	cmp	r3, #0
 8005d9a:	d1a1      	bne.n	8005ce0 <HAL_SPI_TransmitReceive+0x130>
 8005d9c:	e07c      	b.n	8005e98 <HAL_SPI_TransmitReceive+0x2e8>
    }
  }
  /* Transmit and Receive data in 8 Bit mode */
  else
  {
    if ((hspi->Init.Mode == SPI_MODE_SLAVE) || (initial_TxXferCount == 0x01U))
 8005d9e:	68fb      	ldr	r3, [r7, #12]
 8005da0:	685b      	ldr	r3, [r3, #4]
 8005da2:	2b00      	cmp	r3, #0
 8005da4:	d002      	beq.n	8005dac <HAL_SPI_TransmitReceive+0x1fc>
 8005da6:	8b7b      	ldrh	r3, [r7, #26]
 8005da8:	2b01      	cmp	r3, #1
 8005daa:	d16b      	bne.n	8005e84 <HAL_SPI_TransmitReceive+0x2d4>
    {
      *((__IO uint8_t *)&hspi->Instance->DR) = (*hspi->pTxBuffPtr);
 8005dac:	68fb      	ldr	r3, [r7, #12]
 8005dae:	6b1a      	ldr	r2, [r3, #48]	; 0x30
 8005db0:	68fb      	ldr	r3, [r7, #12]
 8005db2:	681b      	ldr	r3, [r3, #0]
 8005db4:	330c      	adds	r3, #12
 8005db6:	7812      	ldrb	r2, [r2, #0]
 8005db8:	701a      	strb	r2, [r3, #0]
      hspi->pTxBuffPtr += sizeof(uint8_t);
 8005dba:	68fb      	ldr	r3, [r7, #12]
 8005dbc:	6b1b      	ldr	r3, [r3, #48]	; 0x30
 8005dbe:	1c5a      	adds	r2, r3, #1
 8005dc0:	68fb      	ldr	r3, [r7, #12]
 8005dc2:	631a      	str	r2, [r3, #48]	; 0x30
      hspi->TxXferCount--;
 8005dc4:	68fb      	ldr	r3, [r7, #12]
 8005dc6:	8edb      	ldrh	r3, [r3, #54]	; 0x36
 8005dc8:	b29b      	uxth	r3, r3
 8005dca:	3b01      	subs	r3, #1
 8005dcc:	b29a      	uxth	r2, r3
 8005dce:	68fb      	ldr	r3, [r7, #12]
 8005dd0:	86da      	strh	r2, [r3, #54]	; 0x36
    }
    while ((hspi->TxXferCount > 0U) || (hspi->RxXferCount > 0U))
 8005dd2:	e057      	b.n	8005e84 <HAL_SPI_TransmitReceive+0x2d4>
    {
      /* Check TXE flag */
      if ((__HAL_SPI_GET_FLAG(hspi, SPI_FLAG_TXE)) && (hspi->TxXferCount > 0U) && (txallowed == 1U))
 8005dd4:	68fb      	ldr	r3, [r7, #12]
 8005dd6:	681b      	ldr	r3, [r3, #0]
 8005dd8:	689b      	ldr	r3, [r3, #8]
 8005dda:	f003 0302 	and.w	r3, r3, #2
 8005dde:	2b02      	cmp	r3, #2
 8005de0:	d11c      	bne.n	8005e1c <HAL_SPI_TransmitReceive+0x26c>
 8005de2:	68fb      	ldr	r3, [r7, #12]
 8005de4:	8edb      	ldrh	r3, [r3, #54]	; 0x36
 8005de6:	b29b      	uxth	r3, r3
 8005de8:	2b00      	cmp	r3, #0
 8005dea:	d017      	beq.n	8005e1c <HAL_SPI_TransmitReceive+0x26c>
 8005dec:	6afb      	ldr	r3, [r7, #44]	; 0x2c
 8005dee:	2b01      	cmp	r3, #1
 8005df0:	d114      	bne.n	8005e1c <HAL_SPI_TransmitReceive+0x26c>
      {
        *(__IO uint8_t *)&hspi->Instance->DR = (*hspi->pTxBuffPtr);
 8005df2:	68fb      	ldr	r3, [r7, #12]
 8005df4:	6b1a      	ldr	r2, [r3, #48]	; 0x30
 8005df6:	68fb      	ldr	r3, [r7, #12]
 8005df8:	681b      	ldr	r3, [r3, #0]
 8005dfa:	330c      	adds	r3, #12
 8005dfc:	7812      	ldrb	r2, [r2, #0]
 8005dfe:	701a      	strb	r2, [r3, #0]
        hspi->pTxBuffPtr++;
 8005e00:	68fb      	ldr	r3, [r7, #12]
 8005e02:	6b1b      	ldr	r3, [r3, #48]	; 0x30
 8005e04:	1c5a      	adds	r2, r3, #1
 8005e06:	68fb      	ldr	r3, [r7, #12]
 8005e08:	631a      	str	r2, [r3, #48]	; 0x30
        hspi->TxXferCount--;
 8005e0a:	68fb      	ldr	r3, [r7, #12]
 8005e0c:	8edb      	ldrh	r3, [r3, #54]	; 0x36
 8005e0e:	b29b      	uxth	r3, r3
 8005e10:	3b01      	subs	r3, #1
 8005e12:	b29a      	uxth	r2, r3
 8005e14:	68fb      	ldr	r3, [r7, #12]
 8005e16:	86da      	strh	r2, [r3, #54]	; 0x36
        /* Next Data is a reception (Rx). Tx not allowed */
        txallowed = 0U;
 8005e18:	2300      	movs	r3, #0
 8005e1a:	62fb      	str	r3, [r7, #44]	; 0x2c
        }
#endif /* USE_SPI_CRC */
      }

      /* Wait until RXNE flag is reset */
      if ((__HAL_SPI_GET_FLAG(hspi, SPI_FLAG_RXNE)) && (hspi->RxXferCount > 0U))
 8005e1c:	68fb      	ldr	r3, [r7, #12]
 8005e1e:	681b      	ldr	r3, [r3, #0]
 8005e20:	689b      	ldr	r3, [r3, #8]
 8005e22:	f003 0301 	and.w	r3, r3, #1
 8005e26:	2b01      	cmp	r3, #1
 8005e28:	d119      	bne.n	8005e5e <HAL_SPI_TransmitReceive+0x2ae>
 8005e2a:	68fb      	ldr	r3, [r7, #12]
 8005e2c:	8fdb      	ldrh	r3, [r3, #62]	; 0x3e
 8005e2e:	b29b      	uxth	r3, r3
 8005e30:	2b00      	cmp	r3, #0
 8005e32:	d014      	beq.n	8005e5e <HAL_SPI_TransmitReceive+0x2ae>
      {
        (*(uint8_t *)hspi->pRxBuffPtr) = hspi->Instance->DR;
 8005e34:	68fb      	ldr	r3, [r7, #12]
 8005e36:	681b      	ldr	r3, [r3, #0]
 8005e38:	68da      	ldr	r2, [r3, #12]
 8005e3a:	68fb      	ldr	r3, [r7, #12]
 8005e3c:	6b9b      	ldr	r3, [r3, #56]	; 0x38
 8005e3e:	b2d2      	uxtb	r2, r2
 8005e40:	701a      	strb	r2, [r3, #0]
        hspi->pRxBuffPtr++;
 8005e42:	68fb      	ldr	r3, [r7, #12]
 8005e44:	6b9b      	ldr	r3, [r3, #56]	; 0x38
 8005e46:	1c5a      	adds	r2, r3, #1
 8005e48:	68fb      	ldr	r3, [r7, #12]
 8005e4a:	639a      	str	r2, [r3, #56]	; 0x38
        hspi->RxXferCount--;
 8005e4c:	68fb      	ldr	r3, [r7, #12]
 8005e4e:	8fdb      	ldrh	r3, [r3, #62]	; 0x3e
 8005e50:	b29b      	uxth	r3, r3
 8005e52:	3b01      	subs	r3, #1
 8005e54:	b29a      	uxth	r2, r3
 8005e56:	68fb      	ldr	r3, [r7, #12]
 8005e58:	87da      	strh	r2, [r3, #62]	; 0x3e
        /* Next Data is a Transmission (Tx). Tx is allowed */
        txallowed = 1U;
 8005e5a:	2301      	movs	r3, #1
 8005e5c:	62fb      	str	r3, [r7, #44]	; 0x2c
      }
      if ((((HAL_GetTick() - tickstart) >=  Timeout) && ((Timeout != HAL_MAX_DELAY))) || (Timeout == 0U))
 8005e5e:	f7fc fd89 	bl	8002974 <HAL_GetTick>
 8005e62:	4602      	mov	r2, r0
 8005e64:	6a7b      	ldr	r3, [r7, #36]	; 0x24
 8005e66:	1ad3      	subs	r3, r2, r3
 8005e68:	6bba      	ldr	r2, [r7, #56]	; 0x38
 8005e6a:	429a      	cmp	r2, r3
 8005e6c:	d803      	bhi.n	8005e76 <HAL_SPI_TransmitReceive+0x2c6>
 8005e6e:	6bbb      	ldr	r3, [r7, #56]	; 0x38
 8005e70:	f1b3 3fff 	cmp.w	r3, #4294967295	; 0xffffffff
 8005e74:	d102      	bne.n	8005e7c <HAL_SPI_TransmitReceive+0x2cc>
 8005e76:	6bbb      	ldr	r3, [r7, #56]	; 0x38
 8005e78:	2b00      	cmp	r3, #0
 8005e7a:	d103      	bne.n	8005e84 <HAL_SPI_TransmitReceive+0x2d4>
      {
        errorcode = HAL_TIMEOUT;
 8005e7c:	2303      	movs	r3, #3
 8005e7e:	f887 302b 	strb.w	r3, [r7, #43]	; 0x2b
        goto error;
 8005e82:	e029      	b.n	8005ed8 <HAL_SPI_TransmitReceive+0x328>
    while ((hspi->TxXferCount > 0U) || (hspi->RxXferCount > 0U))
 8005e84:	68fb      	ldr	r3, [r7, #12]
 8005e86:	8edb      	ldrh	r3, [r3, #54]	; 0x36
 8005e88:	b29b      	uxth	r3, r3
 8005e8a:	2b00      	cmp	r3, #0
 8005e8c:	d1a2      	bne.n	8005dd4 <HAL_SPI_TransmitReceive+0x224>
 8005e8e:	68fb      	ldr	r3, [r7, #12]
 8005e90:	8fdb      	ldrh	r3, [r3, #62]	; 0x3e
 8005e92:	b29b      	uxth	r3, r3
 8005e94:	2b00      	cmp	r3, #0
 8005e96:	d19d      	bne.n	8005dd4 <HAL_SPI_TransmitReceive+0x224>
    errorcode = HAL_ERROR;
  }
#endif /* USE_SPI_CRC */

  /* Check the end of the transaction */
  if (SPI_EndRxTxTransaction(hspi, Timeout, tickstart) != HAL_OK)
 8005e98:	6a7a      	ldr	r2, [r7, #36]	; 0x24
 8005e9a:	6bb9      	ldr	r1, [r7, #56]	; 0x38
 8005e9c:	68f8      	ldr	r0, [r7, #12]
 8005e9e:	f000 f917 	bl	80060d0 <SPI_EndRxTxTransaction>
 8005ea2:	4603      	mov	r3, r0
 8005ea4:	2b00      	cmp	r3, #0
 8005ea6:	d006      	beq.n	8005eb6 <HAL_SPI_TransmitReceive+0x306>
  {
    errorcode = HAL_ERROR;
 8005ea8:	2301      	movs	r3, #1
 8005eaa:	f887 302b 	strb.w	r3, [r7, #43]	; 0x2b
    hspi->ErrorCode = HAL_SPI_ERROR_FLAG;
 8005eae:	68fb      	ldr	r3, [r7, #12]
 8005eb0:	2220      	movs	r2, #32
 8005eb2:	655a      	str	r2, [r3, #84]	; 0x54
    goto error;
 8005eb4:	e010      	b.n	8005ed8 <HAL_SPI_TransmitReceive+0x328>
  }

  /* Clear overrun flag in 2 Lines communication mode because received is not read */
  if (hspi->Init.Direction == SPI_DIRECTION_2LINES)
 8005eb6:	68fb      	ldr	r3, [r7, #12]
 8005eb8:	689b      	ldr	r3, [r3, #8]
 8005eba:	2b00      	cmp	r3, #0
 8005ebc:	d10b      	bne.n	8005ed6 <HAL_SPI_TransmitReceive+0x326>
  {
    __HAL_SPI_CLEAR_OVRFLAG(hspi);
 8005ebe:	2300      	movs	r3, #0
 8005ec0:	617b      	str	r3, [r7, #20]
 8005ec2:	68fb      	ldr	r3, [r7, #12]
 8005ec4:	681b      	ldr	r3, [r3, #0]
 8005ec6:	68db      	ldr	r3, [r3, #12]
 8005ec8:	617b      	str	r3, [r7, #20]
 8005eca:	68fb      	ldr	r3, [r7, #12]
 8005ecc:	681b      	ldr	r3, [r3, #0]
 8005ece:	689b      	ldr	r3, [r3, #8]
 8005ed0:	617b      	str	r3, [r7, #20]
 8005ed2:	697b      	ldr	r3, [r7, #20]
 8005ed4:	e000      	b.n	8005ed8 <HAL_SPI_TransmitReceive+0x328>
  }

error :
 8005ed6:	bf00      	nop
  hspi->State = HAL_SPI_STATE_READY;
 8005ed8:	68fb      	ldr	r3, [r7, #12]
 8005eda:	2201      	movs	r2, #1
 8005edc:	f883 2051 	strb.w	r2, [r3, #81]	; 0x51
  __HAL_UNLOCK(hspi);
 8005ee0:	68fb      	ldr	r3, [r7, #12]
 8005ee2:	2200      	movs	r2, #0
 8005ee4:	f883 2050 	strb.w	r2, [r3, #80]	; 0x50
  return errorcode;
 8005ee8:	f897 302b 	ldrb.w	r3, [r7, #43]	; 0x2b
}
 8005eec:	4618      	mov	r0, r3
 8005eee:	3730      	adds	r7, #48	; 0x30
 8005ef0:	46bd      	mov	sp, r7
 8005ef2:	bd80      	pop	{r7, pc}

08005ef4 <SPI_WaitFlagStateUntilTimeout>:
  * @param  Tickstart tick start value
  * @retval HAL status
  */
static HAL_StatusTypeDef SPI_WaitFlagStateUntilTimeout(SPI_HandleTypeDef *hspi, uint32_t Flag, FlagStatus State,
                                                       uint32_t Timeout, uint32_t Tickstart)
{
 8005ef4:	b580      	push	{r7, lr}
 8005ef6:	b088      	sub	sp, #32
 8005ef8:	af00      	add	r7, sp, #0
 8005efa:	60f8      	str	r0, [r7, #12]
 8005efc:	60b9      	str	r1, [r7, #8]
 8005efe:	603b      	str	r3, [r7, #0]
 8005f00:	4613      	mov	r3, r2
 8005f02:	71fb      	strb	r3, [r7, #7]
  __IO uint32_t count;
  uint32_t tmp_timeout;
  uint32_t tmp_tickstart;

  /* Adjust Timeout value  in case of end of transfer */
  tmp_timeout   = Timeout - (HAL_GetTick() - Tickstart);
 8005f04:	f7fc fd36 	bl	8002974 <HAL_GetTick>
 8005f08:	4602      	mov	r2, r0
 8005f0a:	6abb      	ldr	r3, [r7, #40]	; 0x28
 8005f0c:	1a9b      	subs	r3, r3, r2
 8005f0e:	683a      	ldr	r2, [r7, #0]
 8005f10:	4413      	add	r3, r2
 8005f12:	61fb      	str	r3, [r7, #28]
  tmp_tickstart = HAL_GetTick();
 8005f14:	f7fc fd2e 	bl	8002974 <HAL_GetTick>
 8005f18:	61b8      	str	r0, [r7, #24]

  /* Calculate Timeout based on a software loop to avoid blocking issue if Systick is disabled */
  count = tmp_timeout * ((SystemCoreClock * 32U) >> 20U);
 8005f1a:	4b39      	ldr	r3, [pc, #228]	; (8006000 <SPI_WaitFlagStateUntilTimeout+0x10c>)
 8005f1c:	681b      	ldr	r3, [r3, #0]
 8005f1e:	015b      	lsls	r3, r3, #5
 8005f20:	0d1b      	lsrs	r3, r3, #20
 8005f22:	69fa      	ldr	r2, [r7, #28]
 8005f24:	fb02 f303 	mul.w	r3, r2, r3
 8005f28:	617b      	str	r3, [r7, #20]

  while ((__HAL_SPI_GET_FLAG(hspi, Flag) ? SET : RESET) != State)
 8005f2a:	e054      	b.n	8005fd6 <SPI_WaitFlagStateUntilTimeout+0xe2>
  {
    if (Timeout != HAL_MAX_DELAY)
 8005f2c:	683b      	ldr	r3, [r7, #0]
 8005f2e:	f1b3 3fff 	cmp.w	r3, #4294967295	; 0xffffffff
 8005f32:	d050      	beq.n	8005fd6 <SPI_WaitFlagStateUntilTimeout+0xe2>
    {
      if (((HAL_GetTick() - tmp_tickstart) >= tmp_timeout) || (tmp_timeout == 0U))
 8005f34:	f7fc fd1e 	bl	8002974 <HAL_GetTick>
 8005f38:	4602      	mov	r2, r0
 8005f3a:	69bb      	ldr	r3, [r7, #24]
 8005f3c:	1ad3      	subs	r3, r2, r3
 8005f3e:	69fa      	ldr	r2, [r7, #28]
 8005f40:	429a      	cmp	r2, r3
 8005f42:	d902      	bls.n	8005f4a <SPI_WaitFlagStateUntilTimeout+0x56>
 8005f44:	69fb      	ldr	r3, [r7, #28]
 8005f46:	2b00      	cmp	r3, #0
 8005f48:	d13d      	bne.n	8005fc6 <SPI_WaitFlagStateUntilTimeout+0xd2>
        /* Disable the SPI and reset the CRC: the CRC value should be cleared
           on both master and slave sides in order to resynchronize the master
           and slave for their respective CRC calculation */

        /* Disable TXE, RXNE and ERR interrupts for the interrupt process */
        __HAL_SPI_DISABLE_IT(hspi, (SPI_IT_TXE | SPI_IT_RXNE | SPI_IT_ERR));
 8005f4a:	68fb      	ldr	r3, [r7, #12]
 8005f4c:	681b      	ldr	r3, [r3, #0]
 8005f4e:	685a      	ldr	r2, [r3, #4]
 8005f50:	68fb      	ldr	r3, [r7, #12]
 8005f52:	681b      	ldr	r3, [r3, #0]
 8005f54:	f022 02e0 	bic.w	r2, r2, #224	; 0xe0
 8005f58:	605a      	str	r2, [r3, #4]

        if ((hspi->Init.Mode == SPI_MODE_MASTER) && ((hspi->Init.Direction == SPI_DIRECTION_1LINE)
 8005f5a:	68fb      	ldr	r3, [r7, #12]
 8005f5c:	685b      	ldr	r3, [r3, #4]
 8005f5e:	f5b3 7f82 	cmp.w	r3, #260	; 0x104
 8005f62:	d111      	bne.n	8005f88 <SPI_WaitFlagStateUntilTimeout+0x94>
 8005f64:	68fb      	ldr	r3, [r7, #12]
 8005f66:	689b      	ldr	r3, [r3, #8]
 8005f68:	f5b3 4f00 	cmp.w	r3, #32768	; 0x8000
 8005f6c:	d004      	beq.n	8005f78 <SPI_WaitFlagStateUntilTimeout+0x84>
                                                     || (hspi->Init.Direction == SPI_DIRECTION_2LINES_RXONLY)))
 8005f6e:	68fb      	ldr	r3, [r7, #12]
 8005f70:	689b      	ldr	r3, [r3, #8]
 8005f72:	f5b3 6f80 	cmp.w	r3, #1024	; 0x400
 8005f76:	d107      	bne.n	8005f88 <SPI_WaitFlagStateUntilTimeout+0x94>
        {
          /* Disable SPI peripheral */
          __HAL_SPI_DISABLE(hspi);
 8005f78:	68fb      	ldr	r3, [r7, #12]
 8005f7a:	681b      	ldr	r3, [r3, #0]
 8005f7c:	681a      	ldr	r2, [r3, #0]
 8005f7e:	68fb      	ldr	r3, [r7, #12]
 8005f80:	681b      	ldr	r3, [r3, #0]
 8005f82:	f022 0240 	bic.w	r2, r2, #64	; 0x40
 8005f86:	601a      	str	r2, [r3, #0]
        }

        /* Reset CRC Calculation */
        if (hspi->Init.CRCCalculation == SPI_CRCCALCULATION_ENABLE)
 8005f88:	68fb      	ldr	r3, [r7, #12]
 8005f8a:	6a9b      	ldr	r3, [r3, #40]	; 0x28
 8005f8c:	f5b3 5f00 	cmp.w	r3, #8192	; 0x2000
 8005f90:	d10f      	bne.n	8005fb2 <SPI_WaitFlagStateUntilTimeout+0xbe>
        {
          SPI_RESET_CRC(hspi);
 8005f92:	68fb      	ldr	r3, [r7, #12]
 8005f94:	681b      	ldr	r3, [r3, #0]
 8005f96:	681a      	ldr	r2, [r3, #0]
 8005f98:	68fb      	ldr	r3, [r7, #12]
 8005f9a:	681b      	ldr	r3, [r3, #0]
 8005f9c:	f422 5200 	bic.w	r2, r2, #8192	; 0x2000
 8005fa0:	601a      	str	r2, [r3, #0]
 8005fa2:	68fb      	ldr	r3, [r7, #12]
 8005fa4:	681b      	ldr	r3, [r3, #0]
 8005fa6:	681a      	ldr	r2, [r3, #0]
 8005fa8:	68fb      	ldr	r3, [r7, #12]
 8005faa:	681b      	ldr	r3, [r3, #0]
 8005fac:	f442 5200 	orr.w	r2, r2, #8192	; 0x2000
 8005fb0:	601a      	str	r2, [r3, #0]
        }

        hspi->State = HAL_SPI_STATE_READY;
 8005fb2:	68fb      	ldr	r3, [r7, #12]
 8005fb4:	2201      	movs	r2, #1
 8005fb6:	f883 2051 	strb.w	r2, [r3, #81]	; 0x51

        /* Process Unlocked */
        __HAL_UNLOCK(hspi);
 8005fba:	68fb      	ldr	r3, [r7, #12]
 8005fbc:	2200      	movs	r2, #0
 8005fbe:	f883 2050 	strb.w	r2, [r3, #80]	; 0x50

        return HAL_TIMEOUT;
 8005fc2:	2303      	movs	r3, #3
 8005fc4:	e017      	b.n	8005ff6 <SPI_WaitFlagStateUntilTimeout+0x102>
      }
      /* If Systick is disabled or not incremented, deactivate timeout to go in disable loop procedure */
      if(count == 0U)
 8005fc6:	697b      	ldr	r3, [r7, #20]
 8005fc8:	2b00      	cmp	r3, #0
 8005fca:	d101      	bne.n	8005fd0 <SPI_WaitFlagStateUntilTimeout+0xdc>
      {
        tmp_timeout = 0U;
 8005fcc:	2300      	movs	r3, #0
 8005fce:	61fb      	str	r3, [r7, #28]
      }
      count--;
 8005fd0:	697b      	ldr	r3, [r7, #20]
 8005fd2:	3b01      	subs	r3, #1
 8005fd4:	617b      	str	r3, [r7, #20]
  while ((__HAL_SPI_GET_FLAG(hspi, Flag) ? SET : RESET) != State)
 8005fd6:	68fb      	ldr	r3, [r7, #12]
 8005fd8:	681b      	ldr	r3, [r3, #0]
 8005fda:	689a      	ldr	r2, [r3, #8]
 8005fdc:	68bb      	ldr	r3, [r7, #8]
 8005fde:	4013      	ands	r3, r2
 8005fe0:	68ba      	ldr	r2, [r7, #8]
 8005fe2:	429a      	cmp	r2, r3
 8005fe4:	bf0c      	ite	eq
 8005fe6:	2301      	moveq	r3, #1
 8005fe8:	2300      	movne	r3, #0
 8005fea:	b2db      	uxtb	r3, r3
 8005fec:	461a      	mov	r2, r3
 8005fee:	79fb      	ldrb	r3, [r7, #7]
 8005ff0:	429a      	cmp	r2, r3
 8005ff2:	d19b      	bne.n	8005f2c <SPI_WaitFlagStateUntilTimeout+0x38>
    }
  }

  return HAL_OK;
 8005ff4:	2300      	movs	r3, #0
}
 8005ff6:	4618      	mov	r0, r3
 8005ff8:	3720      	adds	r7, #32
 8005ffa:	46bd      	mov	sp, r7
 8005ffc:	bd80      	pop	{r7, pc}
 8005ffe:	bf00      	nop
 8006000:	2000000c 	.word	0x2000000c

08006004 <SPI_EndRxTransaction>:
  * @param  Timeout Timeout duration
  * @param  Tickstart tick start value
  * @retval HAL status
  */
static HAL_StatusTypeDef SPI_EndRxTransaction(SPI_HandleTypeDef *hspi,  uint32_t Timeout, uint32_t Tickstart)
{
 8006004:	b580      	push	{r7, lr}
 8006006:	b086      	sub	sp, #24
 8006008:	af02      	add	r7, sp, #8
 800600a:	60f8      	str	r0, [r7, #12]
 800600c:	60b9      	str	r1, [r7, #8]
 800600e:	607a      	str	r2, [r7, #4]
  if ((hspi->Init.Mode == SPI_MODE_MASTER) && ((hspi->Init.Direction == SPI_DIRECTION_1LINE)
 8006010:	68fb      	ldr	r3, [r7, #12]
 8006012:	685b      	ldr	r3, [r3, #4]
 8006014:	f5b3 7f82 	cmp.w	r3, #260	; 0x104
 8006018:	d111      	bne.n	800603e <SPI_EndRxTransaction+0x3a>
 800601a:	68fb      	ldr	r3, [r7, #12]
 800601c:	689b      	ldr	r3, [r3, #8]
 800601e:	f5b3 4f00 	cmp.w	r3, #32768	; 0x8000
 8006022:	d004      	beq.n	800602e <SPI_EndRxTransaction+0x2a>
                                               || (hspi->Init.Direction == SPI_DIRECTION_2LINES_RXONLY)))
 8006024:	68fb      	ldr	r3, [r7, #12]
 8006026:	689b      	ldr	r3, [r3, #8]
 8006028:	f5b3 6f80 	cmp.w	r3, #1024	; 0x400
 800602c:	d107      	bne.n	800603e <SPI_EndRxTransaction+0x3a>
  {
    /* Disable SPI peripheral */
    __HAL_SPI_DISABLE(hspi);
 800602e:	68fb      	ldr	r3, [r7, #12]
 8006030:	681b      	ldr	r3, [r3, #0]
 8006032:	681a      	ldr	r2, [r3, #0]
 8006034:	68fb      	ldr	r3, [r7, #12]
 8006036:	681b      	ldr	r3, [r3, #0]
 8006038:	f022 0240 	bic.w	r2, r2, #64	; 0x40
 800603c:	601a      	str	r2, [r3, #0]
  }

  /* Erratasheet: BSY bit may stay high at the end of a data transfer in Slave mode */
  if (hspi->Init.Mode == SPI_MODE_MASTER)
 800603e:	68fb      	ldr	r3, [r7, #12]
 8006040:	685b      	ldr	r3, [r3, #4]
 8006042:	f5b3 7f82 	cmp.w	r3, #260	; 0x104
 8006046:	d12a      	bne.n	800609e <SPI_EndRxTransaction+0x9a>
  {
    if (hspi->Init.Direction != SPI_DIRECTION_2LINES_RXONLY)
 8006048:	68fb      	ldr	r3, [r7, #12]
 800604a:	689b      	ldr	r3, [r3, #8]
 800604c:	f5b3 6f80 	cmp.w	r3, #1024	; 0x400
 8006050:	d012      	beq.n	8006078 <SPI_EndRxTransaction+0x74>
    {
      /* Control the BSY flag */
      if (SPI_WaitFlagStateUntilTimeout(hspi, SPI_FLAG_BSY, RESET, Timeout, Tickstart) != HAL_OK)
 8006052:	687b      	ldr	r3, [r7, #4]
 8006054:	9300      	str	r3, [sp, #0]
 8006056:	68bb      	ldr	r3, [r7, #8]
 8006058:	2200      	movs	r2, #0
 800605a:	2180      	movs	r1, #128	; 0x80
 800605c:	68f8      	ldr	r0, [r7, #12]
 800605e:	f7ff ff49 	bl	8005ef4 <SPI_WaitFlagStateUntilTimeout>
 8006062:	4603      	mov	r3, r0
 8006064:	2b00      	cmp	r3, #0
 8006066:	d02d      	beq.n	80060c4 <SPI_EndRxTransaction+0xc0>
      {
        SET_BIT(hspi->ErrorCode, HAL_SPI_ERROR_FLAG);
 8006068:	68fb      	ldr	r3, [r7, #12]
 800606a:	6d5b      	ldr	r3, [r3, #84]	; 0x54
 800606c:	f043 0220 	orr.w	r2, r3, #32
 8006070:	68fb      	ldr	r3, [r7, #12]
 8006072:	655a      	str	r2, [r3, #84]	; 0x54
        return HAL_TIMEOUT;
 8006074:	2303      	movs	r3, #3
 8006076:	e026      	b.n	80060c6 <SPI_EndRxTransaction+0xc2>
      }
    }
    else
    {
      /* Wait the RXNE reset */
      if (SPI_WaitFlagStateUntilTimeout(hspi, SPI_FLAG_RXNE, RESET, Timeout, Tickstart) != HAL_OK)
 8006078:	687b      	ldr	r3, [r7, #4]
 800607a:	9300      	str	r3, [sp, #0]
 800607c:	68bb      	ldr	r3, [r7, #8]
 800607e:	2200      	movs	r2, #0
 8006080:	2101      	movs	r1, #1
 8006082:	68f8      	ldr	r0, [r7, #12]
 8006084:	f7ff ff36 	bl	8005ef4 <SPI_WaitFlagStateUntilTimeout>
 8006088:	4603      	mov	r3, r0
 800608a:	2b00      	cmp	r3, #0
 800608c:	d01a      	beq.n	80060c4 <SPI_EndRxTransaction+0xc0>
      {
        SET_BIT(hspi->ErrorCode, HAL_SPI_ERROR_FLAG);
 800608e:	68fb      	ldr	r3, [r7, #12]
 8006090:	6d5b      	ldr	r3, [r3, #84]	; 0x54
 8006092:	f043 0220 	orr.w	r2, r3, #32
 8006096:	68fb      	ldr	r3, [r7, #12]
 8006098:	655a      	str	r2, [r3, #84]	; 0x54
        return HAL_TIMEOUT;
 800609a:	2303      	movs	r3, #3
 800609c:	e013      	b.n	80060c6 <SPI_EndRxTransaction+0xc2>
    }
  }
  else
  {
    /* Wait the RXNE reset */
    if (SPI_WaitFlagStateUntilTimeout(hspi, SPI_FLAG_RXNE, RESET, Timeout, Tickstart) != HAL_OK)
 800609e:	687b      	ldr	r3, [r7, #4]
 80060a0:	9300      	str	r3, [sp, #0]
 80060a2:	68bb      	ldr	r3, [r7, #8]
 80060a4:	2200      	movs	r2, #0
 80060a6:	2101      	movs	r1, #1
 80060a8:	68f8      	ldr	r0, [r7, #12]
 80060aa:	f7ff ff23 	bl	8005ef4 <SPI_WaitFlagStateUntilTimeout>
 80060ae:	4603      	mov	r3, r0
 80060b0:	2b00      	cmp	r3, #0
 80060b2:	d007      	beq.n	80060c4 <SPI_EndRxTransaction+0xc0>
    {
      SET_BIT(hspi->ErrorCode, HAL_SPI_ERROR_FLAG);
 80060b4:	68fb      	ldr	r3, [r7, #12]
 80060b6:	6d5b      	ldr	r3, [r3, #84]	; 0x54
 80060b8:	f043 0220 	orr.w	r2, r3, #32
 80060bc:	68fb      	ldr	r3, [r7, #12]
 80060be:	655a      	str	r2, [r3, #84]	; 0x54
      return HAL_TIMEOUT;
 80060c0:	2303      	movs	r3, #3
 80060c2:	e000      	b.n	80060c6 <SPI_EndRxTransaction+0xc2>
    }
  }
  return HAL_OK;
 80060c4:	2300      	movs	r3, #0
}
 80060c6:	4618      	mov	r0, r3
 80060c8:	3710      	adds	r7, #16
 80060ca:	46bd      	mov	sp, r7
 80060cc:	bd80      	pop	{r7, pc}
	...

080060d0 <SPI_EndRxTxTransaction>:
  * @param  Timeout Timeout duration
  * @param  Tickstart tick start value
  * @retval HAL status
  */
static HAL_StatusTypeDef SPI_EndRxTxTransaction(SPI_HandleTypeDef *hspi, uint32_t Timeout, uint32_t Tickstart)
{
 80060d0:	b580      	push	{r7, lr}
 80060d2:	b088      	sub	sp, #32
 80060d4:	af02      	add	r7, sp, #8
 80060d6:	60f8      	str	r0, [r7, #12]
 80060d8:	60b9      	str	r1, [r7, #8]
 80060da:	607a      	str	r2, [r7, #4]
  /* Timeout in s */
  __IO uint32_t count = SPI_BSY_FLAG_WORKAROUND_TIMEOUT * (SystemCoreClock / 24U / 1000000U);
 80060dc:	4b1b      	ldr	r3, [pc, #108]	; (800614c <SPI_EndRxTxTransaction+0x7c>)
 80060de:	681b      	ldr	r3, [r3, #0]
 80060e0:	4a1b      	ldr	r2, [pc, #108]	; (8006150 <SPI_EndRxTxTransaction+0x80>)
 80060e2:	fba2 2303 	umull	r2, r3, r2, r3
 80060e6:	0d5b      	lsrs	r3, r3, #21
 80060e8:	f44f 727a 	mov.w	r2, #1000	; 0x3e8
 80060ec:	fb02 f303 	mul.w	r3, r2, r3
 80060f0:	617b      	str	r3, [r7, #20]
  /* Erratasheet: BSY bit may stay high at the end of a data transfer in Slave mode */
  if (hspi->Init.Mode == SPI_MODE_MASTER)
 80060f2:	68fb      	ldr	r3, [r7, #12]
 80060f4:	685b      	ldr	r3, [r3, #4]
 80060f6:	f5b3 7f82 	cmp.w	r3, #260	; 0x104
 80060fa:	d112      	bne.n	8006122 <SPI_EndRxTxTransaction+0x52>
  {
    /* Control the BSY flag */
    if (SPI_WaitFlagStateUntilTimeout(hspi, SPI_FLAG_BSY, RESET, Timeout, Tickstart) != HAL_OK)
 80060fc:	687b      	ldr	r3, [r7, #4]
 80060fe:	9300      	str	r3, [sp, #0]
 8006100:	68bb      	ldr	r3, [r7, #8]
 8006102:	2200      	movs	r2, #0
 8006104:	2180      	movs	r1, #128	; 0x80
 8006106:	68f8      	ldr	r0, [r7, #12]
 8006108:	f7ff fef4 	bl	8005ef4 <SPI_WaitFlagStateUntilTimeout>
 800610c:	4603      	mov	r3, r0
 800610e:	2b00      	cmp	r3, #0
 8006110:	d016      	beq.n	8006140 <SPI_EndRxTxTransaction+0x70>
    {
      SET_BIT(hspi->ErrorCode, HAL_SPI_ERROR_FLAG);
 8006112:	68fb      	ldr	r3, [r7, #12]
 8006114:	6d5b      	ldr	r3, [r3, #84]	; 0x54
 8006116:	f043 0220 	orr.w	r2, r3, #32
 800611a:	68fb      	ldr	r3, [r7, #12]
 800611c:	655a      	str	r2, [r3, #84]	; 0x54
      return HAL_TIMEOUT;
 800611e:	2303      	movs	r3, #3
 8006120:	e00f      	b.n	8006142 <SPI_EndRxTxTransaction+0x72>
    * User have to calculate the timeout value to fit with the time of 1 byte transfer.
    * This time is directly link with the SPI clock from Master device.
    */
    do
    {
      if (count == 0U)
 8006122:	697b      	ldr	r3, [r7, #20]
 8006124:	2b00      	cmp	r3, #0
 8006126:	d00a      	beq.n	800613e <SPI_EndRxTxTransaction+0x6e>
      {
        break;
      }
      count--;
 8006128:	697b      	ldr	r3, [r7, #20]
 800612a:	3b01      	subs	r3, #1
 800612c:	617b      	str	r3, [r7, #20]
    } while (__HAL_SPI_GET_FLAG(hspi, SPI_FLAG_BSY) != RESET);
 800612e:	68fb      	ldr	r3, [r7, #12]
 8006130:	681b      	ldr	r3, [r3, #0]
 8006132:	689b      	ldr	r3, [r3, #8]
 8006134:	f003 0380 	and.w	r3, r3, #128	; 0x80
 8006138:	2b80      	cmp	r3, #128	; 0x80
 800613a:	d0f2      	beq.n	8006122 <SPI_EndRxTxTransaction+0x52>
 800613c:	e000      	b.n	8006140 <SPI_EndRxTxTransaction+0x70>
        break;
 800613e:	bf00      	nop
  }

  return HAL_OK;
 8006140:	2300      	movs	r3, #0
}
 8006142:	4618      	mov	r0, r3
 8006144:	3718      	adds	r7, #24
 8006146:	46bd      	mov	sp, r7
 8006148:	bd80      	pop	{r7, pc}
 800614a:	bf00      	nop
 800614c:	2000000c 	.word	0x2000000c
 8006150:	165e9f81 	.word	0x165e9f81

08006154 <HAL_TIM_IC_Init>:
  *         Ex: call @ref HAL_TIM_IC_DeInit() before HAL_TIM_IC_Init()
  * @param  htim TIM Input Capture handle
  * @retval HAL status
  */
HAL_StatusTypeDef HAL_TIM_IC_Init(TIM_HandleTypeDef *htim)
{
 8006154:	b580      	push	{r7, lr}
 8006156:	b082      	sub	sp, #8
 8006158:	af00      	add	r7, sp, #0
 800615a:	6078      	str	r0, [r7, #4]
  /* Check the TIM handle allocation */
  if (htim == NULL)
 800615c:	687b      	ldr	r3, [r7, #4]
 800615e:	2b00      	cmp	r3, #0
 8006160:	d101      	bne.n	8006166 <HAL_TIM_IC_Init+0x12>
  {
    return HAL_ERROR;
 8006162:	2301      	movs	r3, #1
 8006164:	e041      	b.n	80061ea <HAL_TIM_IC_Init+0x96>
  assert_param(IS_TIM_INSTANCE(htim->Instance));
  assert_param(IS_TIM_COUNTER_MODE(htim->Init.CounterMode));
  assert_param(IS_TIM_CLOCKDIVISION_DIV(htim->Init.ClockDivision));
  assert_param(IS_TIM_AUTORELOAD_PRELOAD(htim->Init.AutoReloadPreload));

  if (htim->State == HAL_TIM_STATE_RESET)
 8006166:	687b      	ldr	r3, [r7, #4]
 8006168:	f893 303d 	ldrb.w	r3, [r3, #61]	; 0x3d
 800616c:	b2db      	uxtb	r3, r3
 800616e:	2b00      	cmp	r3, #0
 8006170:	d106      	bne.n	8006180 <HAL_TIM_IC_Init+0x2c>
  {
    /* Allocate lock resource and initialize it */
    htim->Lock = HAL_UNLOCKED;
 8006172:	687b      	ldr	r3, [r7, #4]
 8006174:	2200      	movs	r2, #0
 8006176:	f883 203c 	strb.w	r2, [r3, #60]	; 0x3c
    }
    /* Init the low level hardware : GPIO, CLOCK, NVIC */
    htim->IC_MspInitCallback(htim);
#else
    /* Init the low level hardware : GPIO, CLOCK, NVIC and DMA */
    HAL_TIM_IC_MspInit(htim);
 800617a:	6878      	ldr	r0, [r7, #4]
 800617c:	f7fc f8ba 	bl	80022f4 <HAL_TIM_IC_MspInit>
#endif /* USE_HAL_TIM_REGISTER_CALLBACKS */
  }

  /* Set the TIM state */
  htim->State = HAL_TIM_STATE_BUSY;
 8006180:	687b      	ldr	r3, [r7, #4]
 8006182:	2202      	movs	r2, #2
 8006184:	f883 203d 	strb.w	r2, [r3, #61]	; 0x3d

  /* Init the base time for the input capture */
  TIM_Base_SetConfig(htim->Instance, &htim->Init);
 8006188:	687b      	ldr	r3, [r7, #4]
 800618a:	681a      	ldr	r2, [r3, #0]
 800618c:	687b      	ldr	r3, [r7, #4]
 800618e:	3304      	adds	r3, #4
 8006190:	4619      	mov	r1, r3
 8006192:	4610      	mov	r0, r2
 8006194:	f000 fb22 	bl	80067dc <TIM_Base_SetConfig>

  /* Initialize the DMA burst operation state */
  htim->DMABurstState = HAL_DMA_BURST_STATE_READY;
 8006198:	687b      	ldr	r3, [r7, #4]
 800619a:	2201      	movs	r2, #1
 800619c:	f883 2046 	strb.w	r2, [r3, #70]	; 0x46

  /* Initialize the TIM channels state */
  TIM_CHANNEL_STATE_SET_ALL(htim, HAL_TIM_CHANNEL_STATE_READY);
 80061a0:	687b      	ldr	r3, [r7, #4]
 80061a2:	2201      	movs	r2, #1
 80061a4:	f883 203e 	strb.w	r2, [r3, #62]	; 0x3e
 80061a8:	687b      	ldr	r3, [r7, #4]
 80061aa:	2201      	movs	r2, #1
 80061ac:	f883 203f 	strb.w	r2, [r3, #63]	; 0x3f
 80061b0:	687b      	ldr	r3, [r7, #4]
 80061b2:	2201      	movs	r2, #1
 80061b4:	f883 2040 	strb.w	r2, [r3, #64]	; 0x40
 80061b8:	687b      	ldr	r3, [r7, #4]
 80061ba:	2201      	movs	r2, #1
 80061bc:	f883 2041 	strb.w	r2, [r3, #65]	; 0x41
  TIM_CHANNEL_N_STATE_SET_ALL(htim, HAL_TIM_CHANNEL_STATE_READY);
 80061c0:	687b      	ldr	r3, [r7, #4]
 80061c2:	2201      	movs	r2, #1
 80061c4:	f883 2042 	strb.w	r2, [r3, #66]	; 0x42
 80061c8:	687b      	ldr	r3, [r7, #4]
 80061ca:	2201      	movs	r2, #1
 80061cc:	f883 2043 	strb.w	r2, [r3, #67]	; 0x43
 80061d0:	687b      	ldr	r3, [r7, #4]
 80061d2:	2201      	movs	r2, #1
 80061d4:	f883 2044 	strb.w	r2, [r3, #68]	; 0x44
 80061d8:	687b      	ldr	r3, [r7, #4]
 80061da:	2201      	movs	r2, #1
 80061dc:	f883 2045 	strb.w	r2, [r3, #69]	; 0x45

  /* Initialize the TIM state*/
  htim->State = HAL_TIM_STATE_READY;
 80061e0:	687b      	ldr	r3, [r7, #4]
 80061e2:	2201      	movs	r2, #1
 80061e4:	f883 203d 	strb.w	r2, [r3, #61]	; 0x3d

  return HAL_OK;
 80061e8:	2300      	movs	r3, #0
}
 80061ea:	4618      	mov	r0, r3
 80061ec:	3708      	adds	r7, #8
 80061ee:	46bd      	mov	sp, r7
 80061f0:	bd80      	pop	{r7, pc}
	...

080061f4 <HAL_TIM_IC_Start_IT>:
  *            @arg TIM_CHANNEL_3: TIM Channel 3 selected
  *            @arg TIM_CHANNEL_4: TIM Channel 4 selected
  * @retval HAL status
  */
HAL_StatusTypeDef HAL_TIM_IC_Start_IT(TIM_HandleTypeDef *htim, uint32_t Channel)
{
 80061f4:	b580      	push	{r7, lr}
 80061f6:	b084      	sub	sp, #16
 80061f8:	af00      	add	r7, sp, #0
 80061fa:	6078      	str	r0, [r7, #4]
 80061fc:	6039      	str	r1, [r7, #0]
  HAL_StatusTypeDef status = HAL_OK;
 80061fe:	2300      	movs	r3, #0
 8006200:	73fb      	strb	r3, [r7, #15]
  uint32_t tmpsmcr;

  HAL_TIM_ChannelStateTypeDef channel_state = TIM_CHANNEL_STATE_GET(htim, Channel);
 8006202:	683b      	ldr	r3, [r7, #0]
 8006204:	2b00      	cmp	r3, #0
 8006206:	d104      	bne.n	8006212 <HAL_TIM_IC_Start_IT+0x1e>
 8006208:	687b      	ldr	r3, [r7, #4]
 800620a:	f893 303e 	ldrb.w	r3, [r3, #62]	; 0x3e
 800620e:	b2db      	uxtb	r3, r3
 8006210:	e013      	b.n	800623a <HAL_TIM_IC_Start_IT+0x46>
 8006212:	683b      	ldr	r3, [r7, #0]
 8006214:	2b04      	cmp	r3, #4
 8006216:	d104      	bne.n	8006222 <HAL_TIM_IC_Start_IT+0x2e>
 8006218:	687b      	ldr	r3, [r7, #4]
 800621a:	f893 303f 	ldrb.w	r3, [r3, #63]	; 0x3f
 800621e:	b2db      	uxtb	r3, r3
 8006220:	e00b      	b.n	800623a <HAL_TIM_IC_Start_IT+0x46>
 8006222:	683b      	ldr	r3, [r7, #0]
 8006224:	2b08      	cmp	r3, #8
 8006226:	d104      	bne.n	8006232 <HAL_TIM_IC_Start_IT+0x3e>
 8006228:	687b      	ldr	r3, [r7, #4]
 800622a:	f893 3040 	ldrb.w	r3, [r3, #64]	; 0x40
 800622e:	b2db      	uxtb	r3, r3
 8006230:	e003      	b.n	800623a <HAL_TIM_IC_Start_IT+0x46>
 8006232:	687b      	ldr	r3, [r7, #4]
 8006234:	f893 3041 	ldrb.w	r3, [r3, #65]	; 0x41
 8006238:	b2db      	uxtb	r3, r3
 800623a:	73bb      	strb	r3, [r7, #14]
  HAL_TIM_ChannelStateTypeDef complementary_channel_state = TIM_CHANNEL_N_STATE_GET(htim, Channel);
 800623c:	683b      	ldr	r3, [r7, #0]
 800623e:	2b00      	cmp	r3, #0
 8006240:	d104      	bne.n	800624c <HAL_TIM_IC_Start_IT+0x58>
 8006242:	687b      	ldr	r3, [r7, #4]
 8006244:	f893 3042 	ldrb.w	r3, [r3, #66]	; 0x42
 8006248:	b2db      	uxtb	r3, r3
 800624a:	e013      	b.n	8006274 <HAL_TIM_IC_Start_IT+0x80>
 800624c:	683b      	ldr	r3, [r7, #0]
 800624e:	2b04      	cmp	r3, #4
 8006250:	d104      	bne.n	800625c <HAL_TIM_IC_Start_IT+0x68>
 8006252:	687b      	ldr	r3, [r7, #4]
 8006254:	f893 3043 	ldrb.w	r3, [r3, #67]	; 0x43
 8006258:	b2db      	uxtb	r3, r3
 800625a:	e00b      	b.n	8006274 <HAL_TIM_IC_Start_IT+0x80>
 800625c:	683b      	ldr	r3, [r7, #0]
 800625e:	2b08      	cmp	r3, #8
 8006260:	d104      	bne.n	800626c <HAL_TIM_IC_Start_IT+0x78>
 8006262:	687b      	ldr	r3, [r7, #4]
 8006264:	f893 3044 	ldrb.w	r3, [r3, #68]	; 0x44
 8006268:	b2db      	uxtb	r3, r3
 800626a:	e003      	b.n	8006274 <HAL_TIM_IC_Start_IT+0x80>
 800626c:	687b      	ldr	r3, [r7, #4]
 800626e:	f893 3045 	ldrb.w	r3, [r3, #69]	; 0x45
 8006272:	b2db      	uxtb	r3, r3
 8006274:	737b      	strb	r3, [r7, #13]

  /* Check the parameters */
  assert_param(IS_TIM_CCX_INSTANCE(htim->Instance, Channel));

  /* Check the TIM channel state */
  if ((channel_state != HAL_TIM_CHANNEL_STATE_READY)
 8006276:	7bbb      	ldrb	r3, [r7, #14]
 8006278:	2b01      	cmp	r3, #1
 800627a:	d102      	bne.n	8006282 <HAL_TIM_IC_Start_IT+0x8e>
      || (complementary_channel_state != HAL_TIM_CHANNEL_STATE_READY))
 800627c:	7b7b      	ldrb	r3, [r7, #13]
 800627e:	2b01      	cmp	r3, #1
 8006280:	d001      	beq.n	8006286 <HAL_TIM_IC_Start_IT+0x92>
  {
    return HAL_ERROR;
 8006282:	2301      	movs	r3, #1
 8006284:	e0cc      	b.n	8006420 <HAL_TIM_IC_Start_IT+0x22c>
  }

  /* Set the TIM channel state */
  TIM_CHANNEL_STATE_SET(htim, Channel, HAL_TIM_CHANNEL_STATE_BUSY);
 8006286:	683b      	ldr	r3, [r7, #0]
 8006288:	2b00      	cmp	r3, #0
 800628a:	d104      	bne.n	8006296 <HAL_TIM_IC_Start_IT+0xa2>
 800628c:	687b      	ldr	r3, [r7, #4]
 800628e:	2202      	movs	r2, #2
 8006290:	f883 203e 	strb.w	r2, [r3, #62]	; 0x3e
 8006294:	e013      	b.n	80062be <HAL_TIM_IC_Start_IT+0xca>
 8006296:	683b      	ldr	r3, [r7, #0]
 8006298:	2b04      	cmp	r3, #4
 800629a:	d104      	bne.n	80062a6 <HAL_TIM_IC_Start_IT+0xb2>
 800629c:	687b      	ldr	r3, [r7, #4]
 800629e:	2202      	movs	r2, #2
 80062a0:	f883 203f 	strb.w	r2, [r3, #63]	; 0x3f
 80062a4:	e00b      	b.n	80062be <HAL_TIM_IC_Start_IT+0xca>
 80062a6:	683b      	ldr	r3, [r7, #0]
 80062a8:	2b08      	cmp	r3, #8
 80062aa:	d104      	bne.n	80062b6 <HAL_TIM_IC_Start_IT+0xc2>
 80062ac:	687b      	ldr	r3, [r7, #4]
 80062ae:	2202      	movs	r2, #2
 80062b0:	f883 2040 	strb.w	r2, [r3, #64]	; 0x40
 80062b4:	e003      	b.n	80062be <HAL_TIM_IC_Start_IT+0xca>
 80062b6:	687b      	ldr	r3, [r7, #4]
 80062b8:	2202      	movs	r2, #2
 80062ba:	f883 2041 	strb.w	r2, [r3, #65]	; 0x41
  TIM_CHANNEL_N_STATE_SET(htim, Channel, HAL_TIM_CHANNEL_STATE_BUSY);
 80062be:	683b      	ldr	r3, [r7, #0]
 80062c0:	2b00      	cmp	r3, #0
 80062c2:	d104      	bne.n	80062ce <HAL_TIM_IC_Start_IT+0xda>
 80062c4:	687b      	ldr	r3, [r7, #4]
 80062c6:	2202      	movs	r2, #2
 80062c8:	f883 2042 	strb.w	r2, [r3, #66]	; 0x42
 80062cc:	e013      	b.n	80062f6 <HAL_TIM_IC_Start_IT+0x102>
 80062ce:	683b      	ldr	r3, [r7, #0]
 80062d0:	2b04      	cmp	r3, #4
 80062d2:	d104      	bne.n	80062de <HAL_TIM_IC_Start_IT+0xea>
 80062d4:	687b      	ldr	r3, [r7, #4]
 80062d6:	2202      	movs	r2, #2
 80062d8:	f883 2043 	strb.w	r2, [r3, #67]	; 0x43
 80062dc:	e00b      	b.n	80062f6 <HAL_TIM_IC_Start_IT+0x102>
 80062de:	683b      	ldr	r3, [r7, #0]
 80062e0:	2b08      	cmp	r3, #8
 80062e2:	d104      	bne.n	80062ee <HAL_TIM_IC_Start_IT+0xfa>
 80062e4:	687b      	ldr	r3, [r7, #4]
 80062e6:	2202      	movs	r2, #2
 80062e8:	f883 2044 	strb.w	r2, [r3, #68]	; 0x44
 80062ec:	e003      	b.n	80062f6 <HAL_TIM_IC_Start_IT+0x102>
 80062ee:	687b      	ldr	r3, [r7, #4]
 80062f0:	2202      	movs	r2, #2
 80062f2:	f883 2045 	strb.w	r2, [r3, #69]	; 0x45

  switch (Channel)
 80062f6:	683b      	ldr	r3, [r7, #0]
 80062f8:	2b0c      	cmp	r3, #12
 80062fa:	d841      	bhi.n	8006380 <HAL_TIM_IC_Start_IT+0x18c>
 80062fc:	a201      	add	r2, pc, #4	; (adr r2, 8006304 <HAL_TIM_IC_Start_IT+0x110>)
 80062fe:	f852 f023 	ldr.w	pc, [r2, r3, lsl #2]
 8006302:	bf00      	nop
 8006304:	08006339 	.word	0x08006339
 8006308:	08006381 	.word	0x08006381
 800630c:	08006381 	.word	0x08006381
 8006310:	08006381 	.word	0x08006381
 8006314:	0800634b 	.word	0x0800634b
 8006318:	08006381 	.word	0x08006381
 800631c:	08006381 	.word	0x08006381
 8006320:	08006381 	.word	0x08006381
 8006324:	0800635d 	.word	0x0800635d
 8006328:	08006381 	.word	0x08006381
 800632c:	08006381 	.word	0x08006381
 8006330:	08006381 	.word	0x08006381
 8006334:	0800636f 	.word	0x0800636f
  {
    case TIM_CHANNEL_1:
    {
      /* Enable the TIM Capture/Compare 1 interrupt */
      __HAL_TIM_ENABLE_IT(htim, TIM_IT_CC1);
 8006338:	687b      	ldr	r3, [r7, #4]
 800633a:	681b      	ldr	r3, [r3, #0]
 800633c:	68da      	ldr	r2, [r3, #12]
 800633e:	687b      	ldr	r3, [r7, #4]
 8006340:	681b      	ldr	r3, [r3, #0]
 8006342:	f042 0202 	orr.w	r2, r2, #2
 8006346:	60da      	str	r2, [r3, #12]
      break;
 8006348:	e01d      	b.n	8006386 <HAL_TIM_IC_Start_IT+0x192>
    }

    case TIM_CHANNEL_2:
    {
      /* Enable the TIM Capture/Compare 2 interrupt */
      __HAL_TIM_ENABLE_IT(htim, TIM_IT_CC2);
 800634a:	687b      	ldr	r3, [r7, #4]
 800634c:	681b      	ldr	r3, [r3, #0]
 800634e:	68da      	ldr	r2, [r3, #12]
 8006350:	687b      	ldr	r3, [r7, #4]
 8006352:	681b      	ldr	r3, [r3, #0]
 8006354:	f042 0204 	orr.w	r2, r2, #4
 8006358:	60da      	str	r2, [r3, #12]
      break;
 800635a:	e014      	b.n	8006386 <HAL_TIM_IC_Start_IT+0x192>
    }

    case TIM_CHANNEL_3:
    {
      /* Enable the TIM Capture/Compare 3 interrupt */
      __HAL_TIM_ENABLE_IT(htim, TIM_IT_CC3);
 800635c:	687b      	ldr	r3, [r7, #4]
 800635e:	681b      	ldr	r3, [r3, #0]
 8006360:	68da      	ldr	r2, [r3, #12]
 8006362:	687b      	ldr	r3, [r7, #4]
 8006364:	681b      	ldr	r3, [r3, #0]
 8006366:	f042 0208 	orr.w	r2, r2, #8
 800636a:	60da      	str	r2, [r3, #12]
      break;
 800636c:	e00b      	b.n	8006386 <HAL_TIM_IC_Start_IT+0x192>
    }

    case TIM_CHANNEL_4:
    {
      /* Enable the TIM Capture/Compare 4 interrupt */
      __HAL_TIM_ENABLE_IT(htim, TIM_IT_CC4);
 800636e:	687b      	ldr	r3, [r7, #4]
 8006370:	681b      	ldr	r3, [r3, #0]
 8006372:	68da      	ldr	r2, [r3, #12]
 8006374:	687b      	ldr	r3, [r7, #4]
 8006376:	681b      	ldr	r3, [r3, #0]
 8006378:	f042 0210 	orr.w	r2, r2, #16
 800637c:	60da      	str	r2, [r3, #12]
      break;
 800637e:	e002      	b.n	8006386 <HAL_TIM_IC_Start_IT+0x192>
    }

    default:
      status = HAL_ERROR;
 8006380:	2301      	movs	r3, #1
 8006382:	73fb      	strb	r3, [r7, #15]
      break;
 8006384:	bf00      	nop
  }

  if (status == HAL_OK)
 8006386:	7bfb      	ldrb	r3, [r7, #15]
 8006388:	2b00      	cmp	r3, #0
 800638a:	d148      	bne.n	800641e <HAL_TIM_IC_Start_IT+0x22a>
  {
    /* Enable the Input Capture channel */
    TIM_CCxChannelCmd(htim->Instance, Channel, TIM_CCx_ENABLE);
 800638c:	687b      	ldr	r3, [r7, #4]
 800638e:	681b      	ldr	r3, [r3, #0]
 8006390:	2201      	movs	r2, #1
 8006392:	6839      	ldr	r1, [r7, #0]
 8006394:	4618      	mov	r0, r3
 8006396:	f000 fbeb 	bl	8006b70 <TIM_CCxChannelCmd>

    /* Enable the Peripheral, except in trigger mode where enable is automatically done with trigger */
    if (IS_TIM_SLAVE_INSTANCE(htim->Instance))
 800639a:	687b      	ldr	r3, [r7, #4]
 800639c:	681b      	ldr	r3, [r3, #0]
 800639e:	4a22      	ldr	r2, [pc, #136]	; (8006428 <HAL_TIM_IC_Start_IT+0x234>)
 80063a0:	4293      	cmp	r3, r2
 80063a2:	d022      	beq.n	80063ea <HAL_TIM_IC_Start_IT+0x1f6>
 80063a4:	687b      	ldr	r3, [r7, #4]
 80063a6:	681b      	ldr	r3, [r3, #0]
 80063a8:	f1b3 4f80 	cmp.w	r3, #1073741824	; 0x40000000
 80063ac:	d01d      	beq.n	80063ea <HAL_TIM_IC_Start_IT+0x1f6>
 80063ae:	687b      	ldr	r3, [r7, #4]
 80063b0:	681b      	ldr	r3, [r3, #0]
 80063b2:	4a1e      	ldr	r2, [pc, #120]	; (800642c <HAL_TIM_IC_Start_IT+0x238>)
 80063b4:	4293      	cmp	r3, r2
 80063b6:	d018      	beq.n	80063ea <HAL_TIM_IC_Start_IT+0x1f6>
 80063b8:	687b      	ldr	r3, [r7, #4]
 80063ba:	681b      	ldr	r3, [r3, #0]
 80063bc:	4a1c      	ldr	r2, [pc, #112]	; (8006430 <HAL_TIM_IC_Start_IT+0x23c>)
 80063be:	4293      	cmp	r3, r2
 80063c0:	d013      	beq.n	80063ea <HAL_TIM_IC_Start_IT+0x1f6>
 80063c2:	687b      	ldr	r3, [r7, #4]
 80063c4:	681b      	ldr	r3, [r3, #0]
 80063c6:	4a1b      	ldr	r2, [pc, #108]	; (8006434 <HAL_TIM_IC_Start_IT+0x240>)
 80063c8:	4293      	cmp	r3, r2
 80063ca:	d00e      	beq.n	80063ea <HAL_TIM_IC_Start_IT+0x1f6>
 80063cc:	687b      	ldr	r3, [r7, #4]
 80063ce:	681b      	ldr	r3, [r3, #0]
 80063d0:	4a19      	ldr	r2, [pc, #100]	; (8006438 <HAL_TIM_IC_Start_IT+0x244>)
 80063d2:	4293      	cmp	r3, r2
 80063d4:	d009      	beq.n	80063ea <HAL_TIM_IC_Start_IT+0x1f6>
 80063d6:	687b      	ldr	r3, [r7, #4]
 80063d8:	681b      	ldr	r3, [r3, #0]
 80063da:	4a18      	ldr	r2, [pc, #96]	; (800643c <HAL_TIM_IC_Start_IT+0x248>)
 80063dc:	4293      	cmp	r3, r2
 80063de:	d004      	beq.n	80063ea <HAL_TIM_IC_Start_IT+0x1f6>
 80063e0:	687b      	ldr	r3, [r7, #4]
 80063e2:	681b      	ldr	r3, [r3, #0]
 80063e4:	4a16      	ldr	r2, [pc, #88]	; (8006440 <HAL_TIM_IC_Start_IT+0x24c>)
 80063e6:	4293      	cmp	r3, r2
 80063e8:	d111      	bne.n	800640e <HAL_TIM_IC_Start_IT+0x21a>
    {
      tmpsmcr = htim->Instance->SMCR & TIM_SMCR_SMS;
 80063ea:	687b      	ldr	r3, [r7, #4]
 80063ec:	681b      	ldr	r3, [r3, #0]
 80063ee:	689b      	ldr	r3, [r3, #8]
 80063f0:	f003 0307 	and.w	r3, r3, #7
 80063f4:	60bb      	str	r3, [r7, #8]
      if (!IS_TIM_SLAVEMODE_TRIGGER_ENABLED(tmpsmcr))
 80063f6:	68bb      	ldr	r3, [r7, #8]
 80063f8:	2b06      	cmp	r3, #6
 80063fa:	d010      	beq.n	800641e <HAL_TIM_IC_Start_IT+0x22a>
      {
        __HAL_TIM_ENABLE(htim);
 80063fc:	687b      	ldr	r3, [r7, #4]
 80063fe:	681b      	ldr	r3, [r3, #0]
 8006400:	681a      	ldr	r2, [r3, #0]
 8006402:	687b      	ldr	r3, [r7, #4]
 8006404:	681b      	ldr	r3, [r3, #0]
 8006406:	f042 0201 	orr.w	r2, r2, #1
 800640a:	601a      	str	r2, [r3, #0]
      if (!IS_TIM_SLAVEMODE_TRIGGER_ENABLED(tmpsmcr))
 800640c:	e007      	b.n	800641e <HAL_TIM_IC_Start_IT+0x22a>
      }
    }
    else
    {
      __HAL_TIM_ENABLE(htim);
 800640e:	687b      	ldr	r3, [r7, #4]
 8006410:	681b      	ldr	r3, [r3, #0]
 8006412:	681a      	ldr	r2, [r3, #0]
 8006414:	687b      	ldr	r3, [r7, #4]
 8006416:	681b      	ldr	r3, [r3, #0]
 8006418:	f042 0201 	orr.w	r2, r2, #1
 800641c:	601a      	str	r2, [r3, #0]
    }
  }

  /* Return function status */
  return status;
 800641e:	7bfb      	ldrb	r3, [r7, #15]
}
 8006420:	4618      	mov	r0, r3
 8006422:	3710      	adds	r7, #16
 8006424:	46bd      	mov	sp, r7
 8006426:	bd80      	pop	{r7, pc}
 8006428:	40010000 	.word	0x40010000
 800642c:	40000400 	.word	0x40000400
 8006430:	40000800 	.word	0x40000800
 8006434:	40000c00 	.word	0x40000c00
 8006438:	40010400 	.word	0x40010400
 800643c:	40014000 	.word	0x40014000
 8006440:	40001800 	.word	0x40001800

08006444 <HAL_TIM_IRQHandler>:
  * @brief  This function handles TIM interrupts requests.
  * @param  htim TIM  handle
  * @retval None
  */
void HAL_TIM_IRQHandler(TIM_HandleTypeDef *htim)
{
 8006444:	b580      	push	{r7, lr}
 8006446:	b082      	sub	sp, #8
 8006448:	af00      	add	r7, sp, #0
 800644a:	6078      	str	r0, [r7, #4]
  /* Capture compare 1 event */
  if (__HAL_TIM_GET_FLAG(htim, TIM_FLAG_CC1) != RESET)
 800644c:	687b      	ldr	r3, [r7, #4]
 800644e:	681b      	ldr	r3, [r3, #0]
 8006450:	691b      	ldr	r3, [r3, #16]
 8006452:	f003 0302 	and.w	r3, r3, #2
 8006456:	2b02      	cmp	r3, #2
 8006458:	d122      	bne.n	80064a0 <HAL_TIM_IRQHandler+0x5c>
  {
    if (__HAL_TIM_GET_IT_SOURCE(htim, TIM_IT_CC1) != RESET)
 800645a:	687b      	ldr	r3, [r7, #4]
 800645c:	681b      	ldr	r3, [r3, #0]
 800645e:	68db      	ldr	r3, [r3, #12]
 8006460:	f003 0302 	and.w	r3, r3, #2
 8006464:	2b02      	cmp	r3, #2
 8006466:	d11b      	bne.n	80064a0 <HAL_TIM_IRQHandler+0x5c>
    {
      {
        __HAL_TIM_CLEAR_IT(htim, TIM_IT_CC1);
 8006468:	687b      	ldr	r3, [r7, #4]
 800646a:	681b      	ldr	r3, [r3, #0]
 800646c:	f06f 0202 	mvn.w	r2, #2
 8006470:	611a      	str	r2, [r3, #16]
        htim->Channel = HAL_TIM_ACTIVE_CHANNEL_1;
 8006472:	687b      	ldr	r3, [r7, #4]
 8006474:	2201      	movs	r2, #1
 8006476:	771a      	strb	r2, [r3, #28]

        /* Input capture event */
        if ((htim->Instance->CCMR1 & TIM_CCMR1_CC1S) != 0x00U)
 8006478:	687b      	ldr	r3, [r7, #4]
 800647a:	681b      	ldr	r3, [r3, #0]
 800647c:	699b      	ldr	r3, [r3, #24]
 800647e:	f003 0303 	and.w	r3, r3, #3
 8006482:	2b00      	cmp	r3, #0
 8006484:	d003      	beq.n	800648e <HAL_TIM_IRQHandler+0x4a>
        {
#if (USE_HAL_TIM_REGISTER_CALLBACKS == 1)
          htim->IC_CaptureCallback(htim);
#else
          HAL_TIM_IC_CaptureCallback(htim);
 8006486:	6878      	ldr	r0, [r7, #4]
 8006488:	f7fb f84b 	bl	8001522 <HAL_TIM_IC_CaptureCallback>
 800648c:	e005      	b.n	800649a <HAL_TIM_IRQHandler+0x56>
        {
#if (USE_HAL_TIM_REGISTER_CALLBACKS == 1)
          htim->OC_DelayElapsedCallback(htim);
          htim->PWM_PulseFinishedCallback(htim);
#else
          HAL_TIM_OC_DelayElapsedCallback(htim);
 800648e:	6878      	ldr	r0, [r7, #4]
 8006490:	f000 f986 	bl	80067a0 <HAL_TIM_OC_DelayElapsedCallback>
          HAL_TIM_PWM_PulseFinishedCallback(htim);
 8006494:	6878      	ldr	r0, [r7, #4]
 8006496:	f000 f98d 	bl	80067b4 <HAL_TIM_PWM_PulseFinishedCallback>
#endif /* USE_HAL_TIM_REGISTER_CALLBACKS */
        }
        htim->Channel = HAL_TIM_ACTIVE_CHANNEL_CLEARED;
 800649a:	687b      	ldr	r3, [r7, #4]
 800649c:	2200      	movs	r2, #0
 800649e:	771a      	strb	r2, [r3, #28]
      }
    }
  }
  /* Capture compare 2 event */
  if (__HAL_TIM_GET_FLAG(htim, TIM_FLAG_CC2) != RESET)
 80064a0:	687b      	ldr	r3, [r7, #4]
 80064a2:	681b      	ldr	r3, [r3, #0]
 80064a4:	691b      	ldr	r3, [r3, #16]
 80064a6:	f003 0304 	and.w	r3, r3, #4
 80064aa:	2b04      	cmp	r3, #4
 80064ac:	d122      	bne.n	80064f4 <HAL_TIM_IRQHandler+0xb0>
  {
    if (__HAL_TIM_GET_IT_SOURCE(htim, TIM_IT_CC2) != RESET)
 80064ae:	687b      	ldr	r3, [r7, #4]
 80064b0:	681b      	ldr	r3, [r3, #0]
 80064b2:	68db      	ldr	r3, [r3, #12]
 80064b4:	f003 0304 	and.w	r3, r3, #4
 80064b8:	2b04      	cmp	r3, #4
 80064ba:	d11b      	bne.n	80064f4 <HAL_TIM_IRQHandler+0xb0>
    {
      __HAL_TIM_CLEAR_IT(htim, TIM_IT_CC2);
 80064bc:	687b      	ldr	r3, [r7, #4]
 80064be:	681b      	ldr	r3, [r3, #0]
 80064c0:	f06f 0204 	mvn.w	r2, #4
 80064c4:	611a      	str	r2, [r3, #16]
      htim->Channel = HAL_TIM_ACTIVE_CHANNEL_2;
 80064c6:	687b      	ldr	r3, [r7, #4]
 80064c8:	2202      	movs	r2, #2
 80064ca:	771a      	strb	r2, [r3, #28]
      /* Input capture event */
      if ((htim->Instance->CCMR1 & TIM_CCMR1_CC2S) != 0x00U)
 80064cc:	687b      	ldr	r3, [r7, #4]
 80064ce:	681b      	ldr	r3, [r3, #0]
 80064d0:	699b      	ldr	r3, [r3, #24]
 80064d2:	f403 7340 	and.w	r3, r3, #768	; 0x300
 80064d6:	2b00      	cmp	r3, #0
 80064d8:	d003      	beq.n	80064e2 <HAL_TIM_IRQHandler+0x9e>
      {
#if (USE_HAL_TIM_REGISTER_CALLBACKS == 1)
        htim->IC_CaptureCallback(htim);
#else
        HAL_TIM_IC_CaptureCallback(htim);
 80064da:	6878      	ldr	r0, [r7, #4]
 80064dc:	f7fb f821 	bl	8001522 <HAL_TIM_IC_CaptureCallback>
 80064e0:	e005      	b.n	80064ee <HAL_TIM_IRQHandler+0xaa>
      {
#if (USE_HAL_TIM_REGISTER_CALLBACKS == 1)
        htim->OC_DelayElapsedCallback(htim);
        htim->PWM_PulseFinishedCallback(htim);
#else
        HAL_TIM_OC_DelayElapsedCallback(htim);
 80064e2:	6878      	ldr	r0, [r7, #4]
 80064e4:	f000 f95c 	bl	80067a0 <HAL_TIM_OC_DelayElapsedCallback>
        HAL_TIM_PWM_PulseFinishedCallback(htim);
 80064e8:	6878      	ldr	r0, [r7, #4]
 80064ea:	f000 f963 	bl	80067b4 <HAL_TIM_PWM_PulseFinishedCallback>
#endif /* USE_HAL_TIM_REGISTER_CALLBACKS */
      }
      htim->Channel = HAL_TIM_ACTIVE_CHANNEL_CLEARED;
 80064ee:	687b      	ldr	r3, [r7, #4]
 80064f0:	2200      	movs	r2, #0
 80064f2:	771a      	strb	r2, [r3, #28]
    }
  }
  /* Capture compare 3 event */
  if (__HAL_TIM_GET_FLAG(htim, TIM_FLAG_CC3) != RESET)
 80064f4:	687b      	ldr	r3, [r7, #4]
 80064f6:	681b      	ldr	r3, [r3, #0]
 80064f8:	691b      	ldr	r3, [r3, #16]
 80064fa:	f003 0308 	and.w	r3, r3, #8
 80064fe:	2b08      	cmp	r3, #8
 8006500:	d122      	bne.n	8006548 <HAL_TIM_IRQHandler+0x104>
  {
    if (__HAL_TIM_GET_IT_SOURCE(htim, TIM_IT_CC3) != RESET)
 8006502:	687b      	ldr	r3, [r7, #4]
 8006504:	681b      	ldr	r3, [r3, #0]
 8006506:	68db      	ldr	r3, [r3, #12]
 8006508:	f003 0308 	and.w	r3, r3, #8
 800650c:	2b08      	cmp	r3, #8
 800650e:	d11b      	bne.n	8006548 <HAL_TIM_IRQHandler+0x104>
    {
      __HAL_TIM_CLEAR_IT(htim, TIM_IT_CC3);
 8006510:	687b      	ldr	r3, [r7, #4]
 8006512:	681b      	ldr	r3, [r3, #0]
 8006514:	f06f 0208 	mvn.w	r2, #8
 8006518:	611a      	str	r2, [r3, #16]
      htim->Channel = HAL_TIM_ACTIVE_CHANNEL_3;
 800651a:	687b      	ldr	r3, [r7, #4]
 800651c:	2204      	movs	r2, #4
 800651e:	771a      	strb	r2, [r3, #28]
      /* Input capture event */
      if ((htim->Instance->CCMR2 & TIM_CCMR2_CC3S) != 0x00U)
 8006520:	687b      	ldr	r3, [r7, #4]
 8006522:	681b      	ldr	r3, [r3, #0]
 8006524:	69db      	ldr	r3, [r3, #28]
 8006526:	f003 0303 	and.w	r3, r3, #3
 800652a:	2b00      	cmp	r3, #0
 800652c:	d003      	beq.n	8006536 <HAL_TIM_IRQHandler+0xf2>
      {
#if (USE_HAL_TIM_REGISTER_CALLBACKS == 1)
        htim->IC_CaptureCallback(htim);
#else
        HAL_TIM_IC_CaptureCallback(htim);
 800652e:	6878      	ldr	r0, [r7, #4]
 8006530:	f7fa fff7 	bl	8001522 <HAL_TIM_IC_CaptureCallback>
 8006534:	e005      	b.n	8006542 <HAL_TIM_IRQHandler+0xfe>
      {
#if (USE_HAL_TIM_REGISTER_CALLBACKS == 1)
        htim->OC_DelayElapsedCallback(htim);
        htim->PWM_PulseFinishedCallback(htim);
#else
        HAL_TIM_OC_DelayElapsedCallback(htim);
 8006536:	6878      	ldr	r0, [r7, #4]
 8006538:	f000 f932 	bl	80067a0 <HAL_TIM_OC_DelayElapsedCallback>
        HAL_TIM_PWM_PulseFinishedCallback(htim);
 800653c:	6878      	ldr	r0, [r7, #4]
 800653e:	f000 f939 	bl	80067b4 <HAL_TIM_PWM_PulseFinishedCallback>
#endif /* USE_HAL_TIM_REGISTER_CALLBACKS */
      }
      htim->Channel = HAL_TIM_ACTIVE_CHANNEL_CLEARED;
 8006542:	687b      	ldr	r3, [r7, #4]
 8006544:	2200      	movs	r2, #0
 8006546:	771a      	strb	r2, [r3, #28]
    }
  }
  /* Capture compare 4 event */
  if (__HAL_TIM_GET_FLAG(htim, TIM_FLAG_CC4) != RESET)
 8006548:	687b      	ldr	r3, [r7, #4]
 800654a:	681b      	ldr	r3, [r3, #0]
 800654c:	691b      	ldr	r3, [r3, #16]
 800654e:	f003 0310 	and.w	r3, r3, #16
 8006552:	2b10      	cmp	r3, #16
 8006554:	d122      	bne.n	800659c <HAL_TIM_IRQHandler+0x158>
  {
    if (__HAL_TIM_GET_IT_SOURCE(htim, TIM_IT_CC4) != RESET)
 8006556:	687b      	ldr	r3, [r7, #4]
 8006558:	681b      	ldr	r3, [r3, #0]
 800655a:	68db      	ldr	r3, [r3, #12]
 800655c:	f003 0310 	and.w	r3, r3, #16
 8006560:	2b10      	cmp	r3, #16
 8006562:	d11b      	bne.n	800659c <HAL_TIM_IRQHandler+0x158>
    {
      __HAL_TIM_CLEAR_IT(htim, TIM_IT_CC4);
 8006564:	687b      	ldr	r3, [r7, #4]
 8006566:	681b      	ldr	r3, [r3, #0]
 8006568:	f06f 0210 	mvn.w	r2, #16
 800656c:	611a      	str	r2, [r3, #16]
      htim->Channel = HAL_TIM_ACTIVE_CHANNEL_4;
 800656e:	687b      	ldr	r3, [r7, #4]
 8006570:	2208      	movs	r2, #8
 8006572:	771a      	strb	r2, [r3, #28]
      /* Input capture event */
      if ((htim->Instance->CCMR2 & TIM_CCMR2_CC4S) != 0x00U)
 8006574:	687b      	ldr	r3, [r7, #4]
 8006576:	681b      	ldr	r3, [r3, #0]
 8006578:	69db      	ldr	r3, [r3, #28]
 800657a:	f403 7340 	and.w	r3, r3, #768	; 0x300
 800657e:	2b00      	cmp	r3, #0
 8006580:	d003      	beq.n	800658a <HAL_TIM_IRQHandler+0x146>
      {
#if (USE_HAL_TIM_REGISTER_CALLBACKS == 1)
        htim->IC_CaptureCallback(htim);
#else
        HAL_TIM_IC_CaptureCallback(htim);
 8006582:	6878      	ldr	r0, [r7, #4]
 8006584:	f7fa ffcd 	bl	8001522 <HAL_TIM_IC_CaptureCallback>
 8006588:	e005      	b.n	8006596 <HAL_TIM_IRQHandler+0x152>
      {
#if (USE_HAL_TIM_REGISTER_CALLBACKS == 1)
        htim->OC_DelayElapsedCallback(htim);
        htim->PWM_PulseFinishedCallback(htim);
#else
        HAL_TIM_OC_DelayElapsedCallback(htim);
 800658a:	6878      	ldr	r0, [r7, #4]
 800658c:	f000 f908 	bl	80067a0 <HAL_TIM_OC_DelayElapsedCallback>
        HAL_TIM_PWM_PulseFinishedCallback(htim);
 8006590:	6878      	ldr	r0, [r7, #4]
 8006592:	f000 f90f 	bl	80067b4 <HAL_TIM_PWM_PulseFinishedCallback>
#endif /* USE_HAL_TIM_REGISTER_CALLBACKS */
      }
      htim->Channel = HAL_TIM_ACTIVE_CHANNEL_CLEARED;
 8006596:	687b      	ldr	r3, [r7, #4]
 8006598:	2200      	movs	r2, #0
 800659a:	771a      	strb	r2, [r3, #28]
    }
  }
  /* TIM Update event */
  if (__HAL_TIM_GET_FLAG(htim, TIM_FLAG_UPDATE) != RESET)
 800659c:	687b      	ldr	r3, [r7, #4]
 800659e:	681b      	ldr	r3, [r3, #0]
 80065a0:	691b      	ldr	r3, [r3, #16]
 80065a2:	f003 0301 	and.w	r3, r3, #1
 80065a6:	2b01      	cmp	r3, #1
 80065a8:	d10e      	bne.n	80065c8 <HAL_TIM_IRQHandler+0x184>
  {
    if (__HAL_TIM_GET_IT_SOURCE(htim, TIM_IT_UPDATE) != RESET)
 80065aa:	687b      	ldr	r3, [r7, #4]
 80065ac:	681b      	ldr	r3, [r3, #0]
 80065ae:	68db      	ldr	r3, [r3, #12]
 80065b0:	f003 0301 	and.w	r3, r3, #1
 80065b4:	2b01      	cmp	r3, #1
 80065b6:	d107      	bne.n	80065c8 <HAL_TIM_IRQHandler+0x184>
    {
      __HAL_TIM_CLEAR_IT(htim, TIM_IT_UPDATE);
 80065b8:	687b      	ldr	r3, [r7, #4]
 80065ba:	681b      	ldr	r3, [r3, #0]
 80065bc:	f06f 0201 	mvn.w	r2, #1
 80065c0:	611a      	str	r2, [r3, #16]
#if (USE_HAL_TIM_REGISTER_CALLBACKS == 1)
      htim->PeriodElapsedCallback(htim);
#else
      HAL_TIM_PeriodElapsedCallback(htim);
 80065c2:	6878      	ldr	r0, [r7, #4]
 80065c4:	f000 f8e2 	bl	800678c <HAL_TIM_PeriodElapsedCallback>
#endif /* USE_HAL_TIM_REGISTER_CALLBACKS */
    }
  }
  /* TIM Break input event */
  if (__HAL_TIM_GET_FLAG(htim, TIM_FLAG_BREAK) != RESET)
 80065c8:	687b      	ldr	r3, [r7, #4]
 80065ca:	681b      	ldr	r3, [r3, #0]
 80065cc:	691b      	ldr	r3, [r3, #16]
 80065ce:	f003 0380 	and.w	r3, r3, #128	; 0x80
 80065d2:	2b80      	cmp	r3, #128	; 0x80
 80065d4:	d10e      	bne.n	80065f4 <HAL_TIM_IRQHandler+0x1b0>
  {
    if (__HAL_TIM_GET_IT_SOURCE(htim, TIM_IT_BREAK) != RESET)
 80065d6:	687b      	ldr	r3, [r7, #4]
 80065d8:	681b      	ldr	r3, [r3, #0]
 80065da:	68db      	ldr	r3, [r3, #12]
 80065dc:	f003 0380 	and.w	r3, r3, #128	; 0x80
 80065e0:	2b80      	cmp	r3, #128	; 0x80
 80065e2:	d107      	bne.n	80065f4 <HAL_TIM_IRQHandler+0x1b0>
    {
      __HAL_TIM_CLEAR_IT(htim, TIM_IT_BREAK);
 80065e4:	687b      	ldr	r3, [r7, #4]
 80065e6:	681b      	ldr	r3, [r3, #0]
 80065e8:	f06f 0280 	mvn.w	r2, #128	; 0x80
 80065ec:	611a      	str	r2, [r3, #16]
#if (USE_HAL_TIM_REGISTER_CALLBACKS == 1)
      htim->BreakCallback(htim);
#else
      HAL_TIMEx_BreakCallback(htim);
 80065ee:	6878      	ldr	r0, [r7, #4]
 80065f0:	f000 fb6a 	bl	8006cc8 <HAL_TIMEx_BreakCallback>
#endif /* USE_HAL_TIM_REGISTER_CALLBACKS */
    }
  }
  /* TIM Trigger detection event */
  if (__HAL_TIM_GET_FLAG(htim, TIM_FLAG_TRIGGER) != RESET)
 80065f4:	687b      	ldr	r3, [r7, #4]
 80065f6:	681b      	ldr	r3, [r3, #0]
 80065f8:	691b      	ldr	r3, [r3, #16]
 80065fa:	f003 0340 	and.w	r3, r3, #64	; 0x40
 80065fe:	2b40      	cmp	r3, #64	; 0x40
 8006600:	d10e      	bne.n	8006620 <HAL_TIM_IRQHandler+0x1dc>
  {
    if (__HAL_TIM_GET_IT_SOURCE(htim, TIM_IT_TRIGGER) != RESET)
 8006602:	687b      	ldr	r3, [r7, #4]
 8006604:	681b      	ldr	r3, [r3, #0]
 8006606:	68db      	ldr	r3, [r3, #12]
 8006608:	f003 0340 	and.w	r3, r3, #64	; 0x40
 800660c:	2b40      	cmp	r3, #64	; 0x40
 800660e:	d107      	bne.n	8006620 <HAL_TIM_IRQHandler+0x1dc>
    {
      __HAL_TIM_CLEAR_IT(htim, TIM_IT_TRIGGER);
 8006610:	687b      	ldr	r3, [r7, #4]
 8006612:	681b      	ldr	r3, [r3, #0]
 8006614:	f06f 0240 	mvn.w	r2, #64	; 0x40
 8006618:	611a      	str	r2, [r3, #16]
#if (USE_HAL_TIM_REGISTER_CALLBACKS == 1)
      htim->TriggerCallback(htim);
#else
      HAL_TIM_TriggerCallback(htim);
 800661a:	6878      	ldr	r0, [r7, #4]
 800661c:	f000 f8d4 	bl	80067c8 <HAL_TIM_TriggerCallback>
#endif /* USE_HAL_TIM_REGISTER_CALLBACKS */
    }
  }
  /* TIM commutation event */
  if (__HAL_TIM_GET_FLAG(htim, TIM_FLAG_COM) != RESET)
 8006620:	687b      	ldr	r3, [r7, #4]
 8006622:	681b      	ldr	r3, [r3, #0]
 8006624:	691b      	ldr	r3, [r3, #16]
 8006626:	f003 0320 	and.w	r3, r3, #32
 800662a:	2b20      	cmp	r3, #32
 800662c:	d10e      	bne.n	800664c <HAL_TIM_IRQHandler+0x208>
  {
    if (__HAL_TIM_GET_IT_SOURCE(htim, TIM_IT_COM) != RESET)
 800662e:	687b      	ldr	r3, [r7, #4]
 8006630:	681b      	ldr	r3, [r3, #0]
 8006632:	68db      	ldr	r3, [r3, #12]
 8006634:	f003 0320 	and.w	r3, r3, #32
 8006638:	2b20      	cmp	r3, #32
 800663a:	d107      	bne.n	800664c <HAL_TIM_IRQHandler+0x208>
    {
      __HAL_TIM_CLEAR_IT(htim, TIM_FLAG_COM);
 800663c:	687b      	ldr	r3, [r7, #4]
 800663e:	681b      	ldr	r3, [r3, #0]
 8006640:	f06f 0220 	mvn.w	r2, #32
 8006644:	611a      	str	r2, [r3, #16]
#if (USE_HAL_TIM_REGISTER_CALLBACKS == 1)
      htim->CommutationCallback(htim);
#else
      HAL_TIMEx_CommutCallback(htim);
 8006646:	6878      	ldr	r0, [r7, #4]
 8006648:	f000 fb34 	bl	8006cb4 <HAL_TIMEx_CommutCallback>
#endif /* USE_HAL_TIM_REGISTER_CALLBACKS */
    }
  }
}
 800664c:	bf00      	nop
 800664e:	3708      	adds	r7, #8
 8006650:	46bd      	mov	sp, r7
 8006652:	bd80      	pop	{r7, pc}

08006654 <HAL_TIM_IC_ConfigChannel>:
  *            @arg TIM_CHANNEL_3: TIM Channel 3 selected
  *            @arg TIM_CHANNEL_4: TIM Channel 4 selected
  * @retval HAL status
  */
HAL_StatusTypeDef HAL_TIM_IC_ConfigChannel(TIM_HandleTypeDef *htim, TIM_IC_InitTypeDef *sConfig, uint32_t Channel)
{
 8006654:	b580      	push	{r7, lr}
 8006656:	b086      	sub	sp, #24
 8006658:	af00      	add	r7, sp, #0
 800665a:	60f8      	str	r0, [r7, #12]
 800665c:	60b9      	str	r1, [r7, #8]
 800665e:	607a      	str	r2, [r7, #4]
  HAL_StatusTypeDef status = HAL_OK;
 8006660:	2300      	movs	r3, #0
 8006662:	75fb      	strb	r3, [r7, #23]
  assert_param(IS_TIM_IC_SELECTION(sConfig->ICSelection));
  assert_param(IS_TIM_IC_PRESCALER(sConfig->ICPrescaler));
  assert_param(IS_TIM_IC_FILTER(sConfig->ICFilter));

  /* Process Locked */
  __HAL_LOCK(htim);
 8006664:	68fb      	ldr	r3, [r7, #12]
 8006666:	f893 303c 	ldrb.w	r3, [r3, #60]	; 0x3c
 800666a:	2b01      	cmp	r3, #1
 800666c:	d101      	bne.n	8006672 <HAL_TIM_IC_ConfigChannel+0x1e>
 800666e:	2302      	movs	r3, #2
 8006670:	e088      	b.n	8006784 <HAL_TIM_IC_ConfigChannel+0x130>
 8006672:	68fb      	ldr	r3, [r7, #12]
 8006674:	2201      	movs	r2, #1
 8006676:	f883 203c 	strb.w	r2, [r3, #60]	; 0x3c

  if (Channel == TIM_CHANNEL_1)
 800667a:	687b      	ldr	r3, [r7, #4]
 800667c:	2b00      	cmp	r3, #0
 800667e:	d11b      	bne.n	80066b8 <HAL_TIM_IC_ConfigChannel+0x64>
  {
    /* TI1 Configuration */
    TIM_TI1_SetConfig(htim->Instance,
 8006680:	68fb      	ldr	r3, [r7, #12]
 8006682:	6818      	ldr	r0, [r3, #0]
 8006684:	68bb      	ldr	r3, [r7, #8]
 8006686:	6819      	ldr	r1, [r3, #0]
 8006688:	68bb      	ldr	r3, [r7, #8]
 800668a:	685a      	ldr	r2, [r3, #4]
 800668c:	68bb      	ldr	r3, [r7, #8]
 800668e:	68db      	ldr	r3, [r3, #12]
 8006690:	f000 f944 	bl	800691c <TIM_TI1_SetConfig>
                      sConfig->ICPolarity,
                      sConfig->ICSelection,
                      sConfig->ICFilter);

    /* Reset the IC1PSC Bits */
    htim->Instance->CCMR1 &= ~TIM_CCMR1_IC1PSC;
 8006694:	68fb      	ldr	r3, [r7, #12]
 8006696:	681b      	ldr	r3, [r3, #0]
 8006698:	699a      	ldr	r2, [r3, #24]
 800669a:	68fb      	ldr	r3, [r7, #12]
 800669c:	681b      	ldr	r3, [r3, #0]
 800669e:	f022 020c 	bic.w	r2, r2, #12
 80066a2:	619a      	str	r2, [r3, #24]

    /* Set the IC1PSC value */
    htim->Instance->CCMR1 |= sConfig->ICPrescaler;
 80066a4:	68fb      	ldr	r3, [r7, #12]
 80066a6:	681b      	ldr	r3, [r3, #0]
 80066a8:	6999      	ldr	r1, [r3, #24]
 80066aa:	68bb      	ldr	r3, [r7, #8]
 80066ac:	689a      	ldr	r2, [r3, #8]
 80066ae:	68fb      	ldr	r3, [r7, #12]
 80066b0:	681b      	ldr	r3, [r3, #0]
 80066b2:	430a      	orrs	r2, r1
 80066b4:	619a      	str	r2, [r3, #24]
 80066b6:	e060      	b.n	800677a <HAL_TIM_IC_ConfigChannel+0x126>
  }
  else if (Channel == TIM_CHANNEL_2)
 80066b8:	687b      	ldr	r3, [r7, #4]
 80066ba:	2b04      	cmp	r3, #4
 80066bc:	d11c      	bne.n	80066f8 <HAL_TIM_IC_ConfigChannel+0xa4>
  {
    /* TI2 Configuration */
    assert_param(IS_TIM_CC2_INSTANCE(htim->Instance));

    TIM_TI2_SetConfig(htim->Instance,
 80066be:	68fb      	ldr	r3, [r7, #12]
 80066c0:	6818      	ldr	r0, [r3, #0]
 80066c2:	68bb      	ldr	r3, [r7, #8]
 80066c4:	6819      	ldr	r1, [r3, #0]
 80066c6:	68bb      	ldr	r3, [r7, #8]
 80066c8:	685a      	ldr	r2, [r3, #4]
 80066ca:	68bb      	ldr	r3, [r7, #8]
 80066cc:	68db      	ldr	r3, [r3, #12]
 80066ce:	f000 f999 	bl	8006a04 <TIM_TI2_SetConfig>
                      sConfig->ICPolarity,
                      sConfig->ICSelection,
                      sConfig->ICFilter);

    /* Reset the IC2PSC Bits */
    htim->Instance->CCMR1 &= ~TIM_CCMR1_IC2PSC;
 80066d2:	68fb      	ldr	r3, [r7, #12]
 80066d4:	681b      	ldr	r3, [r3, #0]
 80066d6:	699a      	ldr	r2, [r3, #24]
 80066d8:	68fb      	ldr	r3, [r7, #12]
 80066da:	681b      	ldr	r3, [r3, #0]
 80066dc:	f422 6240 	bic.w	r2, r2, #3072	; 0xc00
 80066e0:	619a      	str	r2, [r3, #24]

    /* Set the IC2PSC value */
    htim->Instance->CCMR1 |= (sConfig->ICPrescaler << 8U);
 80066e2:	68fb      	ldr	r3, [r7, #12]
 80066e4:	681b      	ldr	r3, [r3, #0]
 80066e6:	6999      	ldr	r1, [r3, #24]
 80066e8:	68bb      	ldr	r3, [r7, #8]
 80066ea:	689b      	ldr	r3, [r3, #8]
 80066ec:	021a      	lsls	r2, r3, #8
 80066ee:	68fb      	ldr	r3, [r7, #12]
 80066f0:	681b      	ldr	r3, [r3, #0]
 80066f2:	430a      	orrs	r2, r1
 80066f4:	619a      	str	r2, [r3, #24]
 80066f6:	e040      	b.n	800677a <HAL_TIM_IC_ConfigChannel+0x126>
  }
  else if (Channel == TIM_CHANNEL_3)
 80066f8:	687b      	ldr	r3, [r7, #4]
 80066fa:	2b08      	cmp	r3, #8
 80066fc:	d11b      	bne.n	8006736 <HAL_TIM_IC_ConfigChannel+0xe2>
  {
    /* TI3 Configuration */
    assert_param(IS_TIM_CC3_INSTANCE(htim->Instance));

    TIM_TI3_SetConfig(htim->Instance,
 80066fe:	68fb      	ldr	r3, [r7, #12]
 8006700:	6818      	ldr	r0, [r3, #0]
 8006702:	68bb      	ldr	r3, [r7, #8]
 8006704:	6819      	ldr	r1, [r3, #0]
 8006706:	68bb      	ldr	r3, [r7, #8]
 8006708:	685a      	ldr	r2, [r3, #4]
 800670a:	68bb      	ldr	r3, [r7, #8]
 800670c:	68db      	ldr	r3, [r3, #12]
 800670e:	f000 f9b6 	bl	8006a7e <TIM_TI3_SetConfig>
                      sConfig->ICPolarity,
                      sConfig->ICSelection,
                      sConfig->ICFilter);

    /* Reset the IC3PSC Bits */
    htim->Instance->CCMR2 &= ~TIM_CCMR2_IC3PSC;
 8006712:	68fb      	ldr	r3, [r7, #12]
 8006714:	681b      	ldr	r3, [r3, #0]
 8006716:	69da      	ldr	r2, [r3, #28]
 8006718:	68fb      	ldr	r3, [r7, #12]
 800671a:	681b      	ldr	r3, [r3, #0]
 800671c:	f022 020c 	bic.w	r2, r2, #12
 8006720:	61da      	str	r2, [r3, #28]

    /* Set the IC3PSC value */
    htim->Instance->CCMR2 |= sConfig->ICPrescaler;
 8006722:	68fb      	ldr	r3, [r7, #12]
 8006724:	681b      	ldr	r3, [r3, #0]
 8006726:	69d9      	ldr	r1, [r3, #28]
 8006728:	68bb      	ldr	r3, [r7, #8]
 800672a:	689a      	ldr	r2, [r3, #8]
 800672c:	68fb      	ldr	r3, [r7, #12]
 800672e:	681b      	ldr	r3, [r3, #0]
 8006730:	430a      	orrs	r2, r1
 8006732:	61da      	str	r2, [r3, #28]
 8006734:	e021      	b.n	800677a <HAL_TIM_IC_ConfigChannel+0x126>
  }
  else if (Channel == TIM_CHANNEL_4)
 8006736:	687b      	ldr	r3, [r7, #4]
 8006738:	2b0c      	cmp	r3, #12
 800673a:	d11c      	bne.n	8006776 <HAL_TIM_IC_ConfigChannel+0x122>
  {
    /* TI4 Configuration */
    assert_param(IS_TIM_CC4_INSTANCE(htim->Instance));

    TIM_TI4_SetConfig(htim->Instance,
 800673c:	68fb      	ldr	r3, [r7, #12]
 800673e:	6818      	ldr	r0, [r3, #0]
 8006740:	68bb      	ldr	r3, [r7, #8]
 8006742:	6819      	ldr	r1, [r3, #0]
 8006744:	68bb      	ldr	r3, [r7, #8]
 8006746:	685a      	ldr	r2, [r3, #4]
 8006748:	68bb      	ldr	r3, [r7, #8]
 800674a:	68db      	ldr	r3, [r3, #12]
 800674c:	f000 f9d3 	bl	8006af6 <TIM_TI4_SetConfig>
                      sConfig->ICPolarity,
                      sConfig->ICSelection,
                      sConfig->ICFilter);

    /* Reset the IC4PSC Bits */
    htim->Instance->CCMR2 &= ~TIM_CCMR2_IC4PSC;
 8006750:	68fb      	ldr	r3, [r7, #12]
 8006752:	681b      	ldr	r3, [r3, #0]
 8006754:	69da      	ldr	r2, [r3, #28]
 8006756:	68fb      	ldr	r3, [r7, #12]
 8006758:	681b      	ldr	r3, [r3, #0]
 800675a:	f422 6240 	bic.w	r2, r2, #3072	; 0xc00
 800675e:	61da      	str	r2, [r3, #28]

    /* Set the IC4PSC value */
    htim->Instance->CCMR2 |= (sConfig->ICPrescaler << 8U);
 8006760:	68fb      	ldr	r3, [r7, #12]
 8006762:	681b      	ldr	r3, [r3, #0]
 8006764:	69d9      	ldr	r1, [r3, #28]
 8006766:	68bb      	ldr	r3, [r7, #8]
 8006768:	689b      	ldr	r3, [r3, #8]
 800676a:	021a      	lsls	r2, r3, #8
 800676c:	68fb      	ldr	r3, [r7, #12]
 800676e:	681b      	ldr	r3, [r3, #0]
 8006770:	430a      	orrs	r2, r1
 8006772:	61da      	str	r2, [r3, #28]
 8006774:	e001      	b.n	800677a <HAL_TIM_IC_ConfigChannel+0x126>
  }
  else
  {
    status = HAL_ERROR;
 8006776:	2301      	movs	r3, #1
 8006778:	75fb      	strb	r3, [r7, #23]
  }

  __HAL_UNLOCK(htim);
 800677a:	68fb      	ldr	r3, [r7, #12]
 800677c:	2200      	movs	r2, #0
 800677e:	f883 203c 	strb.w	r2, [r3, #60]	; 0x3c

  return status;
 8006782:	7dfb      	ldrb	r3, [r7, #23]
}
 8006784:	4618      	mov	r0, r3
 8006786:	3718      	adds	r7, #24
 8006788:	46bd      	mov	sp, r7
 800678a:	bd80      	pop	{r7, pc}

0800678c <HAL_TIM_PeriodElapsedCallback>:
  * @brief  Period elapsed callback in non-blocking mode
  * @param  htim TIM handle
  * @retval None
  */
__weak void HAL_TIM_PeriodElapsedCallback(TIM_HandleTypeDef *htim)
{
 800678c:	b480      	push	{r7}
 800678e:	b083      	sub	sp, #12
 8006790:	af00      	add	r7, sp, #0
 8006792:	6078      	str	r0, [r7, #4]
  UNUSED(htim);

  /* NOTE : This function should not be modified, when the callback is needed,
            the HAL_TIM_PeriodElapsedCallback could be implemented in the user file
   */
}
 8006794:	bf00      	nop
 8006796:	370c      	adds	r7, #12
 8006798:	46bd      	mov	sp, r7
 800679a:	f85d 7b04 	ldr.w	r7, [sp], #4
 800679e:	4770      	bx	lr

080067a0 <HAL_TIM_OC_DelayElapsedCallback>:
  * @brief  Output Compare callback in non-blocking mode
  * @param  htim TIM OC handle
  * @retval None
  */
__weak void HAL_TIM_OC_DelayElapsedCallback(TIM_HandleTypeDef *htim)
{
 80067a0:	b480      	push	{r7}
 80067a2:	b083      	sub	sp, #12
 80067a4:	af00      	add	r7, sp, #0
 80067a6:	6078      	str	r0, [r7, #4]
  UNUSED(htim);

  /* NOTE : This function should not be modified, when the callback is needed,
            the HAL_TIM_OC_DelayElapsedCallback could be implemented in the user file
   */
}
 80067a8:	bf00      	nop
 80067aa:	370c      	adds	r7, #12
 80067ac:	46bd      	mov	sp, r7
 80067ae:	f85d 7b04 	ldr.w	r7, [sp], #4
 80067b2:	4770      	bx	lr

080067b4 <HAL_TIM_PWM_PulseFinishedCallback>:
  * @brief  PWM Pulse finished callback in non-blocking mode
  * @param  htim TIM handle
  * @retval None
  */
__weak void HAL_TIM_PWM_PulseFinishedCallback(TIM_HandleTypeDef *htim)
{
 80067b4:	b480      	push	{r7}
 80067b6:	b083      	sub	sp, #12
 80067b8:	af00      	add	r7, sp, #0
 80067ba:	6078      	str	r0, [r7, #4]
  UNUSED(htim);

  /* NOTE : This function should not be modified, when the callback is needed,
            the HAL_TIM_PWM_PulseFinishedCallback could be implemented in the user file
   */
}
 80067bc:	bf00      	nop
 80067be:	370c      	adds	r7, #12
 80067c0:	46bd      	mov	sp, r7
 80067c2:	f85d 7b04 	ldr.w	r7, [sp], #4
 80067c6:	4770      	bx	lr

080067c8 <HAL_TIM_TriggerCallback>:
  * @brief  Hall Trigger detection callback in non-blocking mode
  * @param  htim TIM handle
  * @retval None
  */
__weak void HAL_TIM_TriggerCallback(TIM_HandleTypeDef *htim)
{
 80067c8:	b480      	push	{r7}
 80067ca:	b083      	sub	sp, #12
 80067cc:	af00      	add	r7, sp, #0
 80067ce:	6078      	str	r0, [r7, #4]
  UNUSED(htim);

  /* NOTE : This function should not be modified, when the callback is needed,
            the HAL_TIM_TriggerCallback could be implemented in the user file
   */
}
 80067d0:	bf00      	nop
 80067d2:	370c      	adds	r7, #12
 80067d4:	46bd      	mov	sp, r7
 80067d6:	f85d 7b04 	ldr.w	r7, [sp], #4
 80067da:	4770      	bx	lr

080067dc <TIM_Base_SetConfig>:
  * @param  TIMx TIM peripheral
  * @param  Structure TIM Base configuration structure
  * @retval None
  */
void TIM_Base_SetConfig(TIM_TypeDef *TIMx, TIM_Base_InitTypeDef *Structure)
{
 80067dc:	b480      	push	{r7}
 80067de:	b085      	sub	sp, #20
 80067e0:	af00      	add	r7, sp, #0
 80067e2:	6078      	str	r0, [r7, #4]
 80067e4:	6039      	str	r1, [r7, #0]
  uint32_t tmpcr1;
  tmpcr1 = TIMx->CR1;
 80067e6:	687b      	ldr	r3, [r7, #4]
 80067e8:	681b      	ldr	r3, [r3, #0]
 80067ea:	60fb      	str	r3, [r7, #12]

  /* Set TIM Time Base Unit parameters ---------------------------------------*/
  if (IS_TIM_COUNTER_MODE_SELECT_INSTANCE(TIMx))
 80067ec:	687b      	ldr	r3, [r7, #4]
 80067ee:	4a40      	ldr	r2, [pc, #256]	; (80068f0 <TIM_Base_SetConfig+0x114>)
 80067f0:	4293      	cmp	r3, r2
 80067f2:	d013      	beq.n	800681c <TIM_Base_SetConfig+0x40>
 80067f4:	687b      	ldr	r3, [r7, #4]
 80067f6:	f1b3 4f80 	cmp.w	r3, #1073741824	; 0x40000000
 80067fa:	d00f      	beq.n	800681c <TIM_Base_SetConfig+0x40>
 80067fc:	687b      	ldr	r3, [r7, #4]
 80067fe:	4a3d      	ldr	r2, [pc, #244]	; (80068f4 <TIM_Base_SetConfig+0x118>)
 8006800:	4293      	cmp	r3, r2
 8006802:	d00b      	beq.n	800681c <TIM_Base_SetConfig+0x40>
 8006804:	687b      	ldr	r3, [r7, #4]
 8006806:	4a3c      	ldr	r2, [pc, #240]	; (80068f8 <TIM_Base_SetConfig+0x11c>)
 8006808:	4293      	cmp	r3, r2
 800680a:	d007      	beq.n	800681c <TIM_Base_SetConfig+0x40>
 800680c:	687b      	ldr	r3, [r7, #4]
 800680e:	4a3b      	ldr	r2, [pc, #236]	; (80068fc <TIM_Base_SetConfig+0x120>)
 8006810:	4293      	cmp	r3, r2
 8006812:	d003      	beq.n	800681c <TIM_Base_SetConfig+0x40>
 8006814:	687b      	ldr	r3, [r7, #4]
 8006816:	4a3a      	ldr	r2, [pc, #232]	; (8006900 <TIM_Base_SetConfig+0x124>)
 8006818:	4293      	cmp	r3, r2
 800681a:	d108      	bne.n	800682e <TIM_Base_SetConfig+0x52>
  {
    /* Select the Counter Mode */
    tmpcr1 &= ~(TIM_CR1_DIR | TIM_CR1_CMS);
 800681c:	68fb      	ldr	r3, [r7, #12]
 800681e:	f023 0370 	bic.w	r3, r3, #112	; 0x70
 8006822:	60fb      	str	r3, [r7, #12]
    tmpcr1 |= Structure->CounterMode;
 8006824:	683b      	ldr	r3, [r7, #0]
 8006826:	685b      	ldr	r3, [r3, #4]
 8006828:	68fa      	ldr	r2, [r7, #12]
 800682a:	4313      	orrs	r3, r2
 800682c:	60fb      	str	r3, [r7, #12]
  }

  if (IS_TIM_CLOCK_DIVISION_INSTANCE(TIMx))
 800682e:	687b      	ldr	r3, [r7, #4]
 8006830:	4a2f      	ldr	r2, [pc, #188]	; (80068f0 <TIM_Base_SetConfig+0x114>)
 8006832:	4293      	cmp	r3, r2
 8006834:	d02b      	beq.n	800688e <TIM_Base_SetConfig+0xb2>
 8006836:	687b      	ldr	r3, [r7, #4]
 8006838:	f1b3 4f80 	cmp.w	r3, #1073741824	; 0x40000000
 800683c:	d027      	beq.n	800688e <TIM_Base_SetConfig+0xb2>
 800683e:	687b      	ldr	r3, [r7, #4]
 8006840:	4a2c      	ldr	r2, [pc, #176]	; (80068f4 <TIM_Base_SetConfig+0x118>)
 8006842:	4293      	cmp	r3, r2
 8006844:	d023      	beq.n	800688e <TIM_Base_SetConfig+0xb2>
 8006846:	687b      	ldr	r3, [r7, #4]
 8006848:	4a2b      	ldr	r2, [pc, #172]	; (80068f8 <TIM_Base_SetConfig+0x11c>)
 800684a:	4293      	cmp	r3, r2
 800684c:	d01f      	beq.n	800688e <TIM_Base_SetConfig+0xb2>
 800684e:	687b      	ldr	r3, [r7, #4]
 8006850:	4a2a      	ldr	r2, [pc, #168]	; (80068fc <TIM_Base_SetConfig+0x120>)
 8006852:	4293      	cmp	r3, r2
 8006854:	d01b      	beq.n	800688e <TIM_Base_SetConfig+0xb2>
 8006856:	687b      	ldr	r3, [r7, #4]
 8006858:	4a29      	ldr	r2, [pc, #164]	; (8006900 <TIM_Base_SetConfig+0x124>)
 800685a:	4293      	cmp	r3, r2
 800685c:	d017      	beq.n	800688e <TIM_Base_SetConfig+0xb2>
 800685e:	687b      	ldr	r3, [r7, #4]
 8006860:	4a28      	ldr	r2, [pc, #160]	; (8006904 <TIM_Base_SetConfig+0x128>)
 8006862:	4293      	cmp	r3, r2
 8006864:	d013      	beq.n	800688e <TIM_Base_SetConfig+0xb2>
 8006866:	687b      	ldr	r3, [r7, #4]
 8006868:	4a27      	ldr	r2, [pc, #156]	; (8006908 <TIM_Base_SetConfig+0x12c>)
 800686a:	4293      	cmp	r3, r2
 800686c:	d00f      	beq.n	800688e <TIM_Base_SetConfig+0xb2>
 800686e:	687b      	ldr	r3, [r7, #4]
 8006870:	4a26      	ldr	r2, [pc, #152]	; (800690c <TIM_Base_SetConfig+0x130>)
 8006872:	4293      	cmp	r3, r2
 8006874:	d00b      	beq.n	800688e <TIM_Base_SetConfig+0xb2>
 8006876:	687b      	ldr	r3, [r7, #4]
 8006878:	4a25      	ldr	r2, [pc, #148]	; (8006910 <TIM_Base_SetConfig+0x134>)
 800687a:	4293      	cmp	r3, r2
 800687c:	d007      	beq.n	800688e <TIM_Base_SetConfig+0xb2>
 800687e:	687b      	ldr	r3, [r7, #4]
 8006880:	4a24      	ldr	r2, [pc, #144]	; (8006914 <TIM_Base_SetConfig+0x138>)
 8006882:	4293      	cmp	r3, r2
 8006884:	d003      	beq.n	800688e <TIM_Base_SetConfig+0xb2>
 8006886:	687b      	ldr	r3, [r7, #4]
 8006888:	4a23      	ldr	r2, [pc, #140]	; (8006918 <TIM_Base_SetConfig+0x13c>)
 800688a:	4293      	cmp	r3, r2
 800688c:	d108      	bne.n	80068a0 <TIM_Base_SetConfig+0xc4>
  {
    /* Set the clock division */
    tmpcr1 &= ~TIM_CR1_CKD;
 800688e:	68fb      	ldr	r3, [r7, #12]
 8006890:	f423 7340 	bic.w	r3, r3, #768	; 0x300
 8006894:	60fb      	str	r3, [r7, #12]
    tmpcr1 |= (uint32_t)Structure->ClockDivision;
 8006896:	683b      	ldr	r3, [r7, #0]
 8006898:	68db      	ldr	r3, [r3, #12]
 800689a:	68fa      	ldr	r2, [r7, #12]
 800689c:	4313      	orrs	r3, r2
 800689e:	60fb      	str	r3, [r7, #12]
  }

  /* Set the auto-reload preload */
  MODIFY_REG(tmpcr1, TIM_CR1_ARPE, Structure->AutoReloadPreload);
 80068a0:	68fb      	ldr	r3, [r7, #12]
 80068a2:	f023 0280 	bic.w	r2, r3, #128	; 0x80
 80068a6:	683b      	ldr	r3, [r7, #0]
 80068a8:	695b      	ldr	r3, [r3, #20]
 80068aa:	4313      	orrs	r3, r2
 80068ac:	60fb      	str	r3, [r7, #12]

  TIMx->CR1 = tmpcr1;
 80068ae:	687b      	ldr	r3, [r7, #4]
 80068b0:	68fa      	ldr	r2, [r7, #12]
 80068b2:	601a      	str	r2, [r3, #0]

  /* Set the Autoreload value */
  TIMx->ARR = (uint32_t)Structure->Period ;
 80068b4:	683b      	ldr	r3, [r7, #0]
 80068b6:	689a      	ldr	r2, [r3, #8]
 80068b8:	687b      	ldr	r3, [r7, #4]
 80068ba:	62da      	str	r2, [r3, #44]	; 0x2c

  /* Set the Prescaler value */
  TIMx->PSC = Structure->Prescaler;
 80068bc:	683b      	ldr	r3, [r7, #0]
 80068be:	681a      	ldr	r2, [r3, #0]
 80068c0:	687b      	ldr	r3, [r7, #4]
 80068c2:	629a      	str	r2, [r3, #40]	; 0x28

  if (IS_TIM_REPETITION_COUNTER_INSTANCE(TIMx))
 80068c4:	687b      	ldr	r3, [r7, #4]
 80068c6:	4a0a      	ldr	r2, [pc, #40]	; (80068f0 <TIM_Base_SetConfig+0x114>)
 80068c8:	4293      	cmp	r3, r2
 80068ca:	d003      	beq.n	80068d4 <TIM_Base_SetConfig+0xf8>
 80068cc:	687b      	ldr	r3, [r7, #4]
 80068ce:	4a0c      	ldr	r2, [pc, #48]	; (8006900 <TIM_Base_SetConfig+0x124>)
 80068d0:	4293      	cmp	r3, r2
 80068d2:	d103      	bne.n	80068dc <TIM_Base_SetConfig+0x100>
  {
    /* Set the Repetition Counter value */
    TIMx->RCR = Structure->RepetitionCounter;
 80068d4:	683b      	ldr	r3, [r7, #0]
 80068d6:	691a      	ldr	r2, [r3, #16]
 80068d8:	687b      	ldr	r3, [r7, #4]
 80068da:	631a      	str	r2, [r3, #48]	; 0x30
  }

  /* Generate an update event to reload the Prescaler
     and the repetition counter (only for advanced timer) value immediately */
  TIMx->EGR = TIM_EGR_UG;
 80068dc:	687b      	ldr	r3, [r7, #4]
 80068de:	2201      	movs	r2, #1
 80068e0:	615a      	str	r2, [r3, #20]
}
 80068e2:	bf00      	nop
 80068e4:	3714      	adds	r7, #20
 80068e6:	46bd      	mov	sp, r7
 80068e8:	f85d 7b04 	ldr.w	r7, [sp], #4
 80068ec:	4770      	bx	lr
 80068ee:	bf00      	nop
 80068f0:	40010000 	.word	0x40010000
 80068f4:	40000400 	.word	0x40000400
 80068f8:	40000800 	.word	0x40000800
 80068fc:	40000c00 	.word	0x40000c00
 8006900:	40010400 	.word	0x40010400
 8006904:	40014000 	.word	0x40014000
 8006908:	40014400 	.word	0x40014400
 800690c:	40014800 	.word	0x40014800
 8006910:	40001800 	.word	0x40001800
 8006914:	40001c00 	.word	0x40001c00
 8006918:	40002000 	.word	0x40002000

0800691c <TIM_TI1_SetConfig>:
  *       (on channel2 path) is used as the input signal. Therefore CCMR1 must be
  *        protected against un-initialized filter and polarity values.
  */
void TIM_TI1_SetConfig(TIM_TypeDef *TIMx, uint32_t TIM_ICPolarity, uint32_t TIM_ICSelection,
                       uint32_t TIM_ICFilter)
{
 800691c:	b480      	push	{r7}
 800691e:	b087      	sub	sp, #28
 8006920:	af00      	add	r7, sp, #0
 8006922:	60f8      	str	r0, [r7, #12]
 8006924:	60b9      	str	r1, [r7, #8]
 8006926:	607a      	str	r2, [r7, #4]
 8006928:	603b      	str	r3, [r7, #0]
  uint32_t tmpccmr1;
  uint32_t tmpccer;

  /* Disable the Channel 1: Reset the CC1E Bit */
  TIMx->CCER &= ~TIM_CCER_CC1E;
 800692a:	68fb      	ldr	r3, [r7, #12]
 800692c:	6a1b      	ldr	r3, [r3, #32]
 800692e:	f023 0201 	bic.w	r2, r3, #1
 8006932:	68fb      	ldr	r3, [r7, #12]
 8006934:	621a      	str	r2, [r3, #32]
  tmpccmr1 = TIMx->CCMR1;
 8006936:	68fb      	ldr	r3, [r7, #12]
 8006938:	699b      	ldr	r3, [r3, #24]
 800693a:	617b      	str	r3, [r7, #20]
  tmpccer = TIMx->CCER;
 800693c:	68fb      	ldr	r3, [r7, #12]
 800693e:	6a1b      	ldr	r3, [r3, #32]
 8006940:	613b      	str	r3, [r7, #16]

  /* Select the Input */
  if (IS_TIM_CC2_INSTANCE(TIMx) != RESET)
 8006942:	68fb      	ldr	r3, [r7, #12]
 8006944:	4a28      	ldr	r2, [pc, #160]	; (80069e8 <TIM_TI1_SetConfig+0xcc>)
 8006946:	4293      	cmp	r3, r2
 8006948:	d01b      	beq.n	8006982 <TIM_TI1_SetConfig+0x66>
 800694a:	68fb      	ldr	r3, [r7, #12]
 800694c:	f1b3 4f80 	cmp.w	r3, #1073741824	; 0x40000000
 8006950:	d017      	beq.n	8006982 <TIM_TI1_SetConfig+0x66>
 8006952:	68fb      	ldr	r3, [r7, #12]
 8006954:	4a25      	ldr	r2, [pc, #148]	; (80069ec <TIM_TI1_SetConfig+0xd0>)
 8006956:	4293      	cmp	r3, r2
 8006958:	d013      	beq.n	8006982 <TIM_TI1_SetConfig+0x66>
 800695a:	68fb      	ldr	r3, [r7, #12]
 800695c:	4a24      	ldr	r2, [pc, #144]	; (80069f0 <TIM_TI1_SetConfig+0xd4>)
 800695e:	4293      	cmp	r3, r2
 8006960:	d00f      	beq.n	8006982 <TIM_TI1_SetConfig+0x66>
 8006962:	68fb      	ldr	r3, [r7, #12]
 8006964:	4a23      	ldr	r2, [pc, #140]	; (80069f4 <TIM_TI1_SetConfig+0xd8>)
 8006966:	4293      	cmp	r3, r2
 8006968:	d00b      	beq.n	8006982 <TIM_TI1_SetConfig+0x66>
 800696a:	68fb      	ldr	r3, [r7, #12]
 800696c:	4a22      	ldr	r2, [pc, #136]	; (80069f8 <TIM_TI1_SetConfig+0xdc>)
 800696e:	4293      	cmp	r3, r2
 8006970:	d007      	beq.n	8006982 <TIM_TI1_SetConfig+0x66>
 8006972:	68fb      	ldr	r3, [r7, #12]
 8006974:	4a21      	ldr	r2, [pc, #132]	; (80069fc <TIM_TI1_SetConfig+0xe0>)
 8006976:	4293      	cmp	r3, r2
 8006978:	d003      	beq.n	8006982 <TIM_TI1_SetConfig+0x66>
 800697a:	68fb      	ldr	r3, [r7, #12]
 800697c:	4a20      	ldr	r2, [pc, #128]	; (8006a00 <TIM_TI1_SetConfig+0xe4>)
 800697e:	4293      	cmp	r3, r2
 8006980:	d101      	bne.n	8006986 <TIM_TI1_SetConfig+0x6a>
 8006982:	2301      	movs	r3, #1
 8006984:	e000      	b.n	8006988 <TIM_TI1_SetConfig+0x6c>
 8006986:	2300      	movs	r3, #0
 8006988:	2b00      	cmp	r3, #0
 800698a:	d008      	beq.n	800699e <TIM_TI1_SetConfig+0x82>
  {
    tmpccmr1 &= ~TIM_CCMR1_CC1S;
 800698c:	697b      	ldr	r3, [r7, #20]
 800698e:	f023 0303 	bic.w	r3, r3, #3
 8006992:	617b      	str	r3, [r7, #20]
    tmpccmr1 |= TIM_ICSelection;
 8006994:	697a      	ldr	r2, [r7, #20]
 8006996:	687b      	ldr	r3, [r7, #4]
 8006998:	4313      	orrs	r3, r2
 800699a:	617b      	str	r3, [r7, #20]
 800699c:	e003      	b.n	80069a6 <TIM_TI1_SetConfig+0x8a>
  }
  else
  {
    tmpccmr1 |= TIM_CCMR1_CC1S_0;
 800699e:	697b      	ldr	r3, [r7, #20]
 80069a0:	f043 0301 	orr.w	r3, r3, #1
 80069a4:	617b      	str	r3, [r7, #20]
  }

  /* Set the filter */
  tmpccmr1 &= ~TIM_CCMR1_IC1F;
 80069a6:	697b      	ldr	r3, [r7, #20]
 80069a8:	f023 03f0 	bic.w	r3, r3, #240	; 0xf0
 80069ac:	617b      	str	r3, [r7, #20]
  tmpccmr1 |= ((TIM_ICFilter << 4U) & TIM_CCMR1_IC1F);
 80069ae:	683b      	ldr	r3, [r7, #0]
 80069b0:	011b      	lsls	r3, r3, #4
 80069b2:	b2db      	uxtb	r3, r3
 80069b4:	697a      	ldr	r2, [r7, #20]
 80069b6:	4313      	orrs	r3, r2
 80069b8:	617b      	str	r3, [r7, #20]

  /* Select the Polarity and set the CC1E Bit */
  tmpccer &= ~(TIM_CCER_CC1P | TIM_CCER_CC1NP);
 80069ba:	693b      	ldr	r3, [r7, #16]
 80069bc:	f023 030a 	bic.w	r3, r3, #10
 80069c0:	613b      	str	r3, [r7, #16]
  tmpccer |= (TIM_ICPolarity & (TIM_CCER_CC1P | TIM_CCER_CC1NP));
 80069c2:	68bb      	ldr	r3, [r7, #8]
 80069c4:	f003 030a 	and.w	r3, r3, #10
 80069c8:	693a      	ldr	r2, [r7, #16]
 80069ca:	4313      	orrs	r3, r2
 80069cc:	613b      	str	r3, [r7, #16]

  /* Write to TIMx CCMR1 and CCER registers */
  TIMx->CCMR1 = tmpccmr1;
 80069ce:	68fb      	ldr	r3, [r7, #12]
 80069d0:	697a      	ldr	r2, [r7, #20]
 80069d2:	619a      	str	r2, [r3, #24]
  TIMx->CCER = tmpccer;
 80069d4:	68fb      	ldr	r3, [r7, #12]
 80069d6:	693a      	ldr	r2, [r7, #16]
 80069d8:	621a      	str	r2, [r3, #32]
}
 80069da:	bf00      	nop
 80069dc:	371c      	adds	r7, #28
 80069de:	46bd      	mov	sp, r7
 80069e0:	f85d 7b04 	ldr.w	r7, [sp], #4
 80069e4:	4770      	bx	lr
 80069e6:	bf00      	nop
 80069e8:	40010000 	.word	0x40010000
 80069ec:	40000400 	.word	0x40000400
 80069f0:	40000800 	.word	0x40000800
 80069f4:	40000c00 	.word	0x40000c00
 80069f8:	40010400 	.word	0x40010400
 80069fc:	40014000 	.word	0x40014000
 8006a00:	40001800 	.word	0x40001800

08006a04 <TIM_TI2_SetConfig>:
  *       (on channel1 path) is used as the input signal. Therefore CCMR1 must be
  *        protected against un-initialized filter and polarity values.
  */
static void TIM_TI2_SetConfig(TIM_TypeDef *TIMx, uint32_t TIM_ICPolarity, uint32_t TIM_ICSelection,
                              uint32_t TIM_ICFilter)
{
 8006a04:	b480      	push	{r7}
 8006a06:	b087      	sub	sp, #28
 8006a08:	af00      	add	r7, sp, #0
 8006a0a:	60f8      	str	r0, [r7, #12]
 8006a0c:	60b9      	str	r1, [r7, #8]
 8006a0e:	607a      	str	r2, [r7, #4]
 8006a10:	603b      	str	r3, [r7, #0]
  uint32_t tmpccmr1;
  uint32_t tmpccer;

  /* Disable the Channel 2: Reset the CC2E Bit */
  TIMx->CCER &= ~TIM_CCER_CC2E;
 8006a12:	68fb      	ldr	r3, [r7, #12]
 8006a14:	6a1b      	ldr	r3, [r3, #32]
 8006a16:	f023 0210 	bic.w	r2, r3, #16
 8006a1a:	68fb      	ldr	r3, [r7, #12]
 8006a1c:	621a      	str	r2, [r3, #32]
  tmpccmr1 = TIMx->CCMR1;
 8006a1e:	68fb      	ldr	r3, [r7, #12]
 8006a20:	699b      	ldr	r3, [r3, #24]
 8006a22:	617b      	str	r3, [r7, #20]
  tmpccer = TIMx->CCER;
 8006a24:	68fb      	ldr	r3, [r7, #12]
 8006a26:	6a1b      	ldr	r3, [r3, #32]
 8006a28:	613b      	str	r3, [r7, #16]

  /* Select the Input */
  tmpccmr1 &= ~TIM_CCMR1_CC2S;
 8006a2a:	697b      	ldr	r3, [r7, #20]
 8006a2c:	f423 7340 	bic.w	r3, r3, #768	; 0x300
 8006a30:	617b      	str	r3, [r7, #20]
  tmpccmr1 |= (TIM_ICSelection << 8U);
 8006a32:	687b      	ldr	r3, [r7, #4]
 8006a34:	021b      	lsls	r3, r3, #8
 8006a36:	697a      	ldr	r2, [r7, #20]
 8006a38:	4313      	orrs	r3, r2
 8006a3a:	617b      	str	r3, [r7, #20]

  /* Set the filter */
  tmpccmr1 &= ~TIM_CCMR1_IC2F;
 8006a3c:	697b      	ldr	r3, [r7, #20]
 8006a3e:	f423 4370 	bic.w	r3, r3, #61440	; 0xf000
 8006a42:	617b      	str	r3, [r7, #20]
  tmpccmr1 |= ((TIM_ICFilter << 12U) & TIM_CCMR1_IC2F);
 8006a44:	683b      	ldr	r3, [r7, #0]
 8006a46:	031b      	lsls	r3, r3, #12
 8006a48:	b29b      	uxth	r3, r3
 8006a4a:	697a      	ldr	r2, [r7, #20]
 8006a4c:	4313      	orrs	r3, r2
 8006a4e:	617b      	str	r3, [r7, #20]

  /* Select the Polarity and set the CC2E Bit */
  tmpccer &= ~(TIM_CCER_CC2P | TIM_CCER_CC2NP);
 8006a50:	693b      	ldr	r3, [r7, #16]
 8006a52:	f023 03a0 	bic.w	r3, r3, #160	; 0xa0
 8006a56:	613b      	str	r3, [r7, #16]
  tmpccer |= ((TIM_ICPolarity << 4U) & (TIM_CCER_CC2P | TIM_CCER_CC2NP));
 8006a58:	68bb      	ldr	r3, [r7, #8]
 8006a5a:	011b      	lsls	r3, r3, #4
 8006a5c:	f003 03a0 	and.w	r3, r3, #160	; 0xa0
 8006a60:	693a      	ldr	r2, [r7, #16]
 8006a62:	4313      	orrs	r3, r2
 8006a64:	613b      	str	r3, [r7, #16]

  /* Write to TIMx CCMR1 and CCER registers */
  TIMx->CCMR1 = tmpccmr1 ;
 8006a66:	68fb      	ldr	r3, [r7, #12]
 8006a68:	697a      	ldr	r2, [r7, #20]
 8006a6a:	619a      	str	r2, [r3, #24]
  TIMx->CCER = tmpccer;
 8006a6c:	68fb      	ldr	r3, [r7, #12]
 8006a6e:	693a      	ldr	r2, [r7, #16]
 8006a70:	621a      	str	r2, [r3, #32]
}
 8006a72:	bf00      	nop
 8006a74:	371c      	adds	r7, #28
 8006a76:	46bd      	mov	sp, r7
 8006a78:	f85d 7b04 	ldr.w	r7, [sp], #4
 8006a7c:	4770      	bx	lr

08006a7e <TIM_TI3_SetConfig>:
  *       (on channel1 path) is used as the input signal. Therefore CCMR2 must be
  *        protected against un-initialized filter and polarity values.
  */
static void TIM_TI3_SetConfig(TIM_TypeDef *TIMx, uint32_t TIM_ICPolarity, uint32_t TIM_ICSelection,
                              uint32_t TIM_ICFilter)
{
 8006a7e:	b480      	push	{r7}
 8006a80:	b087      	sub	sp, #28
 8006a82:	af00      	add	r7, sp, #0
 8006a84:	60f8      	str	r0, [r7, #12]
 8006a86:	60b9      	str	r1, [r7, #8]
 8006a88:	607a      	str	r2, [r7, #4]
 8006a8a:	603b      	str	r3, [r7, #0]
  uint32_t tmpccmr2;
  uint32_t tmpccer;

  /* Disable the Channel 3: Reset the CC3E Bit */
  TIMx->CCER &= ~TIM_CCER_CC3E;
 8006a8c:	68fb      	ldr	r3, [r7, #12]
 8006a8e:	6a1b      	ldr	r3, [r3, #32]
 8006a90:	f423 7280 	bic.w	r2, r3, #256	; 0x100
 8006a94:	68fb      	ldr	r3, [r7, #12]
 8006a96:	621a      	str	r2, [r3, #32]
  tmpccmr2 = TIMx->CCMR2;
 8006a98:	68fb      	ldr	r3, [r7, #12]
 8006a9a:	69db      	ldr	r3, [r3, #28]
 8006a9c:	617b      	str	r3, [r7, #20]
  tmpccer = TIMx->CCER;
 8006a9e:	68fb      	ldr	r3, [r7, #12]
 8006aa0:	6a1b      	ldr	r3, [r3, #32]
 8006aa2:	613b      	str	r3, [r7, #16]

  /* Select the Input */
  tmpccmr2 &= ~TIM_CCMR2_CC3S;
 8006aa4:	697b      	ldr	r3, [r7, #20]
 8006aa6:	f023 0303 	bic.w	r3, r3, #3
 8006aaa:	617b      	str	r3, [r7, #20]
  tmpccmr2 |= TIM_ICSelection;
 8006aac:	697a      	ldr	r2, [r7, #20]
 8006aae:	687b      	ldr	r3, [r7, #4]
 8006ab0:	4313      	orrs	r3, r2
 8006ab2:	617b      	str	r3, [r7, #20]

  /* Set the filter */
  tmpccmr2 &= ~TIM_CCMR2_IC3F;
 8006ab4:	697b      	ldr	r3, [r7, #20]
 8006ab6:	f023 03f0 	bic.w	r3, r3, #240	; 0xf0
 8006aba:	617b      	str	r3, [r7, #20]
  tmpccmr2 |= ((TIM_ICFilter << 4U) & TIM_CCMR2_IC3F);
 8006abc:	683b      	ldr	r3, [r7, #0]
 8006abe:	011b      	lsls	r3, r3, #4
 8006ac0:	b2db      	uxtb	r3, r3
 8006ac2:	697a      	ldr	r2, [r7, #20]
 8006ac4:	4313      	orrs	r3, r2
 8006ac6:	617b      	str	r3, [r7, #20]

  /* Select the Polarity and set the CC3E Bit */
  tmpccer &= ~(TIM_CCER_CC3P | TIM_CCER_CC3NP);
 8006ac8:	693b      	ldr	r3, [r7, #16]
 8006aca:	f423 6320 	bic.w	r3, r3, #2560	; 0xa00
 8006ace:	613b      	str	r3, [r7, #16]
  tmpccer |= ((TIM_ICPolarity << 8U) & (TIM_CCER_CC3P | TIM_CCER_CC3NP));
 8006ad0:	68bb      	ldr	r3, [r7, #8]
 8006ad2:	021b      	lsls	r3, r3, #8
 8006ad4:	f403 6320 	and.w	r3, r3, #2560	; 0xa00
 8006ad8:	693a      	ldr	r2, [r7, #16]
 8006ada:	4313      	orrs	r3, r2
 8006adc:	613b      	str	r3, [r7, #16]

  /* Write to TIMx CCMR2 and CCER registers */
  TIMx->CCMR2 = tmpccmr2;
 8006ade:	68fb      	ldr	r3, [r7, #12]
 8006ae0:	697a      	ldr	r2, [r7, #20]
 8006ae2:	61da      	str	r2, [r3, #28]
  TIMx->CCER = tmpccer;
 8006ae4:	68fb      	ldr	r3, [r7, #12]
 8006ae6:	693a      	ldr	r2, [r7, #16]
 8006ae8:	621a      	str	r2, [r3, #32]
}
 8006aea:	bf00      	nop
 8006aec:	371c      	adds	r7, #28
 8006aee:	46bd      	mov	sp, r7
 8006af0:	f85d 7b04 	ldr.w	r7, [sp], #4
 8006af4:	4770      	bx	lr

08006af6 <TIM_TI4_SetConfig>:
  *        protected against un-initialized filter and polarity values.
  * @retval None
  */
static void TIM_TI4_SetConfig(TIM_TypeDef *TIMx, uint32_t TIM_ICPolarity, uint32_t TIM_ICSelection,
                              uint32_t TIM_ICFilter)
{
 8006af6:	b480      	push	{r7}
 8006af8:	b087      	sub	sp, #28
 8006afa:	af00      	add	r7, sp, #0
 8006afc:	60f8      	str	r0, [r7, #12]
 8006afe:	60b9      	str	r1, [r7, #8]
 8006b00:	607a      	str	r2, [r7, #4]
 8006b02:	603b      	str	r3, [r7, #0]
  uint32_t tmpccmr2;
  uint32_t tmpccer;

  /* Disable the Channel 4: Reset the CC4E Bit */
  TIMx->CCER &= ~TIM_CCER_CC4E;
 8006b04:	68fb      	ldr	r3, [r7, #12]
 8006b06:	6a1b      	ldr	r3, [r3, #32]
 8006b08:	f423 5280 	bic.w	r2, r3, #4096	; 0x1000
 8006b0c:	68fb      	ldr	r3, [r7, #12]
 8006b0e:	621a      	str	r2, [r3, #32]
  tmpccmr2 = TIMx->CCMR2;
 8006b10:	68fb      	ldr	r3, [r7, #12]
 8006b12:	69db      	ldr	r3, [r3, #28]
 8006b14:	617b      	str	r3, [r7, #20]
  tmpccer = TIMx->CCER;
 8006b16:	68fb      	ldr	r3, [r7, #12]
 8006b18:	6a1b      	ldr	r3, [r3, #32]
 8006b1a:	613b      	str	r3, [r7, #16]

  /* Select the Input */
  tmpccmr2 &= ~TIM_CCMR2_CC4S;
 8006b1c:	697b      	ldr	r3, [r7, #20]
 8006b1e:	f423 7340 	bic.w	r3, r3, #768	; 0x300
 8006b22:	617b      	str	r3, [r7, #20]
  tmpccmr2 |= (TIM_ICSelection << 8U);
 8006b24:	687b      	ldr	r3, [r7, #4]
 8006b26:	021b      	lsls	r3, r3, #8
 8006b28:	697a      	ldr	r2, [r7, #20]
 8006b2a:	4313      	orrs	r3, r2
 8006b2c:	617b      	str	r3, [r7, #20]

  /* Set the filter */
  tmpccmr2 &= ~TIM_CCMR2_IC4F;
 8006b2e:	697b      	ldr	r3, [r7, #20]
 8006b30:	f423 4370 	bic.w	r3, r3, #61440	; 0xf000
 8006b34:	617b      	str	r3, [r7, #20]
  tmpccmr2 |= ((TIM_ICFilter << 12U) & TIM_CCMR2_IC4F);
 8006b36:	683b      	ldr	r3, [r7, #0]
 8006b38:	031b      	lsls	r3, r3, #12
 8006b3a:	b29b      	uxth	r3, r3
 8006b3c:	697a      	ldr	r2, [r7, #20]
 8006b3e:	4313      	orrs	r3, r2
 8006b40:	617b      	str	r3, [r7, #20]

  /* Select the Polarity and set the CC4E Bit */
  tmpccer &= ~(TIM_CCER_CC4P | TIM_CCER_CC4NP);
 8006b42:	693b      	ldr	r3, [r7, #16]
 8006b44:	f423 4320 	bic.w	r3, r3, #40960	; 0xa000
 8006b48:	613b      	str	r3, [r7, #16]
  tmpccer |= ((TIM_ICPolarity << 12U) & (TIM_CCER_CC4P | TIM_CCER_CC4NP));
 8006b4a:	68bb      	ldr	r3, [r7, #8]
 8006b4c:	031b      	lsls	r3, r3, #12
 8006b4e:	f403 4320 	and.w	r3, r3, #40960	; 0xa000
 8006b52:	693a      	ldr	r2, [r7, #16]
 8006b54:	4313      	orrs	r3, r2
 8006b56:	613b      	str	r3, [r7, #16]

  /* Write to TIMx CCMR2 and CCER registers */
  TIMx->CCMR2 = tmpccmr2;
 8006b58:	68fb      	ldr	r3, [r7, #12]
 8006b5a:	697a      	ldr	r2, [r7, #20]
 8006b5c:	61da      	str	r2, [r3, #28]
  TIMx->CCER = tmpccer ;
 8006b5e:	68fb      	ldr	r3, [r7, #12]
 8006b60:	693a      	ldr	r2, [r7, #16]
 8006b62:	621a      	str	r2, [r3, #32]
}
 8006b64:	bf00      	nop
 8006b66:	371c      	adds	r7, #28
 8006b68:	46bd      	mov	sp, r7
 8006b6a:	f85d 7b04 	ldr.w	r7, [sp], #4
 8006b6e:	4770      	bx	lr

08006b70 <TIM_CCxChannelCmd>:
  * @param  ChannelState specifies the TIM Channel CCxE bit new state.
  *          This parameter can be: TIM_CCx_ENABLE or TIM_CCx_DISABLE.
  * @retval None
  */
void TIM_CCxChannelCmd(TIM_TypeDef *TIMx, uint32_t Channel, uint32_t ChannelState)
{
 8006b70:	b480      	push	{r7}
 8006b72:	b087      	sub	sp, #28
 8006b74:	af00      	add	r7, sp, #0
 8006b76:	60f8      	str	r0, [r7, #12]
 8006b78:	60b9      	str	r1, [r7, #8]
 8006b7a:	607a      	str	r2, [r7, #4]

  /* Check the parameters */
  assert_param(IS_TIM_CC1_INSTANCE(TIMx));
  assert_param(IS_TIM_CHANNELS(Channel));

  tmp = TIM_CCER_CC1E << (Channel & 0x1FU); /* 0x1FU = 31 bits max shift */
 8006b7c:	68bb      	ldr	r3, [r7, #8]
 8006b7e:	f003 031f 	and.w	r3, r3, #31
 8006b82:	2201      	movs	r2, #1
 8006b84:	fa02 f303 	lsl.w	r3, r2, r3
 8006b88:	617b      	str	r3, [r7, #20]

  /* Reset the CCxE Bit */
  TIMx->CCER &= ~tmp;
 8006b8a:	68fb      	ldr	r3, [r7, #12]
 8006b8c:	6a1a      	ldr	r2, [r3, #32]
 8006b8e:	697b      	ldr	r3, [r7, #20]
 8006b90:	43db      	mvns	r3, r3
 8006b92:	401a      	ands	r2, r3
 8006b94:	68fb      	ldr	r3, [r7, #12]
 8006b96:	621a      	str	r2, [r3, #32]

  /* Set or reset the CCxE Bit */
  TIMx->CCER |= (uint32_t)(ChannelState << (Channel & 0x1FU)); /* 0x1FU = 31 bits max shift */
 8006b98:	68fb      	ldr	r3, [r7, #12]
 8006b9a:	6a1a      	ldr	r2, [r3, #32]
 8006b9c:	68bb      	ldr	r3, [r7, #8]
 8006b9e:	f003 031f 	and.w	r3, r3, #31
 8006ba2:	6879      	ldr	r1, [r7, #4]
 8006ba4:	fa01 f303 	lsl.w	r3, r1, r3
 8006ba8:	431a      	orrs	r2, r3
 8006baa:	68fb      	ldr	r3, [r7, #12]
 8006bac:	621a      	str	r2, [r3, #32]
}
 8006bae:	bf00      	nop
 8006bb0:	371c      	adds	r7, #28
 8006bb2:	46bd      	mov	sp, r7
 8006bb4:	f85d 7b04 	ldr.w	r7, [sp], #4
 8006bb8:	4770      	bx	lr
	...

08006bbc <HAL_TIMEx_MasterConfigSynchronization>:
  *         mode.
  * @retval HAL status
  */
HAL_StatusTypeDef HAL_TIMEx_MasterConfigSynchronization(TIM_HandleTypeDef *htim,
                                                        TIM_MasterConfigTypeDef *sMasterConfig)
{
 8006bbc:	b480      	push	{r7}
 8006bbe:	b085      	sub	sp, #20
 8006bc0:	af00      	add	r7, sp, #0
 8006bc2:	6078      	str	r0, [r7, #4]
 8006bc4:	6039      	str	r1, [r7, #0]
  assert_param(IS_TIM_MASTER_INSTANCE(htim->Instance));
  assert_param(IS_TIM_TRGO_SOURCE(sMasterConfig->MasterOutputTrigger));
  assert_param(IS_TIM_MSM_STATE(sMasterConfig->MasterSlaveMode));

  /* Check input state */
  __HAL_LOCK(htim);
 8006bc6:	687b      	ldr	r3, [r7, #4]
 8006bc8:	f893 303c 	ldrb.w	r3, [r3, #60]	; 0x3c
 8006bcc:	2b01      	cmp	r3, #1
 8006bce:	d101      	bne.n	8006bd4 <HAL_TIMEx_MasterConfigSynchronization+0x18>
 8006bd0:	2302      	movs	r3, #2
 8006bd2:	e05a      	b.n	8006c8a <HAL_TIMEx_MasterConfigSynchronization+0xce>
 8006bd4:	687b      	ldr	r3, [r7, #4]
 8006bd6:	2201      	movs	r2, #1
 8006bd8:	f883 203c 	strb.w	r2, [r3, #60]	; 0x3c

  /* Change the handler state */
  htim->State = HAL_TIM_STATE_BUSY;
 8006bdc:	687b      	ldr	r3, [r7, #4]
 8006bde:	2202      	movs	r2, #2
 8006be0:	f883 203d 	strb.w	r2, [r3, #61]	; 0x3d

  /* Get the TIMx CR2 register value */
  tmpcr2 = htim->Instance->CR2;
 8006be4:	687b      	ldr	r3, [r7, #4]
 8006be6:	681b      	ldr	r3, [r3, #0]
 8006be8:	685b      	ldr	r3, [r3, #4]
 8006bea:	60fb      	str	r3, [r7, #12]

  /* Get the TIMx SMCR register value */
  tmpsmcr = htim->Instance->SMCR;
 8006bec:	687b      	ldr	r3, [r7, #4]
 8006bee:	681b      	ldr	r3, [r3, #0]
 8006bf0:	689b      	ldr	r3, [r3, #8]
 8006bf2:	60bb      	str	r3, [r7, #8]

  /* Reset the MMS Bits */
  tmpcr2 &= ~TIM_CR2_MMS;
 8006bf4:	68fb      	ldr	r3, [r7, #12]
 8006bf6:	f023 0370 	bic.w	r3, r3, #112	; 0x70
 8006bfa:	60fb      	str	r3, [r7, #12]
  /* Select the TRGO source */
  tmpcr2 |=  sMasterConfig->MasterOutputTrigger;
 8006bfc:	683b      	ldr	r3, [r7, #0]
 8006bfe:	681b      	ldr	r3, [r3, #0]
 8006c00:	68fa      	ldr	r2, [r7, #12]
 8006c02:	4313      	orrs	r3, r2
 8006c04:	60fb      	str	r3, [r7, #12]

  /* Update TIMx CR2 */
  htim->Instance->CR2 = tmpcr2;
 8006c06:	687b      	ldr	r3, [r7, #4]
 8006c08:	681b      	ldr	r3, [r3, #0]
 8006c0a:	68fa      	ldr	r2, [r7, #12]
 8006c0c:	605a      	str	r2, [r3, #4]

  if (IS_TIM_SLAVE_INSTANCE(htim->Instance))
 8006c0e:	687b      	ldr	r3, [r7, #4]
 8006c10:	681b      	ldr	r3, [r3, #0]
 8006c12:	4a21      	ldr	r2, [pc, #132]	; (8006c98 <HAL_TIMEx_MasterConfigSynchronization+0xdc>)
 8006c14:	4293      	cmp	r3, r2
 8006c16:	d022      	beq.n	8006c5e <HAL_TIMEx_MasterConfigSynchronization+0xa2>
 8006c18:	687b      	ldr	r3, [r7, #4]
 8006c1a:	681b      	ldr	r3, [r3, #0]
 8006c1c:	f1b3 4f80 	cmp.w	r3, #1073741824	; 0x40000000
 8006c20:	d01d      	beq.n	8006c5e <HAL_TIMEx_MasterConfigSynchronization+0xa2>
 8006c22:	687b      	ldr	r3, [r7, #4]
 8006c24:	681b      	ldr	r3, [r3, #0]
 8006c26:	4a1d      	ldr	r2, [pc, #116]	; (8006c9c <HAL_TIMEx_MasterConfigSynchronization+0xe0>)
 8006c28:	4293      	cmp	r3, r2
 8006c2a:	d018      	beq.n	8006c5e <HAL_TIMEx_MasterConfigSynchronization+0xa2>
 8006c2c:	687b      	ldr	r3, [r7, #4]
 8006c2e:	681b      	ldr	r3, [r3, #0]
 8006c30:	4a1b      	ldr	r2, [pc, #108]	; (8006ca0 <HAL_TIMEx_MasterConfigSynchronization+0xe4>)
 8006c32:	4293      	cmp	r3, r2
 8006c34:	d013      	beq.n	8006c5e <HAL_TIMEx_MasterConfigSynchronization+0xa2>
 8006c36:	687b      	ldr	r3, [r7, #4]
 8006c38:	681b      	ldr	r3, [r3, #0]
 8006c3a:	4a1a      	ldr	r2, [pc, #104]	; (8006ca4 <HAL_TIMEx_MasterConfigSynchronization+0xe8>)
 8006c3c:	4293      	cmp	r3, r2
 8006c3e:	d00e      	beq.n	8006c5e <HAL_TIMEx_MasterConfigSynchronization+0xa2>
 8006c40:	687b      	ldr	r3, [r7, #4]
 8006c42:	681b      	ldr	r3, [r3, #0]
 8006c44:	4a18      	ldr	r2, [pc, #96]	; (8006ca8 <HAL_TIMEx_MasterConfigSynchronization+0xec>)
 8006c46:	4293      	cmp	r3, r2
 8006c48:	d009      	beq.n	8006c5e <HAL_TIMEx_MasterConfigSynchronization+0xa2>
 8006c4a:	687b      	ldr	r3, [r7, #4]
 8006c4c:	681b      	ldr	r3, [r3, #0]
 8006c4e:	4a17      	ldr	r2, [pc, #92]	; (8006cac <HAL_TIMEx_MasterConfigSynchronization+0xf0>)
 8006c50:	4293      	cmp	r3, r2
 8006c52:	d004      	beq.n	8006c5e <HAL_TIMEx_MasterConfigSynchronization+0xa2>
 8006c54:	687b      	ldr	r3, [r7, #4]
 8006c56:	681b      	ldr	r3, [r3, #0]
 8006c58:	4a15      	ldr	r2, [pc, #84]	; (8006cb0 <HAL_TIMEx_MasterConfigSynchronization+0xf4>)
 8006c5a:	4293      	cmp	r3, r2
 8006c5c:	d10c      	bne.n	8006c78 <HAL_TIMEx_MasterConfigSynchronization+0xbc>
  {
    /* Reset the MSM Bit */
    tmpsmcr &= ~TIM_SMCR_MSM;
 8006c5e:	68bb      	ldr	r3, [r7, #8]
 8006c60:	f023 0380 	bic.w	r3, r3, #128	; 0x80
 8006c64:	60bb      	str	r3, [r7, #8]
    /* Set master mode */
    tmpsmcr |= sMasterConfig->MasterSlaveMode;
 8006c66:	683b      	ldr	r3, [r7, #0]
 8006c68:	685b      	ldr	r3, [r3, #4]
 8006c6a:	68ba      	ldr	r2, [r7, #8]
 8006c6c:	4313      	orrs	r3, r2
 8006c6e:	60bb      	str	r3, [r7, #8]

    /* Update TIMx SMCR */
    htim->Instance->SMCR = tmpsmcr;
 8006c70:	687b      	ldr	r3, [r7, #4]
 8006c72:	681b      	ldr	r3, [r3, #0]
 8006c74:	68ba      	ldr	r2, [r7, #8]
 8006c76:	609a      	str	r2, [r3, #8]
  }

  /* Change the htim state */
  htim->State = HAL_TIM_STATE_READY;
 8006c78:	687b      	ldr	r3, [r7, #4]
 8006c7a:	2201      	movs	r2, #1
 8006c7c:	f883 203d 	strb.w	r2, [r3, #61]	; 0x3d

  __HAL_UNLOCK(htim);
 8006c80:	687b      	ldr	r3, [r7, #4]
 8006c82:	2200      	movs	r2, #0
 8006c84:	f883 203c 	strb.w	r2, [r3, #60]	; 0x3c

  return HAL_OK;
 8006c88:	2300      	movs	r3, #0
}
 8006c8a:	4618      	mov	r0, r3
 8006c8c:	3714      	adds	r7, #20
 8006c8e:	46bd      	mov	sp, r7
 8006c90:	f85d 7b04 	ldr.w	r7, [sp], #4
 8006c94:	4770      	bx	lr
 8006c96:	bf00      	nop
 8006c98:	40010000 	.word	0x40010000
 8006c9c:	40000400 	.word	0x40000400
 8006ca0:	40000800 	.word	0x40000800
 8006ca4:	40000c00 	.word	0x40000c00
 8006ca8:	40010400 	.word	0x40010400
 8006cac:	40014000 	.word	0x40014000
 8006cb0:	40001800 	.word	0x40001800

08006cb4 <HAL_TIMEx_CommutCallback>:
  * @brief  Hall commutation changed callback in non-blocking mode
  * @param  htim TIM handle
  * @retval None
  */
__weak void HAL_TIMEx_CommutCallback(TIM_HandleTypeDef *htim)
{
 8006cb4:	b480      	push	{r7}
 8006cb6:	b083      	sub	sp, #12
 8006cb8:	af00      	add	r7, sp, #0
 8006cba:	6078      	str	r0, [r7, #4]
  UNUSED(htim);

  /* NOTE : This function should not be modified, when the callback is needed,
            the HAL_TIMEx_CommutCallback could be implemented in the user file
   */
}
 8006cbc:	bf00      	nop
 8006cbe:	370c      	adds	r7, #12
 8006cc0:	46bd      	mov	sp, r7
 8006cc2:	f85d 7b04 	ldr.w	r7, [sp], #4
 8006cc6:	4770      	bx	lr

08006cc8 <HAL_TIMEx_BreakCallback>:
  * @brief  Hall Break detection callback in non-blocking mode
  * @param  htim TIM handle
  * @retval None
  */
__weak void HAL_TIMEx_BreakCallback(TIM_HandleTypeDef *htim)
{
 8006cc8:	b480      	push	{r7}
 8006cca:	b083      	sub	sp, #12
 8006ccc:	af00      	add	r7, sp, #0
 8006cce:	6078      	str	r0, [r7, #4]
  UNUSED(htim);

  /* NOTE : This function should not be modified, when the callback is needed,
            the HAL_TIMEx_BreakCallback could be implemented in the user file
   */
}
 8006cd0:	bf00      	nop
 8006cd2:	370c      	adds	r7, #12
 8006cd4:	46bd      	mov	sp, r7
 8006cd6:	f85d 7b04 	ldr.w	r7, [sp], #4
 8006cda:	4770      	bx	lr

08006cdc <HAL_UART_Init>:
  * @param  huart  Pointer to a UART_HandleTypeDef structure that contains
  *                the configuration information for the specified UART module.
  * @retval HAL status
  */
HAL_StatusTypeDef HAL_UART_Init(UART_HandleTypeDef *huart)
{
 8006cdc:	b580      	push	{r7, lr}
 8006cde:	b082      	sub	sp, #8
 8006ce0:	af00      	add	r7, sp, #0
 8006ce2:	6078      	str	r0, [r7, #4]
  /* Check the UART handle allocation */
  if (huart == NULL)
 8006ce4:	687b      	ldr	r3, [r7, #4]
 8006ce6:	2b00      	cmp	r3, #0
 8006ce8:	d101      	bne.n	8006cee <HAL_UART_Init+0x12>
  {
    return HAL_ERROR;
 8006cea:	2301      	movs	r3, #1
 8006cec:	e03f      	b.n	8006d6e <HAL_UART_Init+0x92>
    assert_param(IS_UART_INSTANCE(huart->Instance));
  }
  assert_param(IS_UART_WORD_LENGTH(huart->Init.WordLength));
  assert_param(IS_UART_OVERSAMPLING(huart->Init.OverSampling));

  if (huart->gState == HAL_UART_STATE_RESET)
 8006cee:	687b      	ldr	r3, [r7, #4]
 8006cf0:	f893 303d 	ldrb.w	r3, [r3, #61]	; 0x3d
 8006cf4:	b2db      	uxtb	r3, r3
 8006cf6:	2b00      	cmp	r3, #0
 8006cf8:	d106      	bne.n	8006d08 <HAL_UART_Init+0x2c>
  {
    /* Allocate lock resource and initialize it */
    huart->Lock = HAL_UNLOCKED;
 8006cfa:	687b      	ldr	r3, [r7, #4]
 8006cfc:	2200      	movs	r2, #0
 8006cfe:	f883 203c 	strb.w	r2, [r3, #60]	; 0x3c

    /* Init the low level hardware */
    huart->MspInitCallback(huart);
#else
    /* Init the low level hardware : GPIO, CLOCK */
    HAL_UART_MspInit(huart);
 8006d02:	6878      	ldr	r0, [r7, #4]
 8006d04:	f7fb fb44 	bl	8002390 <HAL_UART_MspInit>
#endif /* (USE_HAL_UART_REGISTER_CALLBACKS) */
  }

  huart->gState = HAL_UART_STATE_BUSY;
 8006d08:	687b      	ldr	r3, [r7, #4]
 8006d0a:	2224      	movs	r2, #36	; 0x24
 8006d0c:	f883 203d 	strb.w	r2, [r3, #61]	; 0x3d

  /* Disable the peripheral */
  __HAL_UART_DISABLE(huart);
 8006d10:	687b      	ldr	r3, [r7, #4]
 8006d12:	681b      	ldr	r3, [r3, #0]
 8006d14:	68da      	ldr	r2, [r3, #12]
 8006d16:	687b      	ldr	r3, [r7, #4]
 8006d18:	681b      	ldr	r3, [r3, #0]
 8006d1a:	f422 5200 	bic.w	r2, r2, #8192	; 0x2000
 8006d1e:	60da      	str	r2, [r3, #12]

  /* Set the UART Communication parameters */
  UART_SetConfig(huart);
 8006d20:	6878      	ldr	r0, [r7, #4]
 8006d22:	f000 ff65 	bl	8007bf0 <UART_SetConfig>

  /* In asynchronous mode, the following bits must be kept cleared:
     - LINEN and CLKEN bits in the USART_CR2 register,
     - SCEN, HDSEL and IREN  bits in the USART_CR3 register.*/
  CLEAR_BIT(huart->Instance->CR2, (USART_CR2_LINEN | USART_CR2_CLKEN));
 8006d26:	687b      	ldr	r3, [r7, #4]
 8006d28:	681b      	ldr	r3, [r3, #0]
 8006d2a:	691a      	ldr	r2, [r3, #16]
 8006d2c:	687b      	ldr	r3, [r7, #4]
 8006d2e:	681b      	ldr	r3, [r3, #0]
 8006d30:	f422 4290 	bic.w	r2, r2, #18432	; 0x4800
 8006d34:	611a      	str	r2, [r3, #16]
  CLEAR_BIT(huart->Instance->CR3, (USART_CR3_SCEN | USART_CR3_HDSEL | USART_CR3_IREN));
 8006d36:	687b      	ldr	r3, [r7, #4]
 8006d38:	681b      	ldr	r3, [r3, #0]
 8006d3a:	695a      	ldr	r2, [r3, #20]
 8006d3c:	687b      	ldr	r3, [r7, #4]
 8006d3e:	681b      	ldr	r3, [r3, #0]
 8006d40:	f022 022a 	bic.w	r2, r2, #42	; 0x2a
 8006d44:	615a      	str	r2, [r3, #20]

  /* Enable the peripheral */
  __HAL_UART_ENABLE(huart);
 8006d46:	687b      	ldr	r3, [r7, #4]
 8006d48:	681b      	ldr	r3, [r3, #0]
 8006d4a:	68da      	ldr	r2, [r3, #12]
 8006d4c:	687b      	ldr	r3, [r7, #4]
 8006d4e:	681b      	ldr	r3, [r3, #0]
 8006d50:	f442 5200 	orr.w	r2, r2, #8192	; 0x2000
 8006d54:	60da      	str	r2, [r3, #12]

  /* Initialize the UART state */
  huart->ErrorCode = HAL_UART_ERROR_NONE;
 8006d56:	687b      	ldr	r3, [r7, #4]
 8006d58:	2200      	movs	r2, #0
 8006d5a:	641a      	str	r2, [r3, #64]	; 0x40
  huart->gState = HAL_UART_STATE_READY;
 8006d5c:	687b      	ldr	r3, [r7, #4]
 8006d5e:	2220      	movs	r2, #32
 8006d60:	f883 203d 	strb.w	r2, [r3, #61]	; 0x3d
  huart->RxState = HAL_UART_STATE_READY;
 8006d64:	687b      	ldr	r3, [r7, #4]
 8006d66:	2220      	movs	r2, #32
 8006d68:	f883 203e 	strb.w	r2, [r3, #62]	; 0x3e

  return HAL_OK;
 8006d6c:	2300      	movs	r3, #0
}
 8006d6e:	4618      	mov	r0, r3
 8006d70:	3708      	adds	r7, #8
 8006d72:	46bd      	mov	sp, r7
 8006d74:	bd80      	pop	{r7, pc}

08006d76 <HAL_UART_Transmit>:
  * @param  Size  Amount of data elements (u8 or u16) to be sent
  * @param  Timeout Timeout duration
  * @retval HAL status
  */
HAL_StatusTypeDef HAL_UART_Transmit(UART_HandleTypeDef *huart, uint8_t *pData, uint16_t Size, uint32_t Timeout)
{
 8006d76:	b580      	push	{r7, lr}
 8006d78:	b08a      	sub	sp, #40	; 0x28
 8006d7a:	af02      	add	r7, sp, #8
 8006d7c:	60f8      	str	r0, [r7, #12]
 8006d7e:	60b9      	str	r1, [r7, #8]
 8006d80:	603b      	str	r3, [r7, #0]
 8006d82:	4613      	mov	r3, r2
 8006d84:	80fb      	strh	r3, [r7, #6]
  uint8_t  *pdata8bits;
  uint16_t *pdata16bits;
  uint32_t tickstart = 0U;
 8006d86:	2300      	movs	r3, #0
 8006d88:	617b      	str	r3, [r7, #20]

  /* Check that a Tx process is not already ongoing */
  if (huart->gState == HAL_UART_STATE_READY)
 8006d8a:	68fb      	ldr	r3, [r7, #12]
 8006d8c:	f893 303d 	ldrb.w	r3, [r3, #61]	; 0x3d
 8006d90:	b2db      	uxtb	r3, r3
 8006d92:	2b20      	cmp	r3, #32
 8006d94:	d17c      	bne.n	8006e90 <HAL_UART_Transmit+0x11a>
  {
    if ((pData == NULL) || (Size == 0U))
 8006d96:	68bb      	ldr	r3, [r7, #8]
 8006d98:	2b00      	cmp	r3, #0
 8006d9a:	d002      	beq.n	8006da2 <HAL_UART_Transmit+0x2c>
 8006d9c:	88fb      	ldrh	r3, [r7, #6]
 8006d9e:	2b00      	cmp	r3, #0
 8006da0:	d101      	bne.n	8006da6 <HAL_UART_Transmit+0x30>
    {
      return  HAL_ERROR;
 8006da2:	2301      	movs	r3, #1
 8006da4:	e075      	b.n	8006e92 <HAL_UART_Transmit+0x11c>
    }

    /* Process Locked */
    __HAL_LOCK(huart);
 8006da6:	68fb      	ldr	r3, [r7, #12]
 8006da8:	f893 303c 	ldrb.w	r3, [r3, #60]	; 0x3c
 8006dac:	2b01      	cmp	r3, #1
 8006dae:	d101      	bne.n	8006db4 <HAL_UART_Transmit+0x3e>
 8006db0:	2302      	movs	r3, #2
 8006db2:	e06e      	b.n	8006e92 <HAL_UART_Transmit+0x11c>
 8006db4:	68fb      	ldr	r3, [r7, #12]
 8006db6:	2201      	movs	r2, #1
 8006db8:	f883 203c 	strb.w	r2, [r3, #60]	; 0x3c

    huart->ErrorCode = HAL_UART_ERROR_NONE;
 8006dbc:	68fb      	ldr	r3, [r7, #12]
 8006dbe:	2200      	movs	r2, #0
 8006dc0:	641a      	str	r2, [r3, #64]	; 0x40
    huart->gState = HAL_UART_STATE_BUSY_TX;
 8006dc2:	68fb      	ldr	r3, [r7, #12]
 8006dc4:	2221      	movs	r2, #33	; 0x21
 8006dc6:	f883 203d 	strb.w	r2, [r3, #61]	; 0x3d

    /* Init tickstart for timeout management */
    tickstart = HAL_GetTick();
 8006dca:	f7fb fdd3 	bl	8002974 <HAL_GetTick>
 8006dce:	6178      	str	r0, [r7, #20]

    huart->TxXferSize = Size;
 8006dd0:	68fb      	ldr	r3, [r7, #12]
 8006dd2:	88fa      	ldrh	r2, [r7, #6]
 8006dd4:	849a      	strh	r2, [r3, #36]	; 0x24
    huart->TxXferCount = Size;
 8006dd6:	68fb      	ldr	r3, [r7, #12]
 8006dd8:	88fa      	ldrh	r2, [r7, #6]
 8006dda:	84da      	strh	r2, [r3, #38]	; 0x26

    /* In case of 9bits/No Parity transfer, pData needs to be handled as a uint16_t pointer */
    if ((huart->Init.WordLength == UART_WORDLENGTH_9B) && (huart->Init.Parity == UART_PARITY_NONE))
 8006ddc:	68fb      	ldr	r3, [r7, #12]
 8006dde:	689b      	ldr	r3, [r3, #8]
 8006de0:	f5b3 5f80 	cmp.w	r3, #4096	; 0x1000
 8006de4:	d108      	bne.n	8006df8 <HAL_UART_Transmit+0x82>
 8006de6:	68fb      	ldr	r3, [r7, #12]
 8006de8:	691b      	ldr	r3, [r3, #16]
 8006dea:	2b00      	cmp	r3, #0
 8006dec:	d104      	bne.n	8006df8 <HAL_UART_Transmit+0x82>
    {
      pdata8bits  = NULL;
 8006dee:	2300      	movs	r3, #0
 8006df0:	61fb      	str	r3, [r7, #28]
      pdata16bits = (uint16_t *) pData;
 8006df2:	68bb      	ldr	r3, [r7, #8]
 8006df4:	61bb      	str	r3, [r7, #24]
 8006df6:	e003      	b.n	8006e00 <HAL_UART_Transmit+0x8a>
    }
    else
    {
      pdata8bits  = pData;
 8006df8:	68bb      	ldr	r3, [r7, #8]
 8006dfa:	61fb      	str	r3, [r7, #28]
      pdata16bits = NULL;
 8006dfc:	2300      	movs	r3, #0
 8006dfe:	61bb      	str	r3, [r7, #24]
    }

    /* Process Unlocked */
    __HAL_UNLOCK(huart);
 8006e00:	68fb      	ldr	r3, [r7, #12]
 8006e02:	2200      	movs	r2, #0
 8006e04:	f883 203c 	strb.w	r2, [r3, #60]	; 0x3c

    while (huart->TxXferCount > 0U)
 8006e08:	e02a      	b.n	8006e60 <HAL_UART_Transmit+0xea>
    {
      if (UART_WaitOnFlagUntilTimeout(huart, UART_FLAG_TXE, RESET, tickstart, Timeout) != HAL_OK)
 8006e0a:	683b      	ldr	r3, [r7, #0]
 8006e0c:	9300      	str	r3, [sp, #0]
 8006e0e:	697b      	ldr	r3, [r7, #20]
 8006e10:	2200      	movs	r2, #0
 8006e12:	2180      	movs	r1, #128	; 0x80
 8006e14:	68f8      	ldr	r0, [r7, #12]
 8006e16:	f000 fc21 	bl	800765c <UART_WaitOnFlagUntilTimeout>
 8006e1a:	4603      	mov	r3, r0
 8006e1c:	2b00      	cmp	r3, #0
 8006e1e:	d001      	beq.n	8006e24 <HAL_UART_Transmit+0xae>
      {
        return HAL_TIMEOUT;
 8006e20:	2303      	movs	r3, #3
 8006e22:	e036      	b.n	8006e92 <HAL_UART_Transmit+0x11c>
      }
      if (pdata8bits == NULL)
 8006e24:	69fb      	ldr	r3, [r7, #28]
 8006e26:	2b00      	cmp	r3, #0
 8006e28:	d10b      	bne.n	8006e42 <HAL_UART_Transmit+0xcc>
      {
        huart->Instance->DR = (uint16_t)(*pdata16bits & 0x01FFU);
 8006e2a:	69bb      	ldr	r3, [r7, #24]
 8006e2c:	881b      	ldrh	r3, [r3, #0]
 8006e2e:	461a      	mov	r2, r3
 8006e30:	68fb      	ldr	r3, [r7, #12]
 8006e32:	681b      	ldr	r3, [r3, #0]
 8006e34:	f3c2 0208 	ubfx	r2, r2, #0, #9
 8006e38:	605a      	str	r2, [r3, #4]
        pdata16bits++;
 8006e3a:	69bb      	ldr	r3, [r7, #24]
 8006e3c:	3302      	adds	r3, #2
 8006e3e:	61bb      	str	r3, [r7, #24]
 8006e40:	e007      	b.n	8006e52 <HAL_UART_Transmit+0xdc>
      }
      else
      {
        huart->Instance->DR = (uint8_t)(*pdata8bits & 0xFFU);
 8006e42:	69fb      	ldr	r3, [r7, #28]
 8006e44:	781a      	ldrb	r2, [r3, #0]
 8006e46:	68fb      	ldr	r3, [r7, #12]
 8006e48:	681b      	ldr	r3, [r3, #0]
 8006e4a:	605a      	str	r2, [r3, #4]
        pdata8bits++;
 8006e4c:	69fb      	ldr	r3, [r7, #28]
 8006e4e:	3301      	adds	r3, #1
 8006e50:	61fb      	str	r3, [r7, #28]
      }
      huart->TxXferCount--;
 8006e52:	68fb      	ldr	r3, [r7, #12]
 8006e54:	8cdb      	ldrh	r3, [r3, #38]	; 0x26
 8006e56:	b29b      	uxth	r3, r3
 8006e58:	3b01      	subs	r3, #1
 8006e5a:	b29a      	uxth	r2, r3
 8006e5c:	68fb      	ldr	r3, [r7, #12]
 8006e5e:	84da      	strh	r2, [r3, #38]	; 0x26
    while (huart->TxXferCount > 0U)
 8006e60:	68fb      	ldr	r3, [r7, #12]
 8006e62:	8cdb      	ldrh	r3, [r3, #38]	; 0x26
 8006e64:	b29b      	uxth	r3, r3
 8006e66:	2b00      	cmp	r3, #0
 8006e68:	d1cf      	bne.n	8006e0a <HAL_UART_Transmit+0x94>
    }

    if (UART_WaitOnFlagUntilTimeout(huart, UART_FLAG_TC, RESET, tickstart, Timeout) != HAL_OK)
 8006e6a:	683b      	ldr	r3, [r7, #0]
 8006e6c:	9300      	str	r3, [sp, #0]
 8006e6e:	697b      	ldr	r3, [r7, #20]
 8006e70:	2200      	movs	r2, #0
 8006e72:	2140      	movs	r1, #64	; 0x40
 8006e74:	68f8      	ldr	r0, [r7, #12]
 8006e76:	f000 fbf1 	bl	800765c <UART_WaitOnFlagUntilTimeout>
 8006e7a:	4603      	mov	r3, r0
 8006e7c:	2b00      	cmp	r3, #0
 8006e7e:	d001      	beq.n	8006e84 <HAL_UART_Transmit+0x10e>
    {
      return HAL_TIMEOUT;
 8006e80:	2303      	movs	r3, #3
 8006e82:	e006      	b.n	8006e92 <HAL_UART_Transmit+0x11c>
    }

    /* At end of Tx process, restore huart->gState to Ready */
    huart->gState = HAL_UART_STATE_READY;
 8006e84:	68fb      	ldr	r3, [r7, #12]
 8006e86:	2220      	movs	r2, #32
 8006e88:	f883 203d 	strb.w	r2, [r3, #61]	; 0x3d

    return HAL_OK;
 8006e8c:	2300      	movs	r3, #0
 8006e8e:	e000      	b.n	8006e92 <HAL_UART_Transmit+0x11c>
  }
  else
  {
    return HAL_BUSY;
 8006e90:	2302      	movs	r3, #2
  }
}
 8006e92:	4618      	mov	r0, r3
 8006e94:	3720      	adds	r7, #32
 8006e96:	46bd      	mov	sp, r7
 8006e98:	bd80      	pop	{r7, pc}

08006e9a <HAL_UART_Receive_DMA>:
  * @param  Size  Amount of data elements (u8 or u16) to be received.
  * @note   When the UART parity is enabled (PCE = 1) the received data contains the parity bit.
  * @retval HAL status
  */
HAL_StatusTypeDef HAL_UART_Receive_DMA(UART_HandleTypeDef *huart, uint8_t *pData, uint16_t Size)
{
 8006e9a:	b580      	push	{r7, lr}
 8006e9c:	b084      	sub	sp, #16
 8006e9e:	af00      	add	r7, sp, #0
 8006ea0:	60f8      	str	r0, [r7, #12]
 8006ea2:	60b9      	str	r1, [r7, #8]
 8006ea4:	4613      	mov	r3, r2
 8006ea6:	80fb      	strh	r3, [r7, #6]
  /* Check that a Rx process is not already ongoing */
  if (huart->RxState == HAL_UART_STATE_READY)
 8006ea8:	68fb      	ldr	r3, [r7, #12]
 8006eaa:	f893 303e 	ldrb.w	r3, [r3, #62]	; 0x3e
 8006eae:	b2db      	uxtb	r3, r3
 8006eb0:	2b20      	cmp	r3, #32
 8006eb2:	d11d      	bne.n	8006ef0 <HAL_UART_Receive_DMA+0x56>
  {
    if ((pData == NULL) || (Size == 0U))
 8006eb4:	68bb      	ldr	r3, [r7, #8]
 8006eb6:	2b00      	cmp	r3, #0
 8006eb8:	d002      	beq.n	8006ec0 <HAL_UART_Receive_DMA+0x26>
 8006eba:	88fb      	ldrh	r3, [r7, #6]
 8006ebc:	2b00      	cmp	r3, #0
 8006ebe:	d101      	bne.n	8006ec4 <HAL_UART_Receive_DMA+0x2a>
    {
      return HAL_ERROR;
 8006ec0:	2301      	movs	r3, #1
 8006ec2:	e016      	b.n	8006ef2 <HAL_UART_Receive_DMA+0x58>
    }

    /* Process Locked */
    __HAL_LOCK(huart);
 8006ec4:	68fb      	ldr	r3, [r7, #12]
 8006ec6:	f893 303c 	ldrb.w	r3, [r3, #60]	; 0x3c
 8006eca:	2b01      	cmp	r3, #1
 8006ecc:	d101      	bne.n	8006ed2 <HAL_UART_Receive_DMA+0x38>
 8006ece:	2302      	movs	r3, #2
 8006ed0:	e00f      	b.n	8006ef2 <HAL_UART_Receive_DMA+0x58>
 8006ed2:	68fb      	ldr	r3, [r7, #12]
 8006ed4:	2201      	movs	r2, #1
 8006ed6:	f883 203c 	strb.w	r2, [r3, #60]	; 0x3c

    /* Set Reception type to Standard reception */
    huart->ReceptionType = HAL_UART_RECEPTION_STANDARD;
 8006eda:	68fb      	ldr	r3, [r7, #12]
 8006edc:	2200      	movs	r2, #0
 8006ede:	631a      	str	r2, [r3, #48]	; 0x30

    return (UART_Start_Receive_DMA(huart, pData, Size));
 8006ee0:	88fb      	ldrh	r3, [r7, #6]
 8006ee2:	461a      	mov	r2, r3
 8006ee4:	68b9      	ldr	r1, [r7, #8]
 8006ee6:	68f8      	ldr	r0, [r7, #12]
 8006ee8:	f000 fc26 	bl	8007738 <UART_Start_Receive_DMA>
 8006eec:	4603      	mov	r3, r0
 8006eee:	e000      	b.n	8006ef2 <HAL_UART_Receive_DMA+0x58>
  }
  else
  {
    return HAL_BUSY;
 8006ef0:	2302      	movs	r3, #2
  }
}
 8006ef2:	4618      	mov	r0, r3
 8006ef4:	3710      	adds	r7, #16
 8006ef6:	46bd      	mov	sp, r7
 8006ef8:	bd80      	pop	{r7, pc}
	...

08006efc <HAL_UART_IRQHandler>:
  * @param  huart  Pointer to a UART_HandleTypeDef structure that contains
  *                the configuration information for the specified UART module.
  * @retval None
  */
void HAL_UART_IRQHandler(UART_HandleTypeDef *huart)
{
 8006efc:	b580      	push	{r7, lr}
 8006efe:	b0ba      	sub	sp, #232	; 0xe8
 8006f00:	af00      	add	r7, sp, #0
 8006f02:	6078      	str	r0, [r7, #4]
  uint32_t isrflags   = READ_REG(huart->Instance->SR);
 8006f04:	687b      	ldr	r3, [r7, #4]
 8006f06:	681b      	ldr	r3, [r3, #0]
 8006f08:	681b      	ldr	r3, [r3, #0]
 8006f0a:	f8c7 30e4 	str.w	r3, [r7, #228]	; 0xe4
  uint32_t cr1its     = READ_REG(huart->Instance->CR1);
 8006f0e:	687b      	ldr	r3, [r7, #4]
 8006f10:	681b      	ldr	r3, [r3, #0]
 8006f12:	68db      	ldr	r3, [r3, #12]
 8006f14:	f8c7 30e0 	str.w	r3, [r7, #224]	; 0xe0
  uint32_t cr3its     = READ_REG(huart->Instance->CR3);
 8006f18:	687b      	ldr	r3, [r7, #4]
 8006f1a:	681b      	ldr	r3, [r3, #0]
 8006f1c:	695b      	ldr	r3, [r3, #20]
 8006f1e:	f8c7 30dc 	str.w	r3, [r7, #220]	; 0xdc
  uint32_t errorflags = 0x00U;
 8006f22:	2300      	movs	r3, #0
 8006f24:	f8c7 30d8 	str.w	r3, [r7, #216]	; 0xd8
  uint32_t dmarequest = 0x00U;
 8006f28:	2300      	movs	r3, #0
 8006f2a:	f8c7 30d4 	str.w	r3, [r7, #212]	; 0xd4

  /* If no error occurs */
  errorflags = (isrflags & (uint32_t)(USART_SR_PE | USART_SR_FE | USART_SR_ORE | USART_SR_NE));
 8006f2e:	f8d7 30e4 	ldr.w	r3, [r7, #228]	; 0xe4
 8006f32:	f003 030f 	and.w	r3, r3, #15
 8006f36:	f8c7 30d8 	str.w	r3, [r7, #216]	; 0xd8
  if (errorflags == RESET)
 8006f3a:	f8d7 30d8 	ldr.w	r3, [r7, #216]	; 0xd8
 8006f3e:	2b00      	cmp	r3, #0
 8006f40:	d10f      	bne.n	8006f62 <HAL_UART_IRQHandler+0x66>
  {
    /* UART in mode Receiver -------------------------------------------------*/
    if (((isrflags & USART_SR_RXNE) != RESET) && ((cr1its & USART_CR1_RXNEIE) != RESET))
 8006f42:	f8d7 30e4 	ldr.w	r3, [r7, #228]	; 0xe4
 8006f46:	f003 0320 	and.w	r3, r3, #32
 8006f4a:	2b00      	cmp	r3, #0
 8006f4c:	d009      	beq.n	8006f62 <HAL_UART_IRQHandler+0x66>
 8006f4e:	f8d7 30e0 	ldr.w	r3, [r7, #224]	; 0xe0
 8006f52:	f003 0320 	and.w	r3, r3, #32
 8006f56:	2b00      	cmp	r3, #0
 8006f58:	d003      	beq.n	8006f62 <HAL_UART_IRQHandler+0x66>
    {
      UART_Receive_IT(huart);
 8006f5a:	6878      	ldr	r0, [r7, #4]
 8006f5c:	f000 fd8d 	bl	8007a7a <UART_Receive_IT>
      return;
 8006f60:	e256      	b.n	8007410 <HAL_UART_IRQHandler+0x514>
    }
  }

  /* If some errors occur */
  if ((errorflags != RESET) && (((cr3its & USART_CR3_EIE) != RESET)
 8006f62:	f8d7 30d8 	ldr.w	r3, [r7, #216]	; 0xd8
 8006f66:	2b00      	cmp	r3, #0
 8006f68:	f000 80de 	beq.w	8007128 <HAL_UART_IRQHandler+0x22c>
 8006f6c:	f8d7 30dc 	ldr.w	r3, [r7, #220]	; 0xdc
 8006f70:	f003 0301 	and.w	r3, r3, #1
 8006f74:	2b00      	cmp	r3, #0
 8006f76:	d106      	bne.n	8006f86 <HAL_UART_IRQHandler+0x8a>
                                || ((cr1its & (USART_CR1_RXNEIE | USART_CR1_PEIE)) != RESET)))
 8006f78:	f8d7 30e0 	ldr.w	r3, [r7, #224]	; 0xe0
 8006f7c:	f403 7390 	and.w	r3, r3, #288	; 0x120
 8006f80:	2b00      	cmp	r3, #0
 8006f82:	f000 80d1 	beq.w	8007128 <HAL_UART_IRQHandler+0x22c>
  {
    /* UART parity error interrupt occurred ----------------------------------*/
    if (((isrflags & USART_SR_PE) != RESET) && ((cr1its & USART_CR1_PEIE) != RESET))
 8006f86:	f8d7 30e4 	ldr.w	r3, [r7, #228]	; 0xe4
 8006f8a:	f003 0301 	and.w	r3, r3, #1
 8006f8e:	2b00      	cmp	r3, #0
 8006f90:	d00b      	beq.n	8006faa <HAL_UART_IRQHandler+0xae>
 8006f92:	f8d7 30e0 	ldr.w	r3, [r7, #224]	; 0xe0
 8006f96:	f403 7380 	and.w	r3, r3, #256	; 0x100
 8006f9a:	2b00      	cmp	r3, #0
 8006f9c:	d005      	beq.n	8006faa <HAL_UART_IRQHandler+0xae>
    {
      huart->ErrorCode |= HAL_UART_ERROR_PE;
 8006f9e:	687b      	ldr	r3, [r7, #4]
 8006fa0:	6c1b      	ldr	r3, [r3, #64]	; 0x40
 8006fa2:	f043 0201 	orr.w	r2, r3, #1
 8006fa6:	687b      	ldr	r3, [r7, #4]
 8006fa8:	641a      	str	r2, [r3, #64]	; 0x40
    }

    /* UART noise error interrupt occurred -----------------------------------*/
    if (((isrflags & USART_SR_NE) != RESET) && ((cr3its & USART_CR3_EIE) != RESET))
 8006faa:	f8d7 30e4 	ldr.w	r3, [r7, #228]	; 0xe4
 8006fae:	f003 0304 	and.w	r3, r3, #4
 8006fb2:	2b00      	cmp	r3, #0
 8006fb4:	d00b      	beq.n	8006fce <HAL_UART_IRQHandler+0xd2>
 8006fb6:	f8d7 30dc 	ldr.w	r3, [r7, #220]	; 0xdc
 8006fba:	f003 0301 	and.w	r3, r3, #1
 8006fbe:	2b00      	cmp	r3, #0
 8006fc0:	d005      	beq.n	8006fce <HAL_UART_IRQHandler+0xd2>
    {
      huart->ErrorCode |= HAL_UART_ERROR_NE;
 8006fc2:	687b      	ldr	r3, [r7, #4]
 8006fc4:	6c1b      	ldr	r3, [r3, #64]	; 0x40
 8006fc6:	f043 0202 	orr.w	r2, r3, #2
 8006fca:	687b      	ldr	r3, [r7, #4]
 8006fcc:	641a      	str	r2, [r3, #64]	; 0x40
    }

    /* UART frame error interrupt occurred -----------------------------------*/
    if (((isrflags & USART_SR_FE) != RESET) && ((cr3its & USART_CR3_EIE) != RESET))
 8006fce:	f8d7 30e4 	ldr.w	r3, [r7, #228]	; 0xe4
 8006fd2:	f003 0302 	and.w	r3, r3, #2
 8006fd6:	2b00      	cmp	r3, #0
 8006fd8:	d00b      	beq.n	8006ff2 <HAL_UART_IRQHandler+0xf6>
 8006fda:	f8d7 30dc 	ldr.w	r3, [r7, #220]	; 0xdc
 8006fde:	f003 0301 	and.w	r3, r3, #1
 8006fe2:	2b00      	cmp	r3, #0
 8006fe4:	d005      	beq.n	8006ff2 <HAL_UART_IRQHandler+0xf6>
    {
      huart->ErrorCode |= HAL_UART_ERROR_FE;
 8006fe6:	687b      	ldr	r3, [r7, #4]
 8006fe8:	6c1b      	ldr	r3, [r3, #64]	; 0x40
 8006fea:	f043 0204 	orr.w	r2, r3, #4
 8006fee:	687b      	ldr	r3, [r7, #4]
 8006ff0:	641a      	str	r2, [r3, #64]	; 0x40
    }

    /* UART Over-Run interrupt occurred --------------------------------------*/
    if (((isrflags & USART_SR_ORE) != RESET) && (((cr1its & USART_CR1_RXNEIE) != RESET)
 8006ff2:	f8d7 30e4 	ldr.w	r3, [r7, #228]	; 0xe4
 8006ff6:	f003 0308 	and.w	r3, r3, #8
 8006ffa:	2b00      	cmp	r3, #0
 8006ffc:	d011      	beq.n	8007022 <HAL_UART_IRQHandler+0x126>
 8006ffe:	f8d7 30e0 	ldr.w	r3, [r7, #224]	; 0xe0
 8007002:	f003 0320 	and.w	r3, r3, #32
 8007006:	2b00      	cmp	r3, #0
 8007008:	d105      	bne.n	8007016 <HAL_UART_IRQHandler+0x11a>
                                                 || ((cr3its & USART_CR3_EIE) != RESET)))
 800700a:	f8d7 30dc 	ldr.w	r3, [r7, #220]	; 0xdc
 800700e:	f003 0301 	and.w	r3, r3, #1
 8007012:	2b00      	cmp	r3, #0
 8007014:	d005      	beq.n	8007022 <HAL_UART_IRQHandler+0x126>
    {
      huart->ErrorCode |= HAL_UART_ERROR_ORE;
 8007016:	687b      	ldr	r3, [r7, #4]
 8007018:	6c1b      	ldr	r3, [r3, #64]	; 0x40
 800701a:	f043 0208 	orr.w	r2, r3, #8
 800701e:	687b      	ldr	r3, [r7, #4]
 8007020:	641a      	str	r2, [r3, #64]	; 0x40
    }

    /* Call UART Error Call back function if need be --------------------------*/
    if (huart->ErrorCode != HAL_UART_ERROR_NONE)
 8007022:	687b      	ldr	r3, [r7, #4]
 8007024:	6c1b      	ldr	r3, [r3, #64]	; 0x40
 8007026:	2b00      	cmp	r3, #0
 8007028:	f000 81ed 	beq.w	8007406 <HAL_UART_IRQHandler+0x50a>
    {
      /* UART in mode Receiver -----------------------------------------------*/
      if (((isrflags & USART_SR_RXNE) != RESET) && ((cr1its & USART_CR1_RXNEIE) != RESET))
 800702c:	f8d7 30e4 	ldr.w	r3, [r7, #228]	; 0xe4
 8007030:	f003 0320 	and.w	r3, r3, #32
 8007034:	2b00      	cmp	r3, #0
 8007036:	d008      	beq.n	800704a <HAL_UART_IRQHandler+0x14e>
 8007038:	f8d7 30e0 	ldr.w	r3, [r7, #224]	; 0xe0
 800703c:	f003 0320 	and.w	r3, r3, #32
 8007040:	2b00      	cmp	r3, #0
 8007042:	d002      	beq.n	800704a <HAL_UART_IRQHandler+0x14e>
      {
        UART_Receive_IT(huart);
 8007044:	6878      	ldr	r0, [r7, #4]
 8007046:	f000 fd18 	bl	8007a7a <UART_Receive_IT>
      }

      /* If Overrun error occurs, or if any error occurs in DMA mode reception,
         consider error as blocking */
      dmarequest = HAL_IS_BIT_SET(huart->Instance->CR3, USART_CR3_DMAR);
 800704a:	687b      	ldr	r3, [r7, #4]
 800704c:	681b      	ldr	r3, [r3, #0]
 800704e:	695b      	ldr	r3, [r3, #20]
 8007050:	f003 0340 	and.w	r3, r3, #64	; 0x40
 8007054:	2b40      	cmp	r3, #64	; 0x40
 8007056:	bf0c      	ite	eq
 8007058:	2301      	moveq	r3, #1
 800705a:	2300      	movne	r3, #0
 800705c:	b2db      	uxtb	r3, r3
 800705e:	f8c7 30d4 	str.w	r3, [r7, #212]	; 0xd4
      if (((huart->ErrorCode & HAL_UART_ERROR_ORE) != RESET) || dmarequest)
 8007062:	687b      	ldr	r3, [r7, #4]
 8007064:	6c1b      	ldr	r3, [r3, #64]	; 0x40
 8007066:	f003 0308 	and.w	r3, r3, #8
 800706a:	2b00      	cmp	r3, #0
 800706c:	d103      	bne.n	8007076 <HAL_UART_IRQHandler+0x17a>
 800706e:	f8d7 30d4 	ldr.w	r3, [r7, #212]	; 0xd4
 8007072:	2b00      	cmp	r3, #0
 8007074:	d04f      	beq.n	8007116 <HAL_UART_IRQHandler+0x21a>
      {
        /* Blocking error : transfer is aborted
           Set the UART state ready to be able to start again the process,
           Disable Rx Interrupts, and disable Rx DMA request, if ongoing */
        UART_EndRxTransfer(huart);
 8007076:	6878      	ldr	r0, [r7, #4]
 8007078:	f000 fc20 	bl	80078bc <UART_EndRxTransfer>

        /* Disable the UART DMA Rx request if enabled */
        if (HAL_IS_BIT_SET(huart->Instance->CR3, USART_CR3_DMAR))
 800707c:	687b      	ldr	r3, [r7, #4]
 800707e:	681b      	ldr	r3, [r3, #0]
 8007080:	695b      	ldr	r3, [r3, #20]
 8007082:	f003 0340 	and.w	r3, r3, #64	; 0x40
 8007086:	2b40      	cmp	r3, #64	; 0x40
 8007088:	d141      	bne.n	800710e <HAL_UART_IRQHandler+0x212>
        {
          ATOMIC_CLEAR_BIT(huart->Instance->CR3, USART_CR3_DMAR);
 800708a:	687b      	ldr	r3, [r7, #4]
 800708c:	681b      	ldr	r3, [r3, #0]
 800708e:	3314      	adds	r3, #20
 8007090:	f8c7 309c 	str.w	r3, [r7, #156]	; 0x9c
 */
__STATIC_FORCEINLINE uint32_t __LDREXW(volatile uint32_t *addr)
{
    uint32_t result;

   __ASM volatile ("ldrex %0, %1" : "=r" (result) : "Q" (*addr) );
 8007094:	f8d7 309c 	ldr.w	r3, [r7, #156]	; 0x9c
 8007098:	e853 3f00 	ldrex	r3, [r3]
 800709c:	f8c7 3098 	str.w	r3, [r7, #152]	; 0x98
   return(result);
 80070a0:	f8d7 3098 	ldr.w	r3, [r7, #152]	; 0x98
 80070a4:	f023 0340 	bic.w	r3, r3, #64	; 0x40
 80070a8:	f8c7 30d0 	str.w	r3, [r7, #208]	; 0xd0
 80070ac:	687b      	ldr	r3, [r7, #4]
 80070ae:	681b      	ldr	r3, [r3, #0]
 80070b0:	3314      	adds	r3, #20
 80070b2:	f8d7 20d0 	ldr.w	r2, [r7, #208]	; 0xd0
 80070b6:	f8c7 20a8 	str.w	r2, [r7, #168]	; 0xa8
 80070ba:	f8c7 30a4 	str.w	r3, [r7, #164]	; 0xa4
 */
__STATIC_FORCEINLINE uint32_t __STREXW(uint32_t value, volatile uint32_t *addr)
{
   uint32_t result;

   __ASM volatile ("strex %0, %2, %1" : "=&r" (result), "=Q" (*addr) : "r" (value) );
 80070be:	f8d7 10a4 	ldr.w	r1, [r7, #164]	; 0xa4
 80070c2:	f8d7 20a8 	ldr.w	r2, [r7, #168]	; 0xa8
 80070c6:	e841 2300 	strex	r3, r2, [r1]
 80070ca:	f8c7 30a0 	str.w	r3, [r7, #160]	; 0xa0
   return(result);
 80070ce:	f8d7 30a0 	ldr.w	r3, [r7, #160]	; 0xa0
 80070d2:	2b00      	cmp	r3, #0
 80070d4:	d1d9      	bne.n	800708a <HAL_UART_IRQHandler+0x18e>

          /* Abort the UART DMA Rx stream */
          if (huart->hdmarx != NULL)
 80070d6:	687b      	ldr	r3, [r7, #4]
 80070d8:	6b9b      	ldr	r3, [r3, #56]	; 0x38
 80070da:	2b00      	cmp	r3, #0
 80070dc:	d013      	beq.n	8007106 <HAL_UART_IRQHandler+0x20a>
          {
            /* Set the UART DMA Abort callback :
               will lead to call HAL_UART_ErrorCallback() at end of DMA abort procedure */
            huart->hdmarx->XferAbortCallback = UART_DMAAbortOnError;
 80070de:	687b      	ldr	r3, [r7, #4]
 80070e0:	6b9b      	ldr	r3, [r3, #56]	; 0x38
 80070e2:	4a7d      	ldr	r2, [pc, #500]	; (80072d8 <HAL_UART_IRQHandler+0x3dc>)
 80070e4:	651a      	str	r2, [r3, #80]	; 0x50
            if (HAL_DMA_Abort_IT(huart->hdmarx) != HAL_OK)
 80070e6:	687b      	ldr	r3, [r7, #4]
 80070e8:	6b9b      	ldr	r3, [r3, #56]	; 0x38
 80070ea:	4618      	mov	r0, r3
 80070ec:	f7fb fefa 	bl	8002ee4 <HAL_DMA_Abort_IT>
 80070f0:	4603      	mov	r3, r0
 80070f2:	2b00      	cmp	r3, #0
 80070f4:	d016      	beq.n	8007124 <HAL_UART_IRQHandler+0x228>
            {
              /* Call Directly XferAbortCallback function in case of error */
              huart->hdmarx->XferAbortCallback(huart->hdmarx);
 80070f6:	687b      	ldr	r3, [r7, #4]
 80070f8:	6b9b      	ldr	r3, [r3, #56]	; 0x38
 80070fa:	6d1b      	ldr	r3, [r3, #80]	; 0x50
 80070fc:	687a      	ldr	r2, [r7, #4]
 80070fe:	6b92      	ldr	r2, [r2, #56]	; 0x38
 8007100:	4610      	mov	r0, r2
 8007102:	4798      	blx	r3
        if (HAL_IS_BIT_SET(huart->Instance->CR3, USART_CR3_DMAR))
 8007104:	e00e      	b.n	8007124 <HAL_UART_IRQHandler+0x228>
#if (USE_HAL_UART_REGISTER_CALLBACKS == 1)
            /*Call registered error callback*/
            huart->ErrorCallback(huart);
#else
            /*Call legacy weak error callback*/
            HAL_UART_ErrorCallback(huart);
 8007106:	6878      	ldr	r0, [r7, #4]
 8007108:	f000 f99a 	bl	8007440 <HAL_UART_ErrorCallback>
        if (HAL_IS_BIT_SET(huart->Instance->CR3, USART_CR3_DMAR))
 800710c:	e00a      	b.n	8007124 <HAL_UART_IRQHandler+0x228>
#if (USE_HAL_UART_REGISTER_CALLBACKS == 1)
          /*Call registered error callback*/
          huart->ErrorCallback(huart);
#else
          /*Call legacy weak error callback*/
          HAL_UART_ErrorCallback(huart);
 800710e:	6878      	ldr	r0, [r7, #4]
 8007110:	f000 f996 	bl	8007440 <HAL_UART_ErrorCallback>
        if (HAL_IS_BIT_SET(huart->Instance->CR3, USART_CR3_DMAR))
 8007114:	e006      	b.n	8007124 <HAL_UART_IRQHandler+0x228>
#if (USE_HAL_UART_REGISTER_CALLBACKS == 1)
        /*Call registered error callback*/
        huart->ErrorCallback(huart);
#else
        /*Call legacy weak error callback*/
        HAL_UART_ErrorCallback(huart);
 8007116:	6878      	ldr	r0, [r7, #4]
 8007118:	f000 f992 	bl	8007440 <HAL_UART_ErrorCallback>
#endif /* USE_HAL_UART_REGISTER_CALLBACKS */

        huart->ErrorCode = HAL_UART_ERROR_NONE;
 800711c:	687b      	ldr	r3, [r7, #4]
 800711e:	2200      	movs	r2, #0
 8007120:	641a      	str	r2, [r3, #64]	; 0x40
      }
    }
    return;
 8007122:	e170      	b.n	8007406 <HAL_UART_IRQHandler+0x50a>
        if (HAL_IS_BIT_SET(huart->Instance->CR3, USART_CR3_DMAR))
 8007124:	bf00      	nop
    return;
 8007126:	e16e      	b.n	8007406 <HAL_UART_IRQHandler+0x50a>
  } /* End if some error occurs */

  /* Check current reception Mode :
     If Reception till IDLE event has been selected : */
  if ((huart->ReceptionType == HAL_UART_RECEPTION_TOIDLE)
 8007128:	687b      	ldr	r3, [r7, #4]
 800712a:	6b1b      	ldr	r3, [r3, #48]	; 0x30
 800712c:	2b01      	cmp	r3, #1
 800712e:	f040 814a 	bne.w	80073c6 <HAL_UART_IRQHandler+0x4ca>
      && ((isrflags & USART_SR_IDLE) != 0U)
 8007132:	f8d7 30e4 	ldr.w	r3, [r7, #228]	; 0xe4
 8007136:	f003 0310 	and.w	r3, r3, #16
 800713a:	2b00      	cmp	r3, #0
 800713c:	f000 8143 	beq.w	80073c6 <HAL_UART_IRQHandler+0x4ca>
      && ((cr1its & USART_SR_IDLE) != 0U))
 8007140:	f8d7 30e0 	ldr.w	r3, [r7, #224]	; 0xe0
 8007144:	f003 0310 	and.w	r3, r3, #16
 8007148:	2b00      	cmp	r3, #0
 800714a:	f000 813c 	beq.w	80073c6 <HAL_UART_IRQHandler+0x4ca>
  {
    __HAL_UART_CLEAR_IDLEFLAG(huart);
 800714e:	2300      	movs	r3, #0
 8007150:	60bb      	str	r3, [r7, #8]
 8007152:	687b      	ldr	r3, [r7, #4]
 8007154:	681b      	ldr	r3, [r3, #0]
 8007156:	681b      	ldr	r3, [r3, #0]
 8007158:	60bb      	str	r3, [r7, #8]
 800715a:	687b      	ldr	r3, [r7, #4]
 800715c:	681b      	ldr	r3, [r3, #0]
 800715e:	685b      	ldr	r3, [r3, #4]
 8007160:	60bb      	str	r3, [r7, #8]
 8007162:	68bb      	ldr	r3, [r7, #8]

    /* Check if DMA mode is enabled in UART */
    if (HAL_IS_BIT_SET(huart->Instance->CR3, USART_CR3_DMAR))
 8007164:	687b      	ldr	r3, [r7, #4]
 8007166:	681b      	ldr	r3, [r3, #0]
 8007168:	695b      	ldr	r3, [r3, #20]
 800716a:	f003 0340 	and.w	r3, r3, #64	; 0x40
 800716e:	2b40      	cmp	r3, #64	; 0x40
 8007170:	f040 80b4 	bne.w	80072dc <HAL_UART_IRQHandler+0x3e0>
    {
      /* DMA mode enabled */
      /* Check received length : If all expected data are received, do nothing,
         (DMA cplt callback will be called).
         Otherwise, if at least one data has already been received, IDLE event is to be notified to user */
      uint16_t nb_remaining_rx_data = (uint16_t) __HAL_DMA_GET_COUNTER(huart->hdmarx);
 8007174:	687b      	ldr	r3, [r7, #4]
 8007176:	6b9b      	ldr	r3, [r3, #56]	; 0x38
 8007178:	681b      	ldr	r3, [r3, #0]
 800717a:	685b      	ldr	r3, [r3, #4]
 800717c:	f8a7 30be 	strh.w	r3, [r7, #190]	; 0xbe
      if ((nb_remaining_rx_data > 0U)
 8007180:	f8b7 30be 	ldrh.w	r3, [r7, #190]	; 0xbe
 8007184:	2b00      	cmp	r3, #0
 8007186:	f000 8140 	beq.w	800740a <HAL_UART_IRQHandler+0x50e>
          && (nb_remaining_rx_data < huart->RxXferSize))
 800718a:	687b      	ldr	r3, [r7, #4]
 800718c:	8d9b      	ldrh	r3, [r3, #44]	; 0x2c
 800718e:	f8b7 20be 	ldrh.w	r2, [r7, #190]	; 0xbe
 8007192:	429a      	cmp	r2, r3
 8007194:	f080 8139 	bcs.w	800740a <HAL_UART_IRQHandler+0x50e>
      {
        /* Reception is not complete */
        huart->RxXferCount = nb_remaining_rx_data;
 8007198:	687b      	ldr	r3, [r7, #4]
 800719a:	f8b7 20be 	ldrh.w	r2, [r7, #190]	; 0xbe
 800719e:	85da      	strh	r2, [r3, #46]	; 0x2e

        /* In Normal mode, end DMA xfer and HAL UART Rx process*/
        if (huart->hdmarx->Init.Mode != DMA_CIRCULAR)
 80071a0:	687b      	ldr	r3, [r7, #4]
 80071a2:	6b9b      	ldr	r3, [r3, #56]	; 0x38
 80071a4:	69db      	ldr	r3, [r3, #28]
 80071a6:	f5b3 7f80 	cmp.w	r3, #256	; 0x100
 80071aa:	f000 8088 	beq.w	80072be <HAL_UART_IRQHandler+0x3c2>
        {
          /* Disable PE and ERR (Frame error, noise error, overrun error) interrupts */
          ATOMIC_CLEAR_BIT(huart->Instance->CR1, USART_CR1_PEIE);
 80071ae:	687b      	ldr	r3, [r7, #4]
 80071b0:	681b      	ldr	r3, [r3, #0]
 80071b2:	330c      	adds	r3, #12
 80071b4:	f8c7 3088 	str.w	r3, [r7, #136]	; 0x88
   __ASM volatile ("ldrex %0, %1" : "=r" (result) : "Q" (*addr) );
 80071b8:	f8d7 3088 	ldr.w	r3, [r7, #136]	; 0x88
 80071bc:	e853 3f00 	ldrex	r3, [r3]
 80071c0:	f8c7 3084 	str.w	r3, [r7, #132]	; 0x84
   return(result);
 80071c4:	f8d7 3084 	ldr.w	r3, [r7, #132]	; 0x84
 80071c8:	f423 7380 	bic.w	r3, r3, #256	; 0x100
 80071cc:	f8c7 30b8 	str.w	r3, [r7, #184]	; 0xb8
 80071d0:	687b      	ldr	r3, [r7, #4]
 80071d2:	681b      	ldr	r3, [r3, #0]
 80071d4:	330c      	adds	r3, #12
 80071d6:	f8d7 20b8 	ldr.w	r2, [r7, #184]	; 0xb8
 80071da:	f8c7 2094 	str.w	r2, [r7, #148]	; 0x94
 80071de:	f8c7 3090 	str.w	r3, [r7, #144]	; 0x90
   __ASM volatile ("strex %0, %2, %1" : "=&r" (result), "=Q" (*addr) : "r" (value) );
 80071e2:	f8d7 1090 	ldr.w	r1, [r7, #144]	; 0x90
 80071e6:	f8d7 2094 	ldr.w	r2, [r7, #148]	; 0x94
 80071ea:	e841 2300 	strex	r3, r2, [r1]
 80071ee:	f8c7 308c 	str.w	r3, [r7, #140]	; 0x8c
   return(result);
 80071f2:	f8d7 308c 	ldr.w	r3, [r7, #140]	; 0x8c
 80071f6:	2b00      	cmp	r3, #0
 80071f8:	d1d9      	bne.n	80071ae <HAL_UART_IRQHandler+0x2b2>
          ATOMIC_CLEAR_BIT(huart->Instance->CR3, USART_CR3_EIE);
 80071fa:	687b      	ldr	r3, [r7, #4]
 80071fc:	681b      	ldr	r3, [r3, #0]
 80071fe:	3314      	adds	r3, #20
 8007200:	677b      	str	r3, [r7, #116]	; 0x74
   __ASM volatile ("ldrex %0, %1" : "=r" (result) : "Q" (*addr) );
 8007202:	6f7b      	ldr	r3, [r7, #116]	; 0x74
 8007204:	e853 3f00 	ldrex	r3, [r3]
 8007208:	673b      	str	r3, [r7, #112]	; 0x70
   return(result);
 800720a:	6f3b      	ldr	r3, [r7, #112]	; 0x70
 800720c:	f023 0301 	bic.w	r3, r3, #1
 8007210:	f8c7 30b4 	str.w	r3, [r7, #180]	; 0xb4
 8007214:	687b      	ldr	r3, [r7, #4]
 8007216:	681b      	ldr	r3, [r3, #0]
 8007218:	3314      	adds	r3, #20
 800721a:	f8d7 20b4 	ldr.w	r2, [r7, #180]	; 0xb4
 800721e:	f8c7 2080 	str.w	r2, [r7, #128]	; 0x80
 8007222:	67fb      	str	r3, [r7, #124]	; 0x7c
   __ASM volatile ("strex %0, %2, %1" : "=&r" (result), "=Q" (*addr) : "r" (value) );
 8007224:	6ff9      	ldr	r1, [r7, #124]	; 0x7c
 8007226:	f8d7 2080 	ldr.w	r2, [r7, #128]	; 0x80
 800722a:	e841 2300 	strex	r3, r2, [r1]
 800722e:	67bb      	str	r3, [r7, #120]	; 0x78
   return(result);
 8007230:	6fbb      	ldr	r3, [r7, #120]	; 0x78
 8007232:	2b00      	cmp	r3, #0
 8007234:	d1e1      	bne.n	80071fa <HAL_UART_IRQHandler+0x2fe>

          /* Disable the DMA transfer for the receiver request by resetting the DMAR bit
             in the UART CR3 register */
          ATOMIC_CLEAR_BIT(huart->Instance->CR3, USART_CR3_DMAR);
 8007236:	687b      	ldr	r3, [r7, #4]
 8007238:	681b      	ldr	r3, [r3, #0]
 800723a:	3314      	adds	r3, #20
 800723c:	663b      	str	r3, [r7, #96]	; 0x60
   __ASM volatile ("ldrex %0, %1" : "=r" (result) : "Q" (*addr) );
 800723e:	6e3b      	ldr	r3, [r7, #96]	; 0x60
 8007240:	e853 3f00 	ldrex	r3, [r3]
 8007244:	65fb      	str	r3, [r7, #92]	; 0x5c
   return(result);
 8007246:	6dfb      	ldr	r3, [r7, #92]	; 0x5c
 8007248:	f023 0340 	bic.w	r3, r3, #64	; 0x40
 800724c:	f8c7 30b0 	str.w	r3, [r7, #176]	; 0xb0
 8007250:	687b      	ldr	r3, [r7, #4]
 8007252:	681b      	ldr	r3, [r3, #0]
 8007254:	3314      	adds	r3, #20
 8007256:	f8d7 20b0 	ldr.w	r2, [r7, #176]	; 0xb0
 800725a:	66fa      	str	r2, [r7, #108]	; 0x6c
 800725c:	66bb      	str	r3, [r7, #104]	; 0x68
   __ASM volatile ("strex %0, %2, %1" : "=&r" (result), "=Q" (*addr) : "r" (value) );
 800725e:	6eb9      	ldr	r1, [r7, #104]	; 0x68
 8007260:	6efa      	ldr	r2, [r7, #108]	; 0x6c
 8007262:	e841 2300 	strex	r3, r2, [r1]
 8007266:	667b      	str	r3, [r7, #100]	; 0x64
   return(result);
 8007268:	6e7b      	ldr	r3, [r7, #100]	; 0x64
 800726a:	2b00      	cmp	r3, #0
 800726c:	d1e3      	bne.n	8007236 <HAL_UART_IRQHandler+0x33a>

          /* At end of Rx process, restore huart->RxState to Ready */
          huart->RxState = HAL_UART_STATE_READY;
 800726e:	687b      	ldr	r3, [r7, #4]
 8007270:	2220      	movs	r2, #32
 8007272:	f883 203e 	strb.w	r2, [r3, #62]	; 0x3e
          huart->ReceptionType = HAL_UART_RECEPTION_STANDARD;
 8007276:	687b      	ldr	r3, [r7, #4]
 8007278:	2200      	movs	r2, #0
 800727a:	631a      	str	r2, [r3, #48]	; 0x30

          ATOMIC_CLEAR_BIT(huart->Instance->CR1, USART_CR1_IDLEIE);
 800727c:	687b      	ldr	r3, [r7, #4]
 800727e:	681b      	ldr	r3, [r3, #0]
 8007280:	330c      	adds	r3, #12
 8007282:	64fb      	str	r3, [r7, #76]	; 0x4c
   __ASM volatile ("ldrex %0, %1" : "=r" (result) : "Q" (*addr) );
 8007284:	6cfb      	ldr	r3, [r7, #76]	; 0x4c
 8007286:	e853 3f00 	ldrex	r3, [r3]
 800728a:	64bb      	str	r3, [r7, #72]	; 0x48
   return(result);
 800728c:	6cbb      	ldr	r3, [r7, #72]	; 0x48
 800728e:	f023 0310 	bic.w	r3, r3, #16
 8007292:	f8c7 30ac 	str.w	r3, [r7, #172]	; 0xac
 8007296:	687b      	ldr	r3, [r7, #4]
 8007298:	681b      	ldr	r3, [r3, #0]
 800729a:	330c      	adds	r3, #12
 800729c:	f8d7 20ac 	ldr.w	r2, [r7, #172]	; 0xac
 80072a0:	65ba      	str	r2, [r7, #88]	; 0x58
 80072a2:	657b      	str	r3, [r7, #84]	; 0x54
   __ASM volatile ("strex %0, %2, %1" : "=&r" (result), "=Q" (*addr) : "r" (value) );
 80072a4:	6d79      	ldr	r1, [r7, #84]	; 0x54
 80072a6:	6dba      	ldr	r2, [r7, #88]	; 0x58
 80072a8:	e841 2300 	strex	r3, r2, [r1]
 80072ac:	653b      	str	r3, [r7, #80]	; 0x50
   return(result);
 80072ae:	6d3b      	ldr	r3, [r7, #80]	; 0x50
 80072b0:	2b00      	cmp	r3, #0
 80072b2:	d1e3      	bne.n	800727c <HAL_UART_IRQHandler+0x380>

          /* Last bytes received, so no need as the abort is immediate */
          (void)HAL_DMA_Abort(huart->hdmarx);
 80072b4:	687b      	ldr	r3, [r7, #4]
 80072b6:	6b9b      	ldr	r3, [r3, #56]	; 0x38
 80072b8:	4618      	mov	r0, r3
 80072ba:	f7fb fda3 	bl	8002e04 <HAL_DMA_Abort>
#if (USE_HAL_UART_REGISTER_CALLBACKS == 1)
        /*Call registered Rx Event callback*/
        huart->RxEventCallback(huart, (huart->RxXferSize - huart->RxXferCount));
#else
        /*Call legacy weak Rx Event callback*/
        HAL_UARTEx_RxEventCallback(huart, (huart->RxXferSize - huart->RxXferCount));
 80072be:	687b      	ldr	r3, [r7, #4]
 80072c0:	8d9a      	ldrh	r2, [r3, #44]	; 0x2c
 80072c2:	687b      	ldr	r3, [r7, #4]
 80072c4:	8ddb      	ldrh	r3, [r3, #46]	; 0x2e
 80072c6:	b29b      	uxth	r3, r3
 80072c8:	1ad3      	subs	r3, r2, r3
 80072ca:	b29b      	uxth	r3, r3
 80072cc:	4619      	mov	r1, r3
 80072ce:	6878      	ldr	r0, [r7, #4]
 80072d0:	f000 f8c0 	bl	8007454 <HAL_UARTEx_RxEventCallback>
#endif /* USE_HAL_UART_REGISTER_CALLBACKS */
      }
      return;
 80072d4:	e099      	b.n	800740a <HAL_UART_IRQHandler+0x50e>
 80072d6:	bf00      	nop
 80072d8:	08007983 	.word	0x08007983
    else
    {
      /* DMA mode not enabled */
      /* Check received length : If all expected data are received, do nothing.
         Otherwise, if at least one data has already been received, IDLE event is to be notified to user */
      uint16_t nb_rx_data = huart->RxXferSize - huart->RxXferCount;
 80072dc:	687b      	ldr	r3, [r7, #4]
 80072de:	8d9a      	ldrh	r2, [r3, #44]	; 0x2c
 80072e0:	687b      	ldr	r3, [r7, #4]
 80072e2:	8ddb      	ldrh	r3, [r3, #46]	; 0x2e
 80072e4:	b29b      	uxth	r3, r3
 80072e6:	1ad3      	subs	r3, r2, r3
 80072e8:	f8a7 30ce 	strh.w	r3, [r7, #206]	; 0xce
      if ((huart->RxXferCount > 0U)
 80072ec:	687b      	ldr	r3, [r7, #4]
 80072ee:	8ddb      	ldrh	r3, [r3, #46]	; 0x2e
 80072f0:	b29b      	uxth	r3, r3
 80072f2:	2b00      	cmp	r3, #0
 80072f4:	f000 808b 	beq.w	800740e <HAL_UART_IRQHandler+0x512>
          && (nb_rx_data > 0U))
 80072f8:	f8b7 30ce 	ldrh.w	r3, [r7, #206]	; 0xce
 80072fc:	2b00      	cmp	r3, #0
 80072fe:	f000 8086 	beq.w	800740e <HAL_UART_IRQHandler+0x512>
      {
        /* Disable the UART Parity Error Interrupt and RXNE interrupts */
        ATOMIC_CLEAR_BIT(huart->Instance->CR1, (USART_CR1_RXNEIE | USART_CR1_PEIE));
 8007302:	687b      	ldr	r3, [r7, #4]
 8007304:	681b      	ldr	r3, [r3, #0]
 8007306:	330c      	adds	r3, #12
 8007308:	63bb      	str	r3, [r7, #56]	; 0x38
   __ASM volatile ("ldrex %0, %1" : "=r" (result) : "Q" (*addr) );
 800730a:	6bbb      	ldr	r3, [r7, #56]	; 0x38
 800730c:	e853 3f00 	ldrex	r3, [r3]
 8007310:	637b      	str	r3, [r7, #52]	; 0x34
   return(result);
 8007312:	6b7b      	ldr	r3, [r7, #52]	; 0x34
 8007314:	f423 7390 	bic.w	r3, r3, #288	; 0x120
 8007318:	f8c7 30c8 	str.w	r3, [r7, #200]	; 0xc8
 800731c:	687b      	ldr	r3, [r7, #4]
 800731e:	681b      	ldr	r3, [r3, #0]
 8007320:	330c      	adds	r3, #12
 8007322:	f8d7 20c8 	ldr.w	r2, [r7, #200]	; 0xc8
 8007326:	647a      	str	r2, [r7, #68]	; 0x44
 8007328:	643b      	str	r3, [r7, #64]	; 0x40
   __ASM volatile ("strex %0, %2, %1" : "=&r" (result), "=Q" (*addr) : "r" (value) );
 800732a:	6c39      	ldr	r1, [r7, #64]	; 0x40
 800732c:	6c7a      	ldr	r2, [r7, #68]	; 0x44
 800732e:	e841 2300 	strex	r3, r2, [r1]
 8007332:	63fb      	str	r3, [r7, #60]	; 0x3c
   return(result);
 8007334:	6bfb      	ldr	r3, [r7, #60]	; 0x3c
 8007336:	2b00      	cmp	r3, #0
 8007338:	d1e3      	bne.n	8007302 <HAL_UART_IRQHandler+0x406>

        /* Disable the UART Error Interrupt: (Frame error, noise error, overrun error) */
        ATOMIC_CLEAR_BIT(huart->Instance->CR3, USART_CR3_EIE);
 800733a:	687b      	ldr	r3, [r7, #4]
 800733c:	681b      	ldr	r3, [r3, #0]
 800733e:	3314      	adds	r3, #20
 8007340:	627b      	str	r3, [r7, #36]	; 0x24
   __ASM volatile ("ldrex %0, %1" : "=r" (result) : "Q" (*addr) );
 8007342:	6a7b      	ldr	r3, [r7, #36]	; 0x24
 8007344:	e853 3f00 	ldrex	r3, [r3]
 8007348:	623b      	str	r3, [r7, #32]
   return(result);
 800734a:	6a3b      	ldr	r3, [r7, #32]
 800734c:	f023 0301 	bic.w	r3, r3, #1
 8007350:	f8c7 30c4 	str.w	r3, [r7, #196]	; 0xc4
 8007354:	687b      	ldr	r3, [r7, #4]
 8007356:	681b      	ldr	r3, [r3, #0]
 8007358:	3314      	adds	r3, #20
 800735a:	f8d7 20c4 	ldr.w	r2, [r7, #196]	; 0xc4
 800735e:	633a      	str	r2, [r7, #48]	; 0x30
 8007360:	62fb      	str	r3, [r7, #44]	; 0x2c
   __ASM volatile ("strex %0, %2, %1" : "=&r" (result), "=Q" (*addr) : "r" (value) );
 8007362:	6af9      	ldr	r1, [r7, #44]	; 0x2c
 8007364:	6b3a      	ldr	r2, [r7, #48]	; 0x30
 8007366:	e841 2300 	strex	r3, r2, [r1]
 800736a:	62bb      	str	r3, [r7, #40]	; 0x28
   return(result);
 800736c:	6abb      	ldr	r3, [r7, #40]	; 0x28
 800736e:	2b00      	cmp	r3, #0
 8007370:	d1e3      	bne.n	800733a <HAL_UART_IRQHandler+0x43e>

        /* Rx process is completed, restore huart->RxState to Ready */
        huart->RxState = HAL_UART_STATE_READY;
 8007372:	687b      	ldr	r3, [r7, #4]
 8007374:	2220      	movs	r2, #32
 8007376:	f883 203e 	strb.w	r2, [r3, #62]	; 0x3e
        huart->ReceptionType = HAL_UART_RECEPTION_STANDARD;
 800737a:	687b      	ldr	r3, [r7, #4]
 800737c:	2200      	movs	r2, #0
 800737e:	631a      	str	r2, [r3, #48]	; 0x30

        ATOMIC_CLEAR_BIT(huart->Instance->CR1, USART_CR1_IDLEIE);
 8007380:	687b      	ldr	r3, [r7, #4]
 8007382:	681b      	ldr	r3, [r3, #0]
 8007384:	330c      	adds	r3, #12
 8007386:	613b      	str	r3, [r7, #16]
   __ASM volatile ("ldrex %0, %1" : "=r" (result) : "Q" (*addr) );
 8007388:	693b      	ldr	r3, [r7, #16]
 800738a:	e853 3f00 	ldrex	r3, [r3]
 800738e:	60fb      	str	r3, [r7, #12]
   return(result);
 8007390:	68fb      	ldr	r3, [r7, #12]
 8007392:	f023 0310 	bic.w	r3, r3, #16
 8007396:	f8c7 30c0 	str.w	r3, [r7, #192]	; 0xc0
 800739a:	687b      	ldr	r3, [r7, #4]
 800739c:	681b      	ldr	r3, [r3, #0]
 800739e:	330c      	adds	r3, #12
 80073a0:	f8d7 20c0 	ldr.w	r2, [r7, #192]	; 0xc0
 80073a4:	61fa      	str	r2, [r7, #28]
 80073a6:	61bb      	str	r3, [r7, #24]
   __ASM volatile ("strex %0, %2, %1" : "=&r" (result), "=Q" (*addr) : "r" (value) );
 80073a8:	69b9      	ldr	r1, [r7, #24]
 80073aa:	69fa      	ldr	r2, [r7, #28]
 80073ac:	e841 2300 	strex	r3, r2, [r1]
 80073b0:	617b      	str	r3, [r7, #20]
   return(result);
 80073b2:	697b      	ldr	r3, [r7, #20]
 80073b4:	2b00      	cmp	r3, #0
 80073b6:	d1e3      	bne.n	8007380 <HAL_UART_IRQHandler+0x484>
#if (USE_HAL_UART_REGISTER_CALLBACKS == 1)
        /*Call registered Rx complete callback*/
        huart->RxEventCallback(huart, nb_rx_data);
#else
        /*Call legacy weak Rx Event callback*/
        HAL_UARTEx_RxEventCallback(huart, nb_rx_data);
 80073b8:	f8b7 30ce 	ldrh.w	r3, [r7, #206]	; 0xce
 80073bc:	4619      	mov	r1, r3
 80073be:	6878      	ldr	r0, [r7, #4]
 80073c0:	f000 f848 	bl	8007454 <HAL_UARTEx_RxEventCallback>
#endif /* USE_HAL_UART_REGISTER_CALLBACKS */
      }
      return;
 80073c4:	e023      	b.n	800740e <HAL_UART_IRQHandler+0x512>
    }
  }

  /* UART in mode Transmitter ------------------------------------------------*/
  if (((isrflags & USART_SR_TXE) != RESET) && ((cr1its & USART_CR1_TXEIE) != RESET))
 80073c6:	f8d7 30e4 	ldr.w	r3, [r7, #228]	; 0xe4
 80073ca:	f003 0380 	and.w	r3, r3, #128	; 0x80
 80073ce:	2b00      	cmp	r3, #0
 80073d0:	d009      	beq.n	80073e6 <HAL_UART_IRQHandler+0x4ea>
 80073d2:	f8d7 30e0 	ldr.w	r3, [r7, #224]	; 0xe0
 80073d6:	f003 0380 	and.w	r3, r3, #128	; 0x80
 80073da:	2b00      	cmp	r3, #0
 80073dc:	d003      	beq.n	80073e6 <HAL_UART_IRQHandler+0x4ea>
  {
    UART_Transmit_IT(huart);
 80073de:	6878      	ldr	r0, [r7, #4]
 80073e0:	f000 fae3 	bl	80079aa <UART_Transmit_IT>
    return;
 80073e4:	e014      	b.n	8007410 <HAL_UART_IRQHandler+0x514>
  }

  /* UART in mode Transmitter end --------------------------------------------*/
  if (((isrflags & USART_SR_TC) != RESET) && ((cr1its & USART_CR1_TCIE) != RESET))
 80073e6:	f8d7 30e4 	ldr.w	r3, [r7, #228]	; 0xe4
 80073ea:	f003 0340 	and.w	r3, r3, #64	; 0x40
 80073ee:	2b00      	cmp	r3, #0
 80073f0:	d00e      	beq.n	8007410 <HAL_UART_IRQHandler+0x514>
 80073f2:	f8d7 30e0 	ldr.w	r3, [r7, #224]	; 0xe0
 80073f6:	f003 0340 	and.w	r3, r3, #64	; 0x40
 80073fa:	2b00      	cmp	r3, #0
 80073fc:	d008      	beq.n	8007410 <HAL_UART_IRQHandler+0x514>
  {
    UART_EndTransmit_IT(huart);
 80073fe:	6878      	ldr	r0, [r7, #4]
 8007400:	f000 fb23 	bl	8007a4a <UART_EndTransmit_IT>
    return;
 8007404:	e004      	b.n	8007410 <HAL_UART_IRQHandler+0x514>
    return;
 8007406:	bf00      	nop
 8007408:	e002      	b.n	8007410 <HAL_UART_IRQHandler+0x514>
      return;
 800740a:	bf00      	nop
 800740c:	e000      	b.n	8007410 <HAL_UART_IRQHandler+0x514>
      return;
 800740e:	bf00      	nop
  }
}
 8007410:	37e8      	adds	r7, #232	; 0xe8
 8007412:	46bd      	mov	sp, r7
 8007414:	bd80      	pop	{r7, pc}
 8007416:	bf00      	nop

08007418 <HAL_UART_TxCpltCallback>:
  * @param  huart  Pointer to a UART_HandleTypeDef structure that contains
  *                the configuration information for the specified UART module.
  * @retval None
  */
__weak void HAL_UART_TxCpltCallback(UART_HandleTypeDef *huart)
{
 8007418:	b480      	push	{r7}
 800741a:	b083      	sub	sp, #12
 800741c:	af00      	add	r7, sp, #0
 800741e:	6078      	str	r0, [r7, #4]
  /* Prevent unused argument(s) compilation warning */
  UNUSED(huart);
  /* NOTE: This function should not be modified, when the callback is needed,
           the HAL_UART_TxCpltCallback could be implemented in the user file
   */
}
 8007420:	bf00      	nop
 8007422:	370c      	adds	r7, #12
 8007424:	46bd      	mov	sp, r7
 8007426:	f85d 7b04 	ldr.w	r7, [sp], #4
 800742a:	4770      	bx	lr

0800742c <HAL_UART_RxHalfCpltCallback>:
  * @param  huart  Pointer to a UART_HandleTypeDef structure that contains
  *                the configuration information for the specified UART module.
  * @retval None
  */
__weak void HAL_UART_RxHalfCpltCallback(UART_HandleTypeDef *huart)
{
 800742c:	b480      	push	{r7}
 800742e:	b083      	sub	sp, #12
 8007430:	af00      	add	r7, sp, #0
 8007432:	6078      	str	r0, [r7, #4]
  /* Prevent unused argument(s) compilation warning */
  UNUSED(huart);
  /* NOTE: This function should not be modified, when the callback is needed,
           the HAL_UART_RxHalfCpltCallback could be implemented in the user file
   */
}
 8007434:	bf00      	nop
 8007436:	370c      	adds	r7, #12
 8007438:	46bd      	mov	sp, r7
 800743a:	f85d 7b04 	ldr.w	r7, [sp], #4
 800743e:	4770      	bx	lr

08007440 <HAL_UART_ErrorCallback>:
  * @param  huart  Pointer to a UART_HandleTypeDef structure that contains
  *                the configuration information for the specified UART module.
  * @retval None
  */
__weak void HAL_UART_ErrorCallback(UART_HandleTypeDef *huart)
{
 8007440:	b480      	push	{r7}
 8007442:	b083      	sub	sp, #12
 8007444:	af00      	add	r7, sp, #0
 8007446:	6078      	str	r0, [r7, #4]
  /* Prevent unused argument(s) compilation warning */
  UNUSED(huart);
  /* NOTE: This function should not be modified, when the callback is needed,
           the HAL_UART_ErrorCallback could be implemented in the user file
   */
}
 8007448:	bf00      	nop
 800744a:	370c      	adds	r7, #12
 800744c:	46bd      	mov	sp, r7
 800744e:	f85d 7b04 	ldr.w	r7, [sp], #4
 8007452:	4770      	bx	lr

08007454 <HAL_UARTEx_RxEventCallback>:
  * @param  Size  Number of data available in application reception buffer (indicates a position in
  *               reception buffer until which, data are available)
  * @retval None
  */
__weak void HAL_UARTEx_RxEventCallback(UART_HandleTypeDef *huart, uint16_t Size)
{
 8007454:	b480      	push	{r7}
 8007456:	b083      	sub	sp, #12
 8007458:	af00      	add	r7, sp, #0
 800745a:	6078      	str	r0, [r7, #4]
 800745c:	460b      	mov	r3, r1
 800745e:	807b      	strh	r3, [r7, #2]
  UNUSED(Size);

  /* NOTE : This function should not be modified, when the callback is needed,
            the HAL_UARTEx_RxEventCallback can be implemented in the user file.
   */
}
 8007460:	bf00      	nop
 8007462:	370c      	adds	r7, #12
 8007464:	46bd      	mov	sp, r7
 8007466:	f85d 7b04 	ldr.w	r7, [sp], #4
 800746a:	4770      	bx	lr

0800746c <UART_DMAReceiveCplt>:
  * @param  hdma  Pointer to a DMA_HandleTypeDef structure that contains
  *               the configuration information for the specified DMA module.
  * @retval None
  */
static void UART_DMAReceiveCplt(DMA_HandleTypeDef *hdma)
{
 800746c:	b580      	push	{r7, lr}
 800746e:	b09c      	sub	sp, #112	; 0x70
 8007470:	af00      	add	r7, sp, #0
 8007472:	6078      	str	r0, [r7, #4]
  UART_HandleTypeDef *huart = (UART_HandleTypeDef *)((DMA_HandleTypeDef *)hdma)->Parent;
 8007474:	687b      	ldr	r3, [r7, #4]
 8007476:	6b9b      	ldr	r3, [r3, #56]	; 0x38
 8007478:	66fb      	str	r3, [r7, #108]	; 0x6c
  /* DMA Normal mode*/
  if ((hdma->Instance->CR & DMA_SxCR_CIRC) == 0U)
 800747a:	687b      	ldr	r3, [r7, #4]
 800747c:	681b      	ldr	r3, [r3, #0]
 800747e:	681b      	ldr	r3, [r3, #0]
 8007480:	f403 7380 	and.w	r3, r3, #256	; 0x100
 8007484:	2b00      	cmp	r3, #0
 8007486:	d172      	bne.n	800756e <UART_DMAReceiveCplt+0x102>
  {
    huart->RxXferCount = 0U;
 8007488:	6efb      	ldr	r3, [r7, #108]	; 0x6c
 800748a:	2200      	movs	r2, #0
 800748c:	85da      	strh	r2, [r3, #46]	; 0x2e

    /* Disable RXNE, PE and ERR (Frame error, noise error, overrun error) interrupts */
    ATOMIC_CLEAR_BIT(huart->Instance->CR1, USART_CR1_PEIE);
 800748e:	6efb      	ldr	r3, [r7, #108]	; 0x6c
 8007490:	681b      	ldr	r3, [r3, #0]
 8007492:	330c      	adds	r3, #12
 8007494:	64fb      	str	r3, [r7, #76]	; 0x4c
   __ASM volatile ("ldrex %0, %1" : "=r" (result) : "Q" (*addr) );
 8007496:	6cfb      	ldr	r3, [r7, #76]	; 0x4c
 8007498:	e853 3f00 	ldrex	r3, [r3]
 800749c:	64bb      	str	r3, [r7, #72]	; 0x48
   return(result);
 800749e:	6cbb      	ldr	r3, [r7, #72]	; 0x48
 80074a0:	f423 7380 	bic.w	r3, r3, #256	; 0x100
 80074a4:	66bb      	str	r3, [r7, #104]	; 0x68
 80074a6:	6efb      	ldr	r3, [r7, #108]	; 0x6c
 80074a8:	681b      	ldr	r3, [r3, #0]
 80074aa:	330c      	adds	r3, #12
 80074ac:	6eba      	ldr	r2, [r7, #104]	; 0x68
 80074ae:	65ba      	str	r2, [r7, #88]	; 0x58
 80074b0:	657b      	str	r3, [r7, #84]	; 0x54
   __ASM volatile ("strex %0, %2, %1" : "=&r" (result), "=Q" (*addr) : "r" (value) );
 80074b2:	6d79      	ldr	r1, [r7, #84]	; 0x54
 80074b4:	6dba      	ldr	r2, [r7, #88]	; 0x58
 80074b6:	e841 2300 	strex	r3, r2, [r1]
 80074ba:	653b      	str	r3, [r7, #80]	; 0x50
   return(result);
 80074bc:	6d3b      	ldr	r3, [r7, #80]	; 0x50
 80074be:	2b00      	cmp	r3, #0
 80074c0:	d1e5      	bne.n	800748e <UART_DMAReceiveCplt+0x22>
    ATOMIC_CLEAR_BIT(huart->Instance->CR3, USART_CR3_EIE);
 80074c2:	6efb      	ldr	r3, [r7, #108]	; 0x6c
 80074c4:	681b      	ldr	r3, [r3, #0]
 80074c6:	3314      	adds	r3, #20
 80074c8:	63bb      	str	r3, [r7, #56]	; 0x38
   __ASM volatile ("ldrex %0, %1" : "=r" (result) : "Q" (*addr) );
 80074ca:	6bbb      	ldr	r3, [r7, #56]	; 0x38
 80074cc:	e853 3f00 	ldrex	r3, [r3]
 80074d0:	637b      	str	r3, [r7, #52]	; 0x34
   return(result);
 80074d2:	6b7b      	ldr	r3, [r7, #52]	; 0x34
 80074d4:	f023 0301 	bic.w	r3, r3, #1
 80074d8:	667b      	str	r3, [r7, #100]	; 0x64
 80074da:	6efb      	ldr	r3, [r7, #108]	; 0x6c
 80074dc:	681b      	ldr	r3, [r3, #0]
 80074de:	3314      	adds	r3, #20
 80074e0:	6e7a      	ldr	r2, [r7, #100]	; 0x64
 80074e2:	647a      	str	r2, [r7, #68]	; 0x44
 80074e4:	643b      	str	r3, [r7, #64]	; 0x40
   __ASM volatile ("strex %0, %2, %1" : "=&r" (result), "=Q" (*addr) : "r" (value) );
 80074e6:	6c39      	ldr	r1, [r7, #64]	; 0x40
 80074e8:	6c7a      	ldr	r2, [r7, #68]	; 0x44
 80074ea:	e841 2300 	strex	r3, r2, [r1]
 80074ee:	63fb      	str	r3, [r7, #60]	; 0x3c
   return(result);
 80074f0:	6bfb      	ldr	r3, [r7, #60]	; 0x3c
 80074f2:	2b00      	cmp	r3, #0
 80074f4:	d1e5      	bne.n	80074c2 <UART_DMAReceiveCplt+0x56>

    /* Disable the DMA transfer for the receiver request by setting the DMAR bit
       in the UART CR3 register */
    ATOMIC_CLEAR_BIT(huart->Instance->CR3, USART_CR3_DMAR);
 80074f6:	6efb      	ldr	r3, [r7, #108]	; 0x6c
 80074f8:	681b      	ldr	r3, [r3, #0]
 80074fa:	3314      	adds	r3, #20
 80074fc:	627b      	str	r3, [r7, #36]	; 0x24
   __ASM volatile ("ldrex %0, %1" : "=r" (result) : "Q" (*addr) );
 80074fe:	6a7b      	ldr	r3, [r7, #36]	; 0x24
 8007500:	e853 3f00 	ldrex	r3, [r3]
 8007504:	623b      	str	r3, [r7, #32]
   return(result);
 8007506:	6a3b      	ldr	r3, [r7, #32]
 8007508:	f023 0340 	bic.w	r3, r3, #64	; 0x40
 800750c:	663b      	str	r3, [r7, #96]	; 0x60
 800750e:	6efb      	ldr	r3, [r7, #108]	; 0x6c
 8007510:	681b      	ldr	r3, [r3, #0]
 8007512:	3314      	adds	r3, #20
 8007514:	6e3a      	ldr	r2, [r7, #96]	; 0x60
 8007516:	633a      	str	r2, [r7, #48]	; 0x30
 8007518:	62fb      	str	r3, [r7, #44]	; 0x2c
   __ASM volatile ("strex %0, %2, %1" : "=&r" (result), "=Q" (*addr) : "r" (value) );
 800751a:	6af9      	ldr	r1, [r7, #44]	; 0x2c
 800751c:	6b3a      	ldr	r2, [r7, #48]	; 0x30
 800751e:	e841 2300 	strex	r3, r2, [r1]
 8007522:	62bb      	str	r3, [r7, #40]	; 0x28
   return(result);
 8007524:	6abb      	ldr	r3, [r7, #40]	; 0x28
 8007526:	2b00      	cmp	r3, #0
 8007528:	d1e5      	bne.n	80074f6 <UART_DMAReceiveCplt+0x8a>

    /* At end of Rx process, restore huart->RxState to Ready */
    huart->RxState = HAL_UART_STATE_READY;
 800752a:	6efb      	ldr	r3, [r7, #108]	; 0x6c
 800752c:	2220      	movs	r2, #32
 800752e:	f883 203e 	strb.w	r2, [r3, #62]	; 0x3e

    /* If Reception till IDLE event has been selected, Disable IDLE Interrupt */
    if (huart->ReceptionType == HAL_UART_RECEPTION_TOIDLE)
 8007532:	6efb      	ldr	r3, [r7, #108]	; 0x6c
 8007534:	6b1b      	ldr	r3, [r3, #48]	; 0x30
 8007536:	2b01      	cmp	r3, #1
 8007538:	d119      	bne.n	800756e <UART_DMAReceiveCplt+0x102>
    {
      ATOMIC_CLEAR_BIT(huart->Instance->CR1, USART_CR1_IDLEIE);
 800753a:	6efb      	ldr	r3, [r7, #108]	; 0x6c
 800753c:	681b      	ldr	r3, [r3, #0]
 800753e:	330c      	adds	r3, #12
 8007540:	613b      	str	r3, [r7, #16]
   __ASM volatile ("ldrex %0, %1" : "=r" (result) : "Q" (*addr) );
 8007542:	693b      	ldr	r3, [r7, #16]
 8007544:	e853 3f00 	ldrex	r3, [r3]
 8007548:	60fb      	str	r3, [r7, #12]
   return(result);
 800754a:	68fb      	ldr	r3, [r7, #12]
 800754c:	f023 0310 	bic.w	r3, r3, #16
 8007550:	65fb      	str	r3, [r7, #92]	; 0x5c
 8007552:	6efb      	ldr	r3, [r7, #108]	; 0x6c
 8007554:	681b      	ldr	r3, [r3, #0]
 8007556:	330c      	adds	r3, #12
 8007558:	6dfa      	ldr	r2, [r7, #92]	; 0x5c
 800755a:	61fa      	str	r2, [r7, #28]
 800755c:	61bb      	str	r3, [r7, #24]
   __ASM volatile ("strex %0, %2, %1" : "=&r" (result), "=Q" (*addr) : "r" (value) );
 800755e:	69b9      	ldr	r1, [r7, #24]
 8007560:	69fa      	ldr	r2, [r7, #28]
 8007562:	e841 2300 	strex	r3, r2, [r1]
 8007566:	617b      	str	r3, [r7, #20]
   return(result);
 8007568:	697b      	ldr	r3, [r7, #20]
 800756a:	2b00      	cmp	r3, #0
 800756c:	d1e5      	bne.n	800753a <UART_DMAReceiveCplt+0xce>
    }
  }

  /* Check current reception Mode :
     If Reception till IDLE event has been selected : use Rx Event callback */
  if (huart->ReceptionType == HAL_UART_RECEPTION_TOIDLE)
 800756e:	6efb      	ldr	r3, [r7, #108]	; 0x6c
 8007570:	6b1b      	ldr	r3, [r3, #48]	; 0x30
 8007572:	2b01      	cmp	r3, #1
 8007574:	d106      	bne.n	8007584 <UART_DMAReceiveCplt+0x118>
#if (USE_HAL_UART_REGISTER_CALLBACKS == 1)
    /*Call registered Rx Event callback*/
    huart->RxEventCallback(huart, huart->RxXferSize);
#else
    /*Call legacy weak Rx Event callback*/
    HAL_UARTEx_RxEventCallback(huart, huart->RxXferSize);
 8007576:	6efb      	ldr	r3, [r7, #108]	; 0x6c
 8007578:	8d9b      	ldrh	r3, [r3, #44]	; 0x2c
 800757a:	4619      	mov	r1, r3
 800757c:	6ef8      	ldr	r0, [r7, #108]	; 0x6c
 800757e:	f7ff ff69 	bl	8007454 <HAL_UARTEx_RxEventCallback>
#else
    /*Call legacy weak Rx complete callback*/
    HAL_UART_RxCpltCallback(huart);
#endif /* USE_HAL_UART_REGISTER_CALLBACKS */
  }
}
 8007582:	e002      	b.n	800758a <UART_DMAReceiveCplt+0x11e>
    HAL_UART_RxCpltCallback(huart);
 8007584:	6ef8      	ldr	r0, [r7, #108]	; 0x6c
 8007586:	f7f9 ffdb 	bl	8001540 <HAL_UART_RxCpltCallback>
}
 800758a:	bf00      	nop
 800758c:	3770      	adds	r7, #112	; 0x70
 800758e:	46bd      	mov	sp, r7
 8007590:	bd80      	pop	{r7, pc}

08007592 <UART_DMARxHalfCplt>:
  * @param  hdma  Pointer to a DMA_HandleTypeDef structure that contains
  *               the configuration information for the specified DMA module.
  * @retval None
  */
static void UART_DMARxHalfCplt(DMA_HandleTypeDef *hdma)
{
 8007592:	b580      	push	{r7, lr}
 8007594:	b084      	sub	sp, #16
 8007596:	af00      	add	r7, sp, #0
 8007598:	6078      	str	r0, [r7, #4]
  UART_HandleTypeDef *huart = (UART_HandleTypeDef *)((DMA_HandleTypeDef *)hdma)->Parent;
 800759a:	687b      	ldr	r3, [r7, #4]
 800759c:	6b9b      	ldr	r3, [r3, #56]	; 0x38
 800759e:	60fb      	str	r3, [r7, #12]

  /* Check current reception Mode :
     If Reception till IDLE event has been selected : use Rx Event callback */
  if (huart->ReceptionType == HAL_UART_RECEPTION_TOIDLE)
 80075a0:	68fb      	ldr	r3, [r7, #12]
 80075a2:	6b1b      	ldr	r3, [r3, #48]	; 0x30
 80075a4:	2b01      	cmp	r3, #1
 80075a6:	d108      	bne.n	80075ba <UART_DMARxHalfCplt+0x28>
#if (USE_HAL_UART_REGISTER_CALLBACKS == 1)
    /*Call registered Rx Event callback*/
    huart->RxEventCallback(huart, huart->RxXferSize / 2U);
#else
    /*Call legacy weak Rx Event callback*/
    HAL_UARTEx_RxEventCallback(huart, huart->RxXferSize / 2U);
 80075a8:	68fb      	ldr	r3, [r7, #12]
 80075aa:	8d9b      	ldrh	r3, [r3, #44]	; 0x2c
 80075ac:	085b      	lsrs	r3, r3, #1
 80075ae:	b29b      	uxth	r3, r3
 80075b0:	4619      	mov	r1, r3
 80075b2:	68f8      	ldr	r0, [r7, #12]
 80075b4:	f7ff ff4e 	bl	8007454 <HAL_UARTEx_RxEventCallback>
#else
    /*Call legacy weak Rx Half complete callback*/
    HAL_UART_RxHalfCpltCallback(huart);
#endif /* USE_HAL_UART_REGISTER_CALLBACKS */
  }
}
 80075b8:	e002      	b.n	80075c0 <UART_DMARxHalfCplt+0x2e>
    HAL_UART_RxHalfCpltCallback(huart);
 80075ba:	68f8      	ldr	r0, [r7, #12]
 80075bc:	f7ff ff36 	bl	800742c <HAL_UART_RxHalfCpltCallback>
}
 80075c0:	bf00      	nop
 80075c2:	3710      	adds	r7, #16
 80075c4:	46bd      	mov	sp, r7
 80075c6:	bd80      	pop	{r7, pc}

080075c8 <UART_DMAError>:
  * @param  hdma  Pointer to a DMA_HandleTypeDef structure that contains
  *               the configuration information for the specified DMA module.
  * @retval None
  */
static void UART_DMAError(DMA_HandleTypeDef *hdma)
{
 80075c8:	b580      	push	{r7, lr}
 80075ca:	b084      	sub	sp, #16
 80075cc:	af00      	add	r7, sp, #0
 80075ce:	6078      	str	r0, [r7, #4]
  uint32_t dmarequest = 0x00U;
 80075d0:	2300      	movs	r3, #0
 80075d2:	60fb      	str	r3, [r7, #12]
  UART_HandleTypeDef *huart = (UART_HandleTypeDef *)((DMA_HandleTypeDef *)hdma)->Parent;
 80075d4:	687b      	ldr	r3, [r7, #4]
 80075d6:	6b9b      	ldr	r3, [r3, #56]	; 0x38
 80075d8:	60bb      	str	r3, [r7, #8]

  /* Stop UART DMA Tx request if ongoing */
  dmarequest = HAL_IS_BIT_SET(huart->Instance->CR3, USART_CR3_DMAT);
 80075da:	68bb      	ldr	r3, [r7, #8]
 80075dc:	681b      	ldr	r3, [r3, #0]
 80075de:	695b      	ldr	r3, [r3, #20]
 80075e0:	f003 0380 	and.w	r3, r3, #128	; 0x80
 80075e4:	2b80      	cmp	r3, #128	; 0x80
 80075e6:	bf0c      	ite	eq
 80075e8:	2301      	moveq	r3, #1
 80075ea:	2300      	movne	r3, #0
 80075ec:	b2db      	uxtb	r3, r3
 80075ee:	60fb      	str	r3, [r7, #12]
  if ((huart->gState == HAL_UART_STATE_BUSY_TX) && dmarequest)
 80075f0:	68bb      	ldr	r3, [r7, #8]
 80075f2:	f893 303d 	ldrb.w	r3, [r3, #61]	; 0x3d
 80075f6:	b2db      	uxtb	r3, r3
 80075f8:	2b21      	cmp	r3, #33	; 0x21
 80075fa:	d108      	bne.n	800760e <UART_DMAError+0x46>
 80075fc:	68fb      	ldr	r3, [r7, #12]
 80075fe:	2b00      	cmp	r3, #0
 8007600:	d005      	beq.n	800760e <UART_DMAError+0x46>
  {
    huart->TxXferCount = 0x00U;
 8007602:	68bb      	ldr	r3, [r7, #8]
 8007604:	2200      	movs	r2, #0
 8007606:	84da      	strh	r2, [r3, #38]	; 0x26
    UART_EndTxTransfer(huart);
 8007608:	68b8      	ldr	r0, [r7, #8]
 800760a:	f000 f92f 	bl	800786c <UART_EndTxTransfer>
  }

  /* Stop UART DMA Rx request if ongoing */
  dmarequest = HAL_IS_BIT_SET(huart->Instance->CR3, USART_CR3_DMAR);
 800760e:	68bb      	ldr	r3, [r7, #8]
 8007610:	681b      	ldr	r3, [r3, #0]
 8007612:	695b      	ldr	r3, [r3, #20]
 8007614:	f003 0340 	and.w	r3, r3, #64	; 0x40
 8007618:	2b40      	cmp	r3, #64	; 0x40
 800761a:	bf0c      	ite	eq
 800761c:	2301      	moveq	r3, #1
 800761e:	2300      	movne	r3, #0
 8007620:	b2db      	uxtb	r3, r3
 8007622:	60fb      	str	r3, [r7, #12]
  if ((huart->RxState == HAL_UART_STATE_BUSY_RX) && dmarequest)
 8007624:	68bb      	ldr	r3, [r7, #8]
 8007626:	f893 303e 	ldrb.w	r3, [r3, #62]	; 0x3e
 800762a:	b2db      	uxtb	r3, r3
 800762c:	2b22      	cmp	r3, #34	; 0x22
 800762e:	d108      	bne.n	8007642 <UART_DMAError+0x7a>
 8007630:	68fb      	ldr	r3, [r7, #12]
 8007632:	2b00      	cmp	r3, #0
 8007634:	d005      	beq.n	8007642 <UART_DMAError+0x7a>
  {
    huart->RxXferCount = 0x00U;
 8007636:	68bb      	ldr	r3, [r7, #8]
 8007638:	2200      	movs	r2, #0
 800763a:	85da      	strh	r2, [r3, #46]	; 0x2e
    UART_EndRxTransfer(huart);
 800763c:	68b8      	ldr	r0, [r7, #8]
 800763e:	f000 f93d 	bl	80078bc <UART_EndRxTransfer>
  }

  huart->ErrorCode |= HAL_UART_ERROR_DMA;
 8007642:	68bb      	ldr	r3, [r7, #8]
 8007644:	6c1b      	ldr	r3, [r3, #64]	; 0x40
 8007646:	f043 0210 	orr.w	r2, r3, #16
 800764a:	68bb      	ldr	r3, [r7, #8]
 800764c:	641a      	str	r2, [r3, #64]	; 0x40
#if (USE_HAL_UART_REGISTER_CALLBACKS == 1)
  /*Call registered error callback*/
  huart->ErrorCallback(huart);
#else
  /*Call legacy weak error callback*/
  HAL_UART_ErrorCallback(huart);
 800764e:	68b8      	ldr	r0, [r7, #8]
 8007650:	f7ff fef6 	bl	8007440 <HAL_UART_ErrorCallback>
#endif /* USE_HAL_UART_REGISTER_CALLBACKS */
}
 8007654:	bf00      	nop
 8007656:	3710      	adds	r7, #16
 8007658:	46bd      	mov	sp, r7
 800765a:	bd80      	pop	{r7, pc}

0800765c <UART_WaitOnFlagUntilTimeout>:
  * @param  Timeout Timeout duration
  * @retval HAL status
  */
static HAL_StatusTypeDef UART_WaitOnFlagUntilTimeout(UART_HandleTypeDef *huart, uint32_t Flag, FlagStatus Status,
                                                     uint32_t Tickstart, uint32_t Timeout)
{
 800765c:	b580      	push	{r7, lr}
 800765e:	b090      	sub	sp, #64	; 0x40
 8007660:	af00      	add	r7, sp, #0
 8007662:	60f8      	str	r0, [r7, #12]
 8007664:	60b9      	str	r1, [r7, #8]
 8007666:	603b      	str	r3, [r7, #0]
 8007668:	4613      	mov	r3, r2
 800766a:	71fb      	strb	r3, [r7, #7]
  /* Wait until flag is set */
  while ((__HAL_UART_GET_FLAG(huart, Flag) ? SET : RESET) == Status)
 800766c:	e050      	b.n	8007710 <UART_WaitOnFlagUntilTimeout+0xb4>
  {
    /* Check for the Timeout */
    if (Timeout != HAL_MAX_DELAY)
 800766e:	6cbb      	ldr	r3, [r7, #72]	; 0x48
 8007670:	f1b3 3fff 	cmp.w	r3, #4294967295	; 0xffffffff
 8007674:	d04c      	beq.n	8007710 <UART_WaitOnFlagUntilTimeout+0xb4>
    {
      if ((Timeout == 0U) || ((HAL_GetTick() - Tickstart) > Timeout))
 8007676:	6cbb      	ldr	r3, [r7, #72]	; 0x48
 8007678:	2b00      	cmp	r3, #0
 800767a:	d007      	beq.n	800768c <UART_WaitOnFlagUntilTimeout+0x30>
 800767c:	f7fb f97a 	bl	8002974 <HAL_GetTick>
 8007680:	4602      	mov	r2, r0
 8007682:	683b      	ldr	r3, [r7, #0]
 8007684:	1ad3      	subs	r3, r2, r3
 8007686:	6cba      	ldr	r2, [r7, #72]	; 0x48
 8007688:	429a      	cmp	r2, r3
 800768a:	d241      	bcs.n	8007710 <UART_WaitOnFlagUntilTimeout+0xb4>
      {
        /* Disable TXE, RXNE, PE and ERR (Frame error, noise error, overrun error) interrupts for the interrupt process */
        ATOMIC_CLEAR_BIT(huart->Instance->CR1, (USART_CR1_RXNEIE | USART_CR1_PEIE | USART_CR1_TXEIE));
 800768c:	68fb      	ldr	r3, [r7, #12]
 800768e:	681b      	ldr	r3, [r3, #0]
 8007690:	330c      	adds	r3, #12
 8007692:	62bb      	str	r3, [r7, #40]	; 0x28
   __ASM volatile ("ldrex %0, %1" : "=r" (result) : "Q" (*addr) );
 8007694:	6abb      	ldr	r3, [r7, #40]	; 0x28
 8007696:	e853 3f00 	ldrex	r3, [r3]
 800769a:	627b      	str	r3, [r7, #36]	; 0x24
   return(result);
 800769c:	6a7b      	ldr	r3, [r7, #36]	; 0x24
 800769e:	f423 73d0 	bic.w	r3, r3, #416	; 0x1a0
 80076a2:	63fb      	str	r3, [r7, #60]	; 0x3c
 80076a4:	68fb      	ldr	r3, [r7, #12]
 80076a6:	681b      	ldr	r3, [r3, #0]
 80076a8:	330c      	adds	r3, #12
 80076aa:	6bfa      	ldr	r2, [r7, #60]	; 0x3c
 80076ac:	637a      	str	r2, [r7, #52]	; 0x34
 80076ae:	633b      	str	r3, [r7, #48]	; 0x30
   __ASM volatile ("strex %0, %2, %1" : "=&r" (result), "=Q" (*addr) : "r" (value) );
 80076b0:	6b39      	ldr	r1, [r7, #48]	; 0x30
 80076b2:	6b7a      	ldr	r2, [r7, #52]	; 0x34
 80076b4:	e841 2300 	strex	r3, r2, [r1]
 80076b8:	62fb      	str	r3, [r7, #44]	; 0x2c
   return(result);
 80076ba:	6afb      	ldr	r3, [r7, #44]	; 0x2c
 80076bc:	2b00      	cmp	r3, #0
 80076be:	d1e5      	bne.n	800768c <UART_WaitOnFlagUntilTimeout+0x30>
        ATOMIC_CLEAR_BIT(huart->Instance->CR3, USART_CR3_EIE);
 80076c0:	68fb      	ldr	r3, [r7, #12]
 80076c2:	681b      	ldr	r3, [r3, #0]
 80076c4:	3314      	adds	r3, #20
 80076c6:	617b      	str	r3, [r7, #20]
   __ASM volatile ("ldrex %0, %1" : "=r" (result) : "Q" (*addr) );
 80076c8:	697b      	ldr	r3, [r7, #20]
 80076ca:	e853 3f00 	ldrex	r3, [r3]
 80076ce:	613b      	str	r3, [r7, #16]
   return(result);
 80076d0:	693b      	ldr	r3, [r7, #16]
 80076d2:	f023 0301 	bic.w	r3, r3, #1
 80076d6:	63bb      	str	r3, [r7, #56]	; 0x38
 80076d8:	68fb      	ldr	r3, [r7, #12]
 80076da:	681b      	ldr	r3, [r3, #0]
 80076dc:	3314      	adds	r3, #20
 80076de:	6bba      	ldr	r2, [r7, #56]	; 0x38
 80076e0:	623a      	str	r2, [r7, #32]
 80076e2:	61fb      	str	r3, [r7, #28]
   __ASM volatile ("strex %0, %2, %1" : "=&r" (result), "=Q" (*addr) : "r" (value) );
 80076e4:	69f9      	ldr	r1, [r7, #28]
 80076e6:	6a3a      	ldr	r2, [r7, #32]
 80076e8:	e841 2300 	strex	r3, r2, [r1]
 80076ec:	61bb      	str	r3, [r7, #24]
   return(result);
 80076ee:	69bb      	ldr	r3, [r7, #24]
 80076f0:	2b00      	cmp	r3, #0
 80076f2:	d1e5      	bne.n	80076c0 <UART_WaitOnFlagUntilTimeout+0x64>

        huart->gState  = HAL_UART_STATE_READY;
 80076f4:	68fb      	ldr	r3, [r7, #12]
 80076f6:	2220      	movs	r2, #32
 80076f8:	f883 203d 	strb.w	r2, [r3, #61]	; 0x3d
        huart->RxState = HAL_UART_STATE_READY;
 80076fc:	68fb      	ldr	r3, [r7, #12]
 80076fe:	2220      	movs	r2, #32
 8007700:	f883 203e 	strb.w	r2, [r3, #62]	; 0x3e

        /* Process Unlocked */
        __HAL_UNLOCK(huart);
 8007704:	68fb      	ldr	r3, [r7, #12]
 8007706:	2200      	movs	r2, #0
 8007708:	f883 203c 	strb.w	r2, [r3, #60]	; 0x3c

        return HAL_TIMEOUT;
 800770c:	2303      	movs	r3, #3
 800770e:	e00f      	b.n	8007730 <UART_WaitOnFlagUntilTimeout+0xd4>
  while ((__HAL_UART_GET_FLAG(huart, Flag) ? SET : RESET) == Status)
 8007710:	68fb      	ldr	r3, [r7, #12]
 8007712:	681b      	ldr	r3, [r3, #0]
 8007714:	681a      	ldr	r2, [r3, #0]
 8007716:	68bb      	ldr	r3, [r7, #8]
 8007718:	4013      	ands	r3, r2
 800771a:	68ba      	ldr	r2, [r7, #8]
 800771c:	429a      	cmp	r2, r3
 800771e:	bf0c      	ite	eq
 8007720:	2301      	moveq	r3, #1
 8007722:	2300      	movne	r3, #0
 8007724:	b2db      	uxtb	r3, r3
 8007726:	461a      	mov	r2, r3
 8007728:	79fb      	ldrb	r3, [r7, #7]
 800772a:	429a      	cmp	r2, r3
 800772c:	d09f      	beq.n	800766e <UART_WaitOnFlagUntilTimeout+0x12>
      }
    }
  }
  return HAL_OK;
 800772e:	2300      	movs	r3, #0
}
 8007730:	4618      	mov	r0, r3
 8007732:	3740      	adds	r7, #64	; 0x40
 8007734:	46bd      	mov	sp, r7
 8007736:	bd80      	pop	{r7, pc}

08007738 <UART_Start_Receive_DMA>:
  * @param  pData Pointer to data buffer (u8 or u16 data elements).
  * @param  Size  Amount of data elements (u8 or u16) to be received.
  * @retval HAL status
  */
HAL_StatusTypeDef UART_Start_Receive_DMA(UART_HandleTypeDef *huart, uint8_t *pData, uint16_t Size)
{
 8007738:	b580      	push	{r7, lr}
 800773a:	b098      	sub	sp, #96	; 0x60
 800773c:	af00      	add	r7, sp, #0
 800773e:	60f8      	str	r0, [r7, #12]
 8007740:	60b9      	str	r1, [r7, #8]
 8007742:	4613      	mov	r3, r2
 8007744:	80fb      	strh	r3, [r7, #6]
  uint32_t *tmp;

  huart->pRxBuffPtr = pData;
 8007746:	68ba      	ldr	r2, [r7, #8]
 8007748:	68fb      	ldr	r3, [r7, #12]
 800774a:	629a      	str	r2, [r3, #40]	; 0x28
  huart->RxXferSize = Size;
 800774c:	68fb      	ldr	r3, [r7, #12]
 800774e:	88fa      	ldrh	r2, [r7, #6]
 8007750:	859a      	strh	r2, [r3, #44]	; 0x2c

  huart->ErrorCode = HAL_UART_ERROR_NONE;
 8007752:	68fb      	ldr	r3, [r7, #12]
 8007754:	2200      	movs	r2, #0
 8007756:	641a      	str	r2, [r3, #64]	; 0x40
  huart->RxState = HAL_UART_STATE_BUSY_RX;
 8007758:	68fb      	ldr	r3, [r7, #12]
 800775a:	2222      	movs	r2, #34	; 0x22
 800775c:	f883 203e 	strb.w	r2, [r3, #62]	; 0x3e

  /* Set the UART DMA transfer complete callback */
  huart->hdmarx->XferCpltCallback = UART_DMAReceiveCplt;
 8007760:	68fb      	ldr	r3, [r7, #12]
 8007762:	6b9b      	ldr	r3, [r3, #56]	; 0x38
 8007764:	4a3e      	ldr	r2, [pc, #248]	; (8007860 <UART_Start_Receive_DMA+0x128>)
 8007766:	63da      	str	r2, [r3, #60]	; 0x3c

  /* Set the UART DMA Half transfer complete callback */
  huart->hdmarx->XferHalfCpltCallback = UART_DMARxHalfCplt;
 8007768:	68fb      	ldr	r3, [r7, #12]
 800776a:	6b9b      	ldr	r3, [r3, #56]	; 0x38
 800776c:	4a3d      	ldr	r2, [pc, #244]	; (8007864 <UART_Start_Receive_DMA+0x12c>)
 800776e:	641a      	str	r2, [r3, #64]	; 0x40

  /* Set the DMA error callback */
  huart->hdmarx->XferErrorCallback = UART_DMAError;
 8007770:	68fb      	ldr	r3, [r7, #12]
 8007772:	6b9b      	ldr	r3, [r3, #56]	; 0x38
 8007774:	4a3c      	ldr	r2, [pc, #240]	; (8007868 <UART_Start_Receive_DMA+0x130>)
 8007776:	64da      	str	r2, [r3, #76]	; 0x4c

  /* Set the DMA abort callback */
  huart->hdmarx->XferAbortCallback = NULL;
 8007778:	68fb      	ldr	r3, [r7, #12]
 800777a:	6b9b      	ldr	r3, [r3, #56]	; 0x38
 800777c:	2200      	movs	r2, #0
 800777e:	651a      	str	r2, [r3, #80]	; 0x50

  /* Enable the DMA stream */
  tmp = (uint32_t *)&pData;
 8007780:	f107 0308 	add.w	r3, r7, #8
 8007784:	65fb      	str	r3, [r7, #92]	; 0x5c
  HAL_DMA_Start_IT(huart->hdmarx, (uint32_t)&huart->Instance->DR, *(uint32_t *)tmp, Size);
 8007786:	68fb      	ldr	r3, [r7, #12]
 8007788:	6b98      	ldr	r0, [r3, #56]	; 0x38
 800778a:	68fb      	ldr	r3, [r7, #12]
 800778c:	681b      	ldr	r3, [r3, #0]
 800778e:	3304      	adds	r3, #4
 8007790:	4619      	mov	r1, r3
 8007792:	6dfb      	ldr	r3, [r7, #92]	; 0x5c
 8007794:	681a      	ldr	r2, [r3, #0]
 8007796:	88fb      	ldrh	r3, [r7, #6]
 8007798:	f7fb fadc 	bl	8002d54 <HAL_DMA_Start_IT>

  /* Clear the Overrun flag just before enabling the DMA Rx request: can be mandatory for the second transfer */
  __HAL_UART_CLEAR_OREFLAG(huart);
 800779c:	2300      	movs	r3, #0
 800779e:	613b      	str	r3, [r7, #16]
 80077a0:	68fb      	ldr	r3, [r7, #12]
 80077a2:	681b      	ldr	r3, [r3, #0]
 80077a4:	681b      	ldr	r3, [r3, #0]
 80077a6:	613b      	str	r3, [r7, #16]
 80077a8:	68fb      	ldr	r3, [r7, #12]
 80077aa:	681b      	ldr	r3, [r3, #0]
 80077ac:	685b      	ldr	r3, [r3, #4]
 80077ae:	613b      	str	r3, [r7, #16]
 80077b0:	693b      	ldr	r3, [r7, #16]

  /* Process Unlocked */
  __HAL_UNLOCK(huart);
 80077b2:	68fb      	ldr	r3, [r7, #12]
 80077b4:	2200      	movs	r2, #0
 80077b6:	f883 203c 	strb.w	r2, [r3, #60]	; 0x3c

  /* Enable the UART Parity Error Interrupt */
  ATOMIC_SET_BIT(huart->Instance->CR1, USART_CR1_PEIE);
 80077ba:	68fb      	ldr	r3, [r7, #12]
 80077bc:	681b      	ldr	r3, [r3, #0]
 80077be:	330c      	adds	r3, #12
 80077c0:	643b      	str	r3, [r7, #64]	; 0x40
   __ASM volatile ("ldrex %0, %1" : "=r" (result) : "Q" (*addr) );
 80077c2:	6c3b      	ldr	r3, [r7, #64]	; 0x40
 80077c4:	e853 3f00 	ldrex	r3, [r3]
 80077c8:	63fb      	str	r3, [r7, #60]	; 0x3c
   return(result);
 80077ca:	6bfb      	ldr	r3, [r7, #60]	; 0x3c
 80077cc:	f443 7380 	orr.w	r3, r3, #256	; 0x100
 80077d0:	65bb      	str	r3, [r7, #88]	; 0x58
 80077d2:	68fb      	ldr	r3, [r7, #12]
 80077d4:	681b      	ldr	r3, [r3, #0]
 80077d6:	330c      	adds	r3, #12
 80077d8:	6dba      	ldr	r2, [r7, #88]	; 0x58
 80077da:	64fa      	str	r2, [r7, #76]	; 0x4c
 80077dc:	64bb      	str	r3, [r7, #72]	; 0x48
   __ASM volatile ("strex %0, %2, %1" : "=&r" (result), "=Q" (*addr) : "r" (value) );
 80077de:	6cb9      	ldr	r1, [r7, #72]	; 0x48
 80077e0:	6cfa      	ldr	r2, [r7, #76]	; 0x4c
 80077e2:	e841 2300 	strex	r3, r2, [r1]
 80077e6:	647b      	str	r3, [r7, #68]	; 0x44
   return(result);
 80077e8:	6c7b      	ldr	r3, [r7, #68]	; 0x44
 80077ea:	2b00      	cmp	r3, #0
 80077ec:	d1e5      	bne.n	80077ba <UART_Start_Receive_DMA+0x82>

  /* Enable the UART Error Interrupt: (Frame error, noise error, overrun error) */
  ATOMIC_SET_BIT(huart->Instance->CR3, USART_CR3_EIE);
 80077ee:	68fb      	ldr	r3, [r7, #12]
 80077f0:	681b      	ldr	r3, [r3, #0]
 80077f2:	3314      	adds	r3, #20
 80077f4:	62fb      	str	r3, [r7, #44]	; 0x2c
   __ASM volatile ("ldrex %0, %1" : "=r" (result) : "Q" (*addr) );
 80077f6:	6afb      	ldr	r3, [r7, #44]	; 0x2c
 80077f8:	e853 3f00 	ldrex	r3, [r3]
 80077fc:	62bb      	str	r3, [r7, #40]	; 0x28
   return(result);
 80077fe:	6abb      	ldr	r3, [r7, #40]	; 0x28
 8007800:	f043 0301 	orr.w	r3, r3, #1
 8007804:	657b      	str	r3, [r7, #84]	; 0x54
 8007806:	68fb      	ldr	r3, [r7, #12]
 8007808:	681b      	ldr	r3, [r3, #0]
 800780a:	3314      	adds	r3, #20
 800780c:	6d7a      	ldr	r2, [r7, #84]	; 0x54
 800780e:	63ba      	str	r2, [r7, #56]	; 0x38
 8007810:	637b      	str	r3, [r7, #52]	; 0x34
   __ASM volatile ("strex %0, %2, %1" : "=&r" (result), "=Q" (*addr) : "r" (value) );
 8007812:	6b79      	ldr	r1, [r7, #52]	; 0x34
 8007814:	6bba      	ldr	r2, [r7, #56]	; 0x38
 8007816:	e841 2300 	strex	r3, r2, [r1]
 800781a:	633b      	str	r3, [r7, #48]	; 0x30
   return(result);
 800781c:	6b3b      	ldr	r3, [r7, #48]	; 0x30
 800781e:	2b00      	cmp	r3, #0
 8007820:	d1e5      	bne.n	80077ee <UART_Start_Receive_DMA+0xb6>

  /* Enable the DMA transfer for the receiver request by setting the DMAR bit
  in the UART CR3 register */
  ATOMIC_SET_BIT(huart->Instance->CR3, USART_CR3_DMAR);
 8007822:	68fb      	ldr	r3, [r7, #12]
 8007824:	681b      	ldr	r3, [r3, #0]
 8007826:	3314      	adds	r3, #20
 8007828:	61bb      	str	r3, [r7, #24]
   __ASM volatile ("ldrex %0, %1" : "=r" (result) : "Q" (*addr) );
 800782a:	69bb      	ldr	r3, [r7, #24]
 800782c:	e853 3f00 	ldrex	r3, [r3]
 8007830:	617b      	str	r3, [r7, #20]
   return(result);
 8007832:	697b      	ldr	r3, [r7, #20]
 8007834:	f043 0340 	orr.w	r3, r3, #64	; 0x40
 8007838:	653b      	str	r3, [r7, #80]	; 0x50
 800783a:	68fb      	ldr	r3, [r7, #12]
 800783c:	681b      	ldr	r3, [r3, #0]
 800783e:	3314      	adds	r3, #20
 8007840:	6d3a      	ldr	r2, [r7, #80]	; 0x50
 8007842:	627a      	str	r2, [r7, #36]	; 0x24
 8007844:	623b      	str	r3, [r7, #32]
   __ASM volatile ("strex %0, %2, %1" : "=&r" (result), "=Q" (*addr) : "r" (value) );
 8007846:	6a39      	ldr	r1, [r7, #32]
 8007848:	6a7a      	ldr	r2, [r7, #36]	; 0x24
 800784a:	e841 2300 	strex	r3, r2, [r1]
 800784e:	61fb      	str	r3, [r7, #28]
   return(result);
 8007850:	69fb      	ldr	r3, [r7, #28]
 8007852:	2b00      	cmp	r3, #0
 8007854:	d1e5      	bne.n	8007822 <UART_Start_Receive_DMA+0xea>

  return HAL_OK;
 8007856:	2300      	movs	r3, #0
}
 8007858:	4618      	mov	r0, r3
 800785a:	3760      	adds	r7, #96	; 0x60
 800785c:	46bd      	mov	sp, r7
 800785e:	bd80      	pop	{r7, pc}
 8007860:	0800746d 	.word	0x0800746d
 8007864:	08007593 	.word	0x08007593
 8007868:	080075c9 	.word	0x080075c9

0800786c <UART_EndTxTransfer>:
  * @brief  End ongoing Tx transfer on UART peripheral (following error detection or Transmit completion).
  * @param  huart UART handle.
  * @retval None
  */
static void UART_EndTxTransfer(UART_HandleTypeDef *huart)
{
 800786c:	b480      	push	{r7}
 800786e:	b089      	sub	sp, #36	; 0x24
 8007870:	af00      	add	r7, sp, #0
 8007872:	6078      	str	r0, [r7, #4]
  /* Disable TXEIE and TCIE interrupts */
  ATOMIC_CLEAR_BIT(huart->Instance->CR1, (USART_CR1_TXEIE | USART_CR1_TCIE));
 8007874:	687b      	ldr	r3, [r7, #4]
 8007876:	681b      	ldr	r3, [r3, #0]
 8007878:	330c      	adds	r3, #12
 800787a:	60fb      	str	r3, [r7, #12]
   __ASM volatile ("ldrex %0, %1" : "=r" (result) : "Q" (*addr) );
 800787c:	68fb      	ldr	r3, [r7, #12]
 800787e:	e853 3f00 	ldrex	r3, [r3]
 8007882:	60bb      	str	r3, [r7, #8]
   return(result);
 8007884:	68bb      	ldr	r3, [r7, #8]
 8007886:	f023 03c0 	bic.w	r3, r3, #192	; 0xc0
 800788a:	61fb      	str	r3, [r7, #28]
 800788c:	687b      	ldr	r3, [r7, #4]
 800788e:	681b      	ldr	r3, [r3, #0]
 8007890:	330c      	adds	r3, #12
 8007892:	69fa      	ldr	r2, [r7, #28]
 8007894:	61ba      	str	r2, [r7, #24]
 8007896:	617b      	str	r3, [r7, #20]
   __ASM volatile ("strex %0, %2, %1" : "=&r" (result), "=Q" (*addr) : "r" (value) );
 8007898:	6979      	ldr	r1, [r7, #20]
 800789a:	69ba      	ldr	r2, [r7, #24]
 800789c:	e841 2300 	strex	r3, r2, [r1]
 80078a0:	613b      	str	r3, [r7, #16]
   return(result);
 80078a2:	693b      	ldr	r3, [r7, #16]
 80078a4:	2b00      	cmp	r3, #0
 80078a6:	d1e5      	bne.n	8007874 <UART_EndTxTransfer+0x8>

  /* At end of Tx process, restore huart->gState to Ready */
  huart->gState = HAL_UART_STATE_READY;
 80078a8:	687b      	ldr	r3, [r7, #4]
 80078aa:	2220      	movs	r2, #32
 80078ac:	f883 203d 	strb.w	r2, [r3, #61]	; 0x3d
}
 80078b0:	bf00      	nop
 80078b2:	3724      	adds	r7, #36	; 0x24
 80078b4:	46bd      	mov	sp, r7
 80078b6:	f85d 7b04 	ldr.w	r7, [sp], #4
 80078ba:	4770      	bx	lr

080078bc <UART_EndRxTransfer>:
  * @brief  End ongoing Rx transfer on UART peripheral (following error detection or Reception completion).
  * @param  huart UART handle.
  * @retval None
  */
static void UART_EndRxTransfer(UART_HandleTypeDef *huart)
{
 80078bc:	b480      	push	{r7}
 80078be:	b095      	sub	sp, #84	; 0x54
 80078c0:	af00      	add	r7, sp, #0
 80078c2:	6078      	str	r0, [r7, #4]
  /* Disable RXNE, PE and ERR (Frame error, noise error, overrun error) interrupts */
  ATOMIC_CLEAR_BIT(huart->Instance->CR1, (USART_CR1_RXNEIE | USART_CR1_PEIE));
 80078c4:	687b      	ldr	r3, [r7, #4]
 80078c6:	681b      	ldr	r3, [r3, #0]
 80078c8:	330c      	adds	r3, #12
 80078ca:	637b      	str	r3, [r7, #52]	; 0x34
   __ASM volatile ("ldrex %0, %1" : "=r" (result) : "Q" (*addr) );
 80078cc:	6b7b      	ldr	r3, [r7, #52]	; 0x34
 80078ce:	e853 3f00 	ldrex	r3, [r3]
 80078d2:	633b      	str	r3, [r7, #48]	; 0x30
   return(result);
 80078d4:	6b3b      	ldr	r3, [r7, #48]	; 0x30
 80078d6:	f423 7390 	bic.w	r3, r3, #288	; 0x120
 80078da:	64fb      	str	r3, [r7, #76]	; 0x4c
 80078dc:	687b      	ldr	r3, [r7, #4]
 80078de:	681b      	ldr	r3, [r3, #0]
 80078e0:	330c      	adds	r3, #12
 80078e2:	6cfa      	ldr	r2, [r7, #76]	; 0x4c
 80078e4:	643a      	str	r2, [r7, #64]	; 0x40
 80078e6:	63fb      	str	r3, [r7, #60]	; 0x3c
   __ASM volatile ("strex %0, %2, %1" : "=&r" (result), "=Q" (*addr) : "r" (value) );
 80078e8:	6bf9      	ldr	r1, [r7, #60]	; 0x3c
 80078ea:	6c3a      	ldr	r2, [r7, #64]	; 0x40
 80078ec:	e841 2300 	strex	r3, r2, [r1]
 80078f0:	63bb      	str	r3, [r7, #56]	; 0x38
   return(result);
 80078f2:	6bbb      	ldr	r3, [r7, #56]	; 0x38
 80078f4:	2b00      	cmp	r3, #0
 80078f6:	d1e5      	bne.n	80078c4 <UART_EndRxTransfer+0x8>
  ATOMIC_CLEAR_BIT(huart->Instance->CR3, USART_CR3_EIE);
 80078f8:	687b      	ldr	r3, [r7, #4]
 80078fa:	681b      	ldr	r3, [r3, #0]
 80078fc:	3314      	adds	r3, #20
 80078fe:	623b      	str	r3, [r7, #32]
   __ASM volatile ("ldrex %0, %1" : "=r" (result) : "Q" (*addr) );
 8007900:	6a3b      	ldr	r3, [r7, #32]
 8007902:	e853 3f00 	ldrex	r3, [r3]
 8007906:	61fb      	str	r3, [r7, #28]
   return(result);
 8007908:	69fb      	ldr	r3, [r7, #28]
 800790a:	f023 0301 	bic.w	r3, r3, #1
 800790e:	64bb      	str	r3, [r7, #72]	; 0x48
 8007910:	687b      	ldr	r3, [r7, #4]
 8007912:	681b      	ldr	r3, [r3, #0]
 8007914:	3314      	adds	r3, #20
 8007916:	6cba      	ldr	r2, [r7, #72]	; 0x48
 8007918:	62fa      	str	r2, [r7, #44]	; 0x2c
 800791a:	62bb      	str	r3, [r7, #40]	; 0x28
   __ASM volatile ("strex %0, %2, %1" : "=&r" (result), "=Q" (*addr) : "r" (value) );
 800791c:	6ab9      	ldr	r1, [r7, #40]	; 0x28
 800791e:	6afa      	ldr	r2, [r7, #44]	; 0x2c
 8007920:	e841 2300 	strex	r3, r2, [r1]
 8007924:	627b      	str	r3, [r7, #36]	; 0x24
   return(result);
 8007926:	6a7b      	ldr	r3, [r7, #36]	; 0x24
 8007928:	2b00      	cmp	r3, #0
 800792a:	d1e5      	bne.n	80078f8 <UART_EndRxTransfer+0x3c>

  /* In case of reception waiting for IDLE event, disable also the IDLE IE interrupt source */
  if (huart->ReceptionType == HAL_UART_RECEPTION_TOIDLE)
 800792c:	687b      	ldr	r3, [r7, #4]
 800792e:	6b1b      	ldr	r3, [r3, #48]	; 0x30
 8007930:	2b01      	cmp	r3, #1
 8007932:	d119      	bne.n	8007968 <UART_EndRxTransfer+0xac>
  {
    ATOMIC_CLEAR_BIT(huart->Instance->CR1, USART_CR1_IDLEIE);
 8007934:	687b      	ldr	r3, [r7, #4]
 8007936:	681b      	ldr	r3, [r3, #0]
 8007938:	330c      	adds	r3, #12
 800793a:	60fb      	str	r3, [r7, #12]
   __ASM volatile ("ldrex %0, %1" : "=r" (result) : "Q" (*addr) );
 800793c:	68fb      	ldr	r3, [r7, #12]
 800793e:	e853 3f00 	ldrex	r3, [r3]
 8007942:	60bb      	str	r3, [r7, #8]
   return(result);
 8007944:	68bb      	ldr	r3, [r7, #8]
 8007946:	f023 0310 	bic.w	r3, r3, #16
 800794a:	647b      	str	r3, [r7, #68]	; 0x44
 800794c:	687b      	ldr	r3, [r7, #4]
 800794e:	681b      	ldr	r3, [r3, #0]
 8007950:	330c      	adds	r3, #12
 8007952:	6c7a      	ldr	r2, [r7, #68]	; 0x44
 8007954:	61ba      	str	r2, [r7, #24]
 8007956:	617b      	str	r3, [r7, #20]
   __ASM volatile ("strex %0, %2, %1" : "=&r" (result), "=Q" (*addr) : "r" (value) );
 8007958:	6979      	ldr	r1, [r7, #20]
 800795a:	69ba      	ldr	r2, [r7, #24]
 800795c:	e841 2300 	strex	r3, r2, [r1]
 8007960:	613b      	str	r3, [r7, #16]
   return(result);
 8007962:	693b      	ldr	r3, [r7, #16]
 8007964:	2b00      	cmp	r3, #0
 8007966:	d1e5      	bne.n	8007934 <UART_EndRxTransfer+0x78>
  }

  /* At end of Rx process, restore huart->RxState to Ready */
  huart->RxState = HAL_UART_STATE_READY;
 8007968:	687b      	ldr	r3, [r7, #4]
 800796a:	2220      	movs	r2, #32
 800796c:	f883 203e 	strb.w	r2, [r3, #62]	; 0x3e
  huart->ReceptionType = HAL_UART_RECEPTION_STANDARD;
 8007970:	687b      	ldr	r3, [r7, #4]
 8007972:	2200      	movs	r2, #0
 8007974:	631a      	str	r2, [r3, #48]	; 0x30
}
 8007976:	bf00      	nop
 8007978:	3754      	adds	r7, #84	; 0x54
 800797a:	46bd      	mov	sp, r7
 800797c:	f85d 7b04 	ldr.w	r7, [sp], #4
 8007980:	4770      	bx	lr

08007982 <UART_DMAAbortOnError>:
  * @param  hdma  Pointer to a DMA_HandleTypeDef structure that contains
  *               the configuration information for the specified DMA module.
  * @retval None
  */
static void UART_DMAAbortOnError(DMA_HandleTypeDef *hdma)
{
 8007982:	b580      	push	{r7, lr}
 8007984:	b084      	sub	sp, #16
 8007986:	af00      	add	r7, sp, #0
 8007988:	6078      	str	r0, [r7, #4]
  UART_HandleTypeDef *huart = (UART_HandleTypeDef *)((DMA_HandleTypeDef *)hdma)->Parent;
 800798a:	687b      	ldr	r3, [r7, #4]
 800798c:	6b9b      	ldr	r3, [r3, #56]	; 0x38
 800798e:	60fb      	str	r3, [r7, #12]
  huart->RxXferCount = 0x00U;
 8007990:	68fb      	ldr	r3, [r7, #12]
 8007992:	2200      	movs	r2, #0
 8007994:	85da      	strh	r2, [r3, #46]	; 0x2e
  huart->TxXferCount = 0x00U;
 8007996:	68fb      	ldr	r3, [r7, #12]
 8007998:	2200      	movs	r2, #0
 800799a:	84da      	strh	r2, [r3, #38]	; 0x26
#if (USE_HAL_UART_REGISTER_CALLBACKS == 1)
  /*Call registered error callback*/
  huart->ErrorCallback(huart);
#else
  /*Call legacy weak error callback*/
  HAL_UART_ErrorCallback(huart);
 800799c:	68f8      	ldr	r0, [r7, #12]
 800799e:	f7ff fd4f 	bl	8007440 <HAL_UART_ErrorCallback>
#endif /* USE_HAL_UART_REGISTER_CALLBACKS */
}
 80079a2:	bf00      	nop
 80079a4:	3710      	adds	r7, #16
 80079a6:	46bd      	mov	sp, r7
 80079a8:	bd80      	pop	{r7, pc}

080079aa <UART_Transmit_IT>:
  * @param  huart  Pointer to a UART_HandleTypeDef structure that contains
  *                the configuration information for the specified UART module.
  * @retval HAL status
  */
static HAL_StatusTypeDef UART_Transmit_IT(UART_HandleTypeDef *huart)
{
 80079aa:	b480      	push	{r7}
 80079ac:	b085      	sub	sp, #20
 80079ae:	af00      	add	r7, sp, #0
 80079b0:	6078      	str	r0, [r7, #4]
  uint16_t *tmp;

  /* Check that a Tx process is ongoing */
  if (huart->gState == HAL_UART_STATE_BUSY_TX)
 80079b2:	687b      	ldr	r3, [r7, #4]
 80079b4:	f893 303d 	ldrb.w	r3, [r3, #61]	; 0x3d
 80079b8:	b2db      	uxtb	r3, r3
 80079ba:	2b21      	cmp	r3, #33	; 0x21
 80079bc:	d13e      	bne.n	8007a3c <UART_Transmit_IT+0x92>
  {
    if ((huart->Init.WordLength == UART_WORDLENGTH_9B) && (huart->Init.Parity == UART_PARITY_NONE))
 80079be:	687b      	ldr	r3, [r7, #4]
 80079c0:	689b      	ldr	r3, [r3, #8]
 80079c2:	f5b3 5f80 	cmp.w	r3, #4096	; 0x1000
 80079c6:	d114      	bne.n	80079f2 <UART_Transmit_IT+0x48>
 80079c8:	687b      	ldr	r3, [r7, #4]
 80079ca:	691b      	ldr	r3, [r3, #16]
 80079cc:	2b00      	cmp	r3, #0
 80079ce:	d110      	bne.n	80079f2 <UART_Transmit_IT+0x48>
    {
      tmp = (uint16_t *) huart->pTxBuffPtr;
 80079d0:	687b      	ldr	r3, [r7, #4]
 80079d2:	6a1b      	ldr	r3, [r3, #32]
 80079d4:	60fb      	str	r3, [r7, #12]
      huart->Instance->DR = (uint16_t)(*tmp & (uint16_t)0x01FF);
 80079d6:	68fb      	ldr	r3, [r7, #12]
 80079d8:	881b      	ldrh	r3, [r3, #0]
 80079da:	461a      	mov	r2, r3
 80079dc:	687b      	ldr	r3, [r7, #4]
 80079de:	681b      	ldr	r3, [r3, #0]
 80079e0:	f3c2 0208 	ubfx	r2, r2, #0, #9
 80079e4:	605a      	str	r2, [r3, #4]
      huart->pTxBuffPtr += 2U;
 80079e6:	687b      	ldr	r3, [r7, #4]
 80079e8:	6a1b      	ldr	r3, [r3, #32]
 80079ea:	1c9a      	adds	r2, r3, #2
 80079ec:	687b      	ldr	r3, [r7, #4]
 80079ee:	621a      	str	r2, [r3, #32]
 80079f0:	e008      	b.n	8007a04 <UART_Transmit_IT+0x5a>
    }
    else
    {
      huart->Instance->DR = (uint8_t)(*huart->pTxBuffPtr++ & (uint8_t)0x00FF);
 80079f2:	687b      	ldr	r3, [r7, #4]
 80079f4:	6a1b      	ldr	r3, [r3, #32]
 80079f6:	1c59      	adds	r1, r3, #1
 80079f8:	687a      	ldr	r2, [r7, #4]
 80079fa:	6211      	str	r1, [r2, #32]
 80079fc:	781a      	ldrb	r2, [r3, #0]
 80079fe:	687b      	ldr	r3, [r7, #4]
 8007a00:	681b      	ldr	r3, [r3, #0]
 8007a02:	605a      	str	r2, [r3, #4]
    }

    if (--huart->TxXferCount == 0U)
 8007a04:	687b      	ldr	r3, [r7, #4]
 8007a06:	8cdb      	ldrh	r3, [r3, #38]	; 0x26
 8007a08:	b29b      	uxth	r3, r3
 8007a0a:	3b01      	subs	r3, #1
 8007a0c:	b29b      	uxth	r3, r3
 8007a0e:	687a      	ldr	r2, [r7, #4]
 8007a10:	4619      	mov	r1, r3
 8007a12:	84d1      	strh	r1, [r2, #38]	; 0x26
 8007a14:	2b00      	cmp	r3, #0
 8007a16:	d10f      	bne.n	8007a38 <UART_Transmit_IT+0x8e>
    {
      /* Disable the UART Transmit Complete Interrupt */
      __HAL_UART_DISABLE_IT(huart, UART_IT_TXE);
 8007a18:	687b      	ldr	r3, [r7, #4]
 8007a1a:	681b      	ldr	r3, [r3, #0]
 8007a1c:	68da      	ldr	r2, [r3, #12]
 8007a1e:	687b      	ldr	r3, [r7, #4]
 8007a20:	681b      	ldr	r3, [r3, #0]
 8007a22:	f022 0280 	bic.w	r2, r2, #128	; 0x80
 8007a26:	60da      	str	r2, [r3, #12]

      /* Enable the UART Transmit Complete Interrupt */
      __HAL_UART_ENABLE_IT(huart, UART_IT_TC);
 8007a28:	687b      	ldr	r3, [r7, #4]
 8007a2a:	681b      	ldr	r3, [r3, #0]
 8007a2c:	68da      	ldr	r2, [r3, #12]
 8007a2e:	687b      	ldr	r3, [r7, #4]
 8007a30:	681b      	ldr	r3, [r3, #0]
 8007a32:	f042 0240 	orr.w	r2, r2, #64	; 0x40
 8007a36:	60da      	str	r2, [r3, #12]
    }
    return HAL_OK;
 8007a38:	2300      	movs	r3, #0
 8007a3a:	e000      	b.n	8007a3e <UART_Transmit_IT+0x94>
  }
  else
  {
    return HAL_BUSY;
 8007a3c:	2302      	movs	r3, #2
  }
}
 8007a3e:	4618      	mov	r0, r3
 8007a40:	3714      	adds	r7, #20
 8007a42:	46bd      	mov	sp, r7
 8007a44:	f85d 7b04 	ldr.w	r7, [sp], #4
 8007a48:	4770      	bx	lr

08007a4a <UART_EndTransmit_IT>:
  * @param  huart  Pointer to a UART_HandleTypeDef structure that contains
  *                the configuration information for the specified UART module.
  * @retval HAL status
  */
static HAL_StatusTypeDef UART_EndTransmit_IT(UART_HandleTypeDef *huart)
{
 8007a4a:	b580      	push	{r7, lr}
 8007a4c:	b082      	sub	sp, #8
 8007a4e:	af00      	add	r7, sp, #0
 8007a50:	6078      	str	r0, [r7, #4]
  /* Disable the UART Transmit Complete Interrupt */
  __HAL_UART_DISABLE_IT(huart, UART_IT_TC);
 8007a52:	687b      	ldr	r3, [r7, #4]
 8007a54:	681b      	ldr	r3, [r3, #0]
 8007a56:	68da      	ldr	r2, [r3, #12]
 8007a58:	687b      	ldr	r3, [r7, #4]
 8007a5a:	681b      	ldr	r3, [r3, #0]
 8007a5c:	f022 0240 	bic.w	r2, r2, #64	; 0x40
 8007a60:	60da      	str	r2, [r3, #12]

  /* Tx process is ended, restore huart->gState to Ready */
  huart->gState = HAL_UART_STATE_READY;
 8007a62:	687b      	ldr	r3, [r7, #4]
 8007a64:	2220      	movs	r2, #32
 8007a66:	f883 203d 	strb.w	r2, [r3, #61]	; 0x3d
#if (USE_HAL_UART_REGISTER_CALLBACKS == 1)
  /*Call registered Tx complete callback*/
  huart->TxCpltCallback(huart);
#else
  /*Call legacy weak Tx complete callback*/
  HAL_UART_TxCpltCallback(huart);
 8007a6a:	6878      	ldr	r0, [r7, #4]
 8007a6c:	f7ff fcd4 	bl	8007418 <HAL_UART_TxCpltCallback>
#endif /* USE_HAL_UART_REGISTER_CALLBACKS */

  return HAL_OK;
 8007a70:	2300      	movs	r3, #0
}
 8007a72:	4618      	mov	r0, r3
 8007a74:	3708      	adds	r7, #8
 8007a76:	46bd      	mov	sp, r7
 8007a78:	bd80      	pop	{r7, pc}

08007a7a <UART_Receive_IT>:
  * @param  huart  Pointer to a UART_HandleTypeDef structure that contains
  *                the configuration information for the specified UART module.
  * @retval HAL status
  */
static HAL_StatusTypeDef UART_Receive_IT(UART_HandleTypeDef *huart)
{
 8007a7a:	b580      	push	{r7, lr}
 8007a7c:	b08c      	sub	sp, #48	; 0x30
 8007a7e:	af00      	add	r7, sp, #0
 8007a80:	6078      	str	r0, [r7, #4]
  uint8_t  *pdata8bits;
  uint16_t *pdata16bits;

  /* Check that a Rx process is ongoing */
  if (huart->RxState == HAL_UART_STATE_BUSY_RX)
 8007a82:	687b      	ldr	r3, [r7, #4]
 8007a84:	f893 303e 	ldrb.w	r3, [r3, #62]	; 0x3e
 8007a88:	b2db      	uxtb	r3, r3
 8007a8a:	2b22      	cmp	r3, #34	; 0x22
 8007a8c:	f040 80ab 	bne.w	8007be6 <UART_Receive_IT+0x16c>
  {
    if ((huart->Init.WordLength == UART_WORDLENGTH_9B) && (huart->Init.Parity == UART_PARITY_NONE))
 8007a90:	687b      	ldr	r3, [r7, #4]
 8007a92:	689b      	ldr	r3, [r3, #8]
 8007a94:	f5b3 5f80 	cmp.w	r3, #4096	; 0x1000
 8007a98:	d117      	bne.n	8007aca <UART_Receive_IT+0x50>
 8007a9a:	687b      	ldr	r3, [r7, #4]
 8007a9c:	691b      	ldr	r3, [r3, #16]
 8007a9e:	2b00      	cmp	r3, #0
 8007aa0:	d113      	bne.n	8007aca <UART_Receive_IT+0x50>
    {
      pdata8bits  = NULL;
 8007aa2:	2300      	movs	r3, #0
 8007aa4:	62fb      	str	r3, [r7, #44]	; 0x2c
      pdata16bits = (uint16_t *) huart->pRxBuffPtr;
 8007aa6:	687b      	ldr	r3, [r7, #4]
 8007aa8:	6a9b      	ldr	r3, [r3, #40]	; 0x28
 8007aaa:	62bb      	str	r3, [r7, #40]	; 0x28
      *pdata16bits = (uint16_t)(huart->Instance->DR & (uint16_t)0x01FF);
 8007aac:	687b      	ldr	r3, [r7, #4]
 8007aae:	681b      	ldr	r3, [r3, #0]
 8007ab0:	685b      	ldr	r3, [r3, #4]
 8007ab2:	b29b      	uxth	r3, r3
 8007ab4:	f3c3 0308 	ubfx	r3, r3, #0, #9
 8007ab8:	b29a      	uxth	r2, r3
 8007aba:	6abb      	ldr	r3, [r7, #40]	; 0x28
 8007abc:	801a      	strh	r2, [r3, #0]
      huart->pRxBuffPtr += 2U;
 8007abe:	687b      	ldr	r3, [r7, #4]
 8007ac0:	6a9b      	ldr	r3, [r3, #40]	; 0x28
 8007ac2:	1c9a      	adds	r2, r3, #2
 8007ac4:	687b      	ldr	r3, [r7, #4]
 8007ac6:	629a      	str	r2, [r3, #40]	; 0x28
 8007ac8:	e026      	b.n	8007b18 <UART_Receive_IT+0x9e>
    }
    else
    {
      pdata8bits = (uint8_t *) huart->pRxBuffPtr;
 8007aca:	687b      	ldr	r3, [r7, #4]
 8007acc:	6a9b      	ldr	r3, [r3, #40]	; 0x28
 8007ace:	62fb      	str	r3, [r7, #44]	; 0x2c
      pdata16bits  = NULL;
 8007ad0:	2300      	movs	r3, #0
 8007ad2:	62bb      	str	r3, [r7, #40]	; 0x28

      if ((huart->Init.WordLength == UART_WORDLENGTH_9B) || ((huart->Init.WordLength == UART_WORDLENGTH_8B) && (huart->Init.Parity == UART_PARITY_NONE)))
 8007ad4:	687b      	ldr	r3, [r7, #4]
 8007ad6:	689b      	ldr	r3, [r3, #8]
 8007ad8:	f5b3 5f80 	cmp.w	r3, #4096	; 0x1000
 8007adc:	d007      	beq.n	8007aee <UART_Receive_IT+0x74>
 8007ade:	687b      	ldr	r3, [r7, #4]
 8007ae0:	689b      	ldr	r3, [r3, #8]
 8007ae2:	2b00      	cmp	r3, #0
 8007ae4:	d10a      	bne.n	8007afc <UART_Receive_IT+0x82>
 8007ae6:	687b      	ldr	r3, [r7, #4]
 8007ae8:	691b      	ldr	r3, [r3, #16]
 8007aea:	2b00      	cmp	r3, #0
 8007aec:	d106      	bne.n	8007afc <UART_Receive_IT+0x82>
      {
        *pdata8bits = (uint8_t)(huart->Instance->DR & (uint8_t)0x00FF);
 8007aee:	687b      	ldr	r3, [r7, #4]
 8007af0:	681b      	ldr	r3, [r3, #0]
 8007af2:	685b      	ldr	r3, [r3, #4]
 8007af4:	b2da      	uxtb	r2, r3
 8007af6:	6afb      	ldr	r3, [r7, #44]	; 0x2c
 8007af8:	701a      	strb	r2, [r3, #0]
 8007afa:	e008      	b.n	8007b0e <UART_Receive_IT+0x94>
      }
      else
      {
        *pdata8bits = (uint8_t)(huart->Instance->DR & (uint8_t)0x007F);
 8007afc:	687b      	ldr	r3, [r7, #4]
 8007afe:	681b      	ldr	r3, [r3, #0]
 8007b00:	685b      	ldr	r3, [r3, #4]
 8007b02:	b2db      	uxtb	r3, r3
 8007b04:	f003 037f 	and.w	r3, r3, #127	; 0x7f
 8007b08:	b2da      	uxtb	r2, r3
 8007b0a:	6afb      	ldr	r3, [r7, #44]	; 0x2c
 8007b0c:	701a      	strb	r2, [r3, #0]
      }
      huart->pRxBuffPtr += 1U;
 8007b0e:	687b      	ldr	r3, [r7, #4]
 8007b10:	6a9b      	ldr	r3, [r3, #40]	; 0x28
 8007b12:	1c5a      	adds	r2, r3, #1
 8007b14:	687b      	ldr	r3, [r7, #4]
 8007b16:	629a      	str	r2, [r3, #40]	; 0x28
    }

    if (--huart->RxXferCount == 0U)
 8007b18:	687b      	ldr	r3, [r7, #4]
 8007b1a:	8ddb      	ldrh	r3, [r3, #46]	; 0x2e
 8007b1c:	b29b      	uxth	r3, r3
 8007b1e:	3b01      	subs	r3, #1
 8007b20:	b29b      	uxth	r3, r3
 8007b22:	687a      	ldr	r2, [r7, #4]
 8007b24:	4619      	mov	r1, r3
 8007b26:	85d1      	strh	r1, [r2, #46]	; 0x2e
 8007b28:	2b00      	cmp	r3, #0
 8007b2a:	d15a      	bne.n	8007be2 <UART_Receive_IT+0x168>
    {
      /* Disable the UART Data Register not empty Interrupt */
      __HAL_UART_DISABLE_IT(huart, UART_IT_RXNE);
 8007b2c:	687b      	ldr	r3, [r7, #4]
 8007b2e:	681b      	ldr	r3, [r3, #0]
 8007b30:	68da      	ldr	r2, [r3, #12]
 8007b32:	687b      	ldr	r3, [r7, #4]
 8007b34:	681b      	ldr	r3, [r3, #0]
 8007b36:	f022 0220 	bic.w	r2, r2, #32
 8007b3a:	60da      	str	r2, [r3, #12]

      /* Disable the UART Parity Error Interrupt */
      __HAL_UART_DISABLE_IT(huart, UART_IT_PE);
 8007b3c:	687b      	ldr	r3, [r7, #4]
 8007b3e:	681b      	ldr	r3, [r3, #0]
 8007b40:	68da      	ldr	r2, [r3, #12]
 8007b42:	687b      	ldr	r3, [r7, #4]
 8007b44:	681b      	ldr	r3, [r3, #0]
 8007b46:	f422 7280 	bic.w	r2, r2, #256	; 0x100
 8007b4a:	60da      	str	r2, [r3, #12]

      /* Disable the UART Error Interrupt: (Frame error, noise error, overrun error) */
      __HAL_UART_DISABLE_IT(huart, UART_IT_ERR);
 8007b4c:	687b      	ldr	r3, [r7, #4]
 8007b4e:	681b      	ldr	r3, [r3, #0]
 8007b50:	695a      	ldr	r2, [r3, #20]
 8007b52:	687b      	ldr	r3, [r7, #4]
 8007b54:	681b      	ldr	r3, [r3, #0]
 8007b56:	f022 0201 	bic.w	r2, r2, #1
 8007b5a:	615a      	str	r2, [r3, #20]

      /* Rx process is completed, restore huart->RxState to Ready */
      huart->RxState = HAL_UART_STATE_READY;
 8007b5c:	687b      	ldr	r3, [r7, #4]
 8007b5e:	2220      	movs	r2, #32
 8007b60:	f883 203e 	strb.w	r2, [r3, #62]	; 0x3e

      /* Check current reception Mode :
         If Reception till IDLE event has been selected : */
      if (huart->ReceptionType == HAL_UART_RECEPTION_TOIDLE)
 8007b64:	687b      	ldr	r3, [r7, #4]
 8007b66:	6b1b      	ldr	r3, [r3, #48]	; 0x30
 8007b68:	2b01      	cmp	r3, #1
 8007b6a:	d135      	bne.n	8007bd8 <UART_Receive_IT+0x15e>
      {
        /* Set reception type to Standard */
        huart->ReceptionType = HAL_UART_RECEPTION_STANDARD;
 8007b6c:	687b      	ldr	r3, [r7, #4]
 8007b6e:	2200      	movs	r2, #0
 8007b70:	631a      	str	r2, [r3, #48]	; 0x30

        /* Disable IDLE interrupt */
        ATOMIC_CLEAR_BIT(huart->Instance->CR1, USART_CR1_IDLEIE);
 8007b72:	687b      	ldr	r3, [r7, #4]
 8007b74:	681b      	ldr	r3, [r3, #0]
 8007b76:	330c      	adds	r3, #12
 8007b78:	617b      	str	r3, [r7, #20]
   __ASM volatile ("ldrex %0, %1" : "=r" (result) : "Q" (*addr) );
 8007b7a:	697b      	ldr	r3, [r7, #20]
 8007b7c:	e853 3f00 	ldrex	r3, [r3]
 8007b80:	613b      	str	r3, [r7, #16]
   return(result);
 8007b82:	693b      	ldr	r3, [r7, #16]
 8007b84:	f023 0310 	bic.w	r3, r3, #16
 8007b88:	627b      	str	r3, [r7, #36]	; 0x24
 8007b8a:	687b      	ldr	r3, [r7, #4]
 8007b8c:	681b      	ldr	r3, [r3, #0]
 8007b8e:	330c      	adds	r3, #12
 8007b90:	6a7a      	ldr	r2, [r7, #36]	; 0x24
 8007b92:	623a      	str	r2, [r7, #32]
 8007b94:	61fb      	str	r3, [r7, #28]
   __ASM volatile ("strex %0, %2, %1" : "=&r" (result), "=Q" (*addr) : "r" (value) );
 8007b96:	69f9      	ldr	r1, [r7, #28]
 8007b98:	6a3a      	ldr	r2, [r7, #32]
 8007b9a:	e841 2300 	strex	r3, r2, [r1]
 8007b9e:	61bb      	str	r3, [r7, #24]
   return(result);
 8007ba0:	69bb      	ldr	r3, [r7, #24]
 8007ba2:	2b00      	cmp	r3, #0
 8007ba4:	d1e5      	bne.n	8007b72 <UART_Receive_IT+0xf8>

        /* Check if IDLE flag is set */
        if (__HAL_UART_GET_FLAG(huart, UART_FLAG_IDLE))
 8007ba6:	687b      	ldr	r3, [r7, #4]
 8007ba8:	681b      	ldr	r3, [r3, #0]
 8007baa:	681b      	ldr	r3, [r3, #0]
 8007bac:	f003 0310 	and.w	r3, r3, #16
 8007bb0:	2b10      	cmp	r3, #16
 8007bb2:	d10a      	bne.n	8007bca <UART_Receive_IT+0x150>
        {
          /* Clear IDLE flag in ISR */
          __HAL_UART_CLEAR_IDLEFLAG(huart);
 8007bb4:	2300      	movs	r3, #0
 8007bb6:	60fb      	str	r3, [r7, #12]
 8007bb8:	687b      	ldr	r3, [r7, #4]
 8007bba:	681b      	ldr	r3, [r3, #0]
 8007bbc:	681b      	ldr	r3, [r3, #0]
 8007bbe:	60fb      	str	r3, [r7, #12]
 8007bc0:	687b      	ldr	r3, [r7, #4]
 8007bc2:	681b      	ldr	r3, [r3, #0]
 8007bc4:	685b      	ldr	r3, [r3, #4]
 8007bc6:	60fb      	str	r3, [r7, #12]
 8007bc8:	68fb      	ldr	r3, [r7, #12]
#if (USE_HAL_UART_REGISTER_CALLBACKS == 1)
        /*Call registered Rx Event callback*/
        huart->RxEventCallback(huart, huart->RxXferSize);
#else
        /*Call legacy weak Rx Event callback*/
        HAL_UARTEx_RxEventCallback(huart, huart->RxXferSize);
 8007bca:	687b      	ldr	r3, [r7, #4]
 8007bcc:	8d9b      	ldrh	r3, [r3, #44]	; 0x2c
 8007bce:	4619      	mov	r1, r3
 8007bd0:	6878      	ldr	r0, [r7, #4]
 8007bd2:	f7ff fc3f 	bl	8007454 <HAL_UARTEx_RxEventCallback>
 8007bd6:	e002      	b.n	8007bde <UART_Receive_IT+0x164>
#if (USE_HAL_UART_REGISTER_CALLBACKS == 1)
        /*Call registered Rx complete callback*/
        huart->RxCpltCallback(huart);
#else
        /*Call legacy weak Rx complete callback*/
        HAL_UART_RxCpltCallback(huart);
 8007bd8:	6878      	ldr	r0, [r7, #4]
 8007bda:	f7f9 fcb1 	bl	8001540 <HAL_UART_RxCpltCallback>
#endif /* USE_HAL_UART_REGISTER_CALLBACKS */
      }

      return HAL_OK;
 8007bde:	2300      	movs	r3, #0
 8007be0:	e002      	b.n	8007be8 <UART_Receive_IT+0x16e>
    }
    return HAL_OK;
 8007be2:	2300      	movs	r3, #0
 8007be4:	e000      	b.n	8007be8 <UART_Receive_IT+0x16e>
  }
  else
  {
    return HAL_BUSY;
 8007be6:	2302      	movs	r3, #2
  }
}
 8007be8:	4618      	mov	r0, r3
 8007bea:	3730      	adds	r7, #48	; 0x30
 8007bec:	46bd      	mov	sp, r7
 8007bee:	bd80      	pop	{r7, pc}

08007bf0 <UART_SetConfig>:
  * @param  huart  Pointer to a UART_HandleTypeDef structure that contains
  *                the configuration information for the specified UART module.
  * @retval None
  */
static void UART_SetConfig(UART_HandleTypeDef *huart)
{
 8007bf0:	e92d 4fb0 	stmdb	sp!, {r4, r5, r7, r8, r9, sl, fp, lr}
 8007bf4:	b0c0      	sub	sp, #256	; 0x100
 8007bf6:	af00      	add	r7, sp, #0
 8007bf8:	f8c7 00f4 	str.w	r0, [r7, #244]	; 0xf4
  assert_param(IS_UART_MODE(huart->Init.Mode));

  /*-------------------------- USART CR2 Configuration -----------------------*/
  /* Configure the UART Stop Bits: Set STOP[13:12] bits
     according to huart->Init.StopBits value */
  MODIFY_REG(huart->Instance->CR2, USART_CR2_STOP, huart->Init.StopBits);
 8007bfc:	f8d7 30f4 	ldr.w	r3, [r7, #244]	; 0xf4
 8007c00:	681b      	ldr	r3, [r3, #0]
 8007c02:	691b      	ldr	r3, [r3, #16]
 8007c04:	f423 5040 	bic.w	r0, r3, #12288	; 0x3000
 8007c08:	f8d7 30f4 	ldr.w	r3, [r7, #244]	; 0xf4
 8007c0c:	68d9      	ldr	r1, [r3, #12]
 8007c0e:	f8d7 30f4 	ldr.w	r3, [r7, #244]	; 0xf4
 8007c12:	681a      	ldr	r2, [r3, #0]
 8007c14:	ea40 0301 	orr.w	r3, r0, r1
 8007c18:	6113      	str	r3, [r2, #16]
     Set the M bits according to huart->Init.WordLength value
     Set PCE and PS bits according to huart->Init.Parity value
     Set TE and RE bits according to huart->Init.Mode value
     Set OVER8 bit according to huart->Init.OverSampling value */

  tmpreg = (uint32_t)huart->Init.WordLength | huart->Init.Parity | huart->Init.Mode | huart->Init.OverSampling;
 8007c1a:	f8d7 30f4 	ldr.w	r3, [r7, #244]	; 0xf4
 8007c1e:	689a      	ldr	r2, [r3, #8]
 8007c20:	f8d7 30f4 	ldr.w	r3, [r7, #244]	; 0xf4
 8007c24:	691b      	ldr	r3, [r3, #16]
 8007c26:	431a      	orrs	r2, r3
 8007c28:	f8d7 30f4 	ldr.w	r3, [r7, #244]	; 0xf4
 8007c2c:	695b      	ldr	r3, [r3, #20]
 8007c2e:	431a      	orrs	r2, r3
 8007c30:	f8d7 30f4 	ldr.w	r3, [r7, #244]	; 0xf4
 8007c34:	69db      	ldr	r3, [r3, #28]
 8007c36:	4313      	orrs	r3, r2
 8007c38:	f8c7 30f8 	str.w	r3, [r7, #248]	; 0xf8
  MODIFY_REG(huart->Instance->CR1,
 8007c3c:	f8d7 30f4 	ldr.w	r3, [r7, #244]	; 0xf4
 8007c40:	681b      	ldr	r3, [r3, #0]
 8007c42:	68db      	ldr	r3, [r3, #12]
 8007c44:	f423 4116 	bic.w	r1, r3, #38400	; 0x9600
 8007c48:	f021 010c 	bic.w	r1, r1, #12
 8007c4c:	f8d7 30f4 	ldr.w	r3, [r7, #244]	; 0xf4
 8007c50:	681a      	ldr	r2, [r3, #0]
 8007c52:	f8d7 30f8 	ldr.w	r3, [r7, #248]	; 0xf8
 8007c56:	430b      	orrs	r3, r1
 8007c58:	60d3      	str	r3, [r2, #12]
             (uint32_t)(USART_CR1_M | USART_CR1_PCE | USART_CR1_PS | USART_CR1_TE | USART_CR1_RE | USART_CR1_OVER8),
             tmpreg);

  /*-------------------------- USART CR3 Configuration -----------------------*/
  /* Configure the UART HFC: Set CTSE and RTSE bits according to huart->Init.HwFlowCtl value */
  MODIFY_REG(huart->Instance->CR3, (USART_CR3_RTSE | USART_CR3_CTSE), huart->Init.HwFlowCtl);
 8007c5a:	f8d7 30f4 	ldr.w	r3, [r7, #244]	; 0xf4
 8007c5e:	681b      	ldr	r3, [r3, #0]
 8007c60:	695b      	ldr	r3, [r3, #20]
 8007c62:	f423 7040 	bic.w	r0, r3, #768	; 0x300
 8007c66:	f8d7 30f4 	ldr.w	r3, [r7, #244]	; 0xf4
 8007c6a:	6999      	ldr	r1, [r3, #24]
 8007c6c:	f8d7 30f4 	ldr.w	r3, [r7, #244]	; 0xf4
 8007c70:	681a      	ldr	r2, [r3, #0]
 8007c72:	ea40 0301 	orr.w	r3, r0, r1
 8007c76:	6153      	str	r3, [r2, #20]
    if ((huart->Instance == USART1) || (huart->Instance == USART6) || (huart->Instance == UART9) || (huart->Instance == UART10))
    {
      pclk = HAL_RCC_GetPCLK2Freq();
    }
#elif defined(USART6)
    if ((huart->Instance == USART1) || (huart->Instance == USART6))
 8007c78:	f8d7 30f4 	ldr.w	r3, [r7, #244]	; 0xf4
 8007c7c:	681a      	ldr	r2, [r3, #0]
 8007c7e:	4b8f      	ldr	r3, [pc, #572]	; (8007ebc <UART_SetConfig+0x2cc>)
 8007c80:	429a      	cmp	r2, r3
 8007c82:	d005      	beq.n	8007c90 <UART_SetConfig+0xa0>
 8007c84:	f8d7 30f4 	ldr.w	r3, [r7, #244]	; 0xf4
 8007c88:	681a      	ldr	r2, [r3, #0]
 8007c8a:	4b8d      	ldr	r3, [pc, #564]	; (8007ec0 <UART_SetConfig+0x2d0>)
 8007c8c:	429a      	cmp	r2, r3
 8007c8e:	d104      	bne.n	8007c9a <UART_SetConfig+0xaa>
    {
      pclk = HAL_RCC_GetPCLK2Freq();
 8007c90:	f7fb fe82 	bl	8003998 <HAL_RCC_GetPCLK2Freq>
 8007c94:	f8c7 00fc 	str.w	r0, [r7, #252]	; 0xfc
 8007c98:	e003      	b.n	8007ca2 <UART_SetConfig+0xb2>
      pclk = HAL_RCC_GetPCLK2Freq();
    }
#endif /* USART6 */
    else
    {
      pclk = HAL_RCC_GetPCLK1Freq();
 8007c9a:	f7fb fe69 	bl	8003970 <HAL_RCC_GetPCLK1Freq>
 8007c9e:	f8c7 00fc 	str.w	r0, [r7, #252]	; 0xfc
    }
  /*-------------------------- USART BRR Configuration ---------------------*/
  if (huart->Init.OverSampling == UART_OVERSAMPLING_8)
 8007ca2:	f8d7 30f4 	ldr.w	r3, [r7, #244]	; 0xf4
 8007ca6:	69db      	ldr	r3, [r3, #28]
 8007ca8:	f5b3 4f00 	cmp.w	r3, #32768	; 0x8000
 8007cac:	f040 810c 	bne.w	8007ec8 <UART_SetConfig+0x2d8>
  {
    huart->Instance->BRR = UART_BRR_SAMPLING8(pclk, huart->Init.BaudRate);
 8007cb0:	f8d7 30fc 	ldr.w	r3, [r7, #252]	; 0xfc
 8007cb4:	2200      	movs	r2, #0
 8007cb6:	f8c7 30e8 	str.w	r3, [r7, #232]	; 0xe8
 8007cba:	f8c7 20ec 	str.w	r2, [r7, #236]	; 0xec
 8007cbe:	e9d7 453a 	ldrd	r4, r5, [r7, #232]	; 0xe8
 8007cc2:	4622      	mov	r2, r4
 8007cc4:	462b      	mov	r3, r5
 8007cc6:	1891      	adds	r1, r2, r2
 8007cc8:	65b9      	str	r1, [r7, #88]	; 0x58
 8007cca:	415b      	adcs	r3, r3
 8007ccc:	65fb      	str	r3, [r7, #92]	; 0x5c
 8007cce:	e9d7 2316 	ldrd	r2, r3, [r7, #88]	; 0x58
 8007cd2:	4621      	mov	r1, r4
 8007cd4:	eb12 0801 	adds.w	r8, r2, r1
 8007cd8:	4629      	mov	r1, r5
 8007cda:	eb43 0901 	adc.w	r9, r3, r1
 8007cde:	f04f 0200 	mov.w	r2, #0
 8007ce2:	f04f 0300 	mov.w	r3, #0
 8007ce6:	ea4f 03c9 	mov.w	r3, r9, lsl #3
 8007cea:	ea43 7358 	orr.w	r3, r3, r8, lsr #29
 8007cee:	ea4f 02c8 	mov.w	r2, r8, lsl #3
 8007cf2:	4690      	mov	r8, r2
 8007cf4:	4699      	mov	r9, r3
 8007cf6:	4623      	mov	r3, r4
 8007cf8:	eb18 0303 	adds.w	r3, r8, r3
 8007cfc:	f8c7 30e0 	str.w	r3, [r7, #224]	; 0xe0
 8007d00:	462b      	mov	r3, r5
 8007d02:	eb49 0303 	adc.w	r3, r9, r3
 8007d06:	f8c7 30e4 	str.w	r3, [r7, #228]	; 0xe4
 8007d0a:	f8d7 30f4 	ldr.w	r3, [r7, #244]	; 0xf4
 8007d0e:	685b      	ldr	r3, [r3, #4]
 8007d10:	2200      	movs	r2, #0
 8007d12:	f8c7 30d8 	str.w	r3, [r7, #216]	; 0xd8
 8007d16:	f8c7 20dc 	str.w	r2, [r7, #220]	; 0xdc
 8007d1a:	e9d7 1236 	ldrd	r1, r2, [r7, #216]	; 0xd8
 8007d1e:	460b      	mov	r3, r1
 8007d20:	18db      	adds	r3, r3, r3
 8007d22:	653b      	str	r3, [r7, #80]	; 0x50
 8007d24:	4613      	mov	r3, r2
 8007d26:	eb42 0303 	adc.w	r3, r2, r3
 8007d2a:	657b      	str	r3, [r7, #84]	; 0x54
 8007d2c:	e9d7 2314 	ldrd	r2, r3, [r7, #80]	; 0x50
 8007d30:	e9d7 0138 	ldrd	r0, r1, [r7, #224]	; 0xe0
 8007d34:	f7f8 fac4 	bl	80002c0 <__aeabi_uldivmod>
 8007d38:	4602      	mov	r2, r0
 8007d3a:	460b      	mov	r3, r1
 8007d3c:	4b61      	ldr	r3, [pc, #388]	; (8007ec4 <UART_SetConfig+0x2d4>)
 8007d3e:	fba3 2302 	umull	r2, r3, r3, r2
 8007d42:	095b      	lsrs	r3, r3, #5
 8007d44:	011c      	lsls	r4, r3, #4
 8007d46:	f8d7 30fc 	ldr.w	r3, [r7, #252]	; 0xfc
 8007d4a:	2200      	movs	r2, #0
 8007d4c:	f8c7 30d0 	str.w	r3, [r7, #208]	; 0xd0
 8007d50:	f8c7 20d4 	str.w	r2, [r7, #212]	; 0xd4
 8007d54:	e9d7 8934 	ldrd	r8, r9, [r7, #208]	; 0xd0
 8007d58:	4642      	mov	r2, r8
 8007d5a:	464b      	mov	r3, r9
 8007d5c:	1891      	adds	r1, r2, r2
 8007d5e:	64b9      	str	r1, [r7, #72]	; 0x48
 8007d60:	415b      	adcs	r3, r3
 8007d62:	64fb      	str	r3, [r7, #76]	; 0x4c
 8007d64:	e9d7 2312 	ldrd	r2, r3, [r7, #72]	; 0x48
 8007d68:	4641      	mov	r1, r8
 8007d6a:	eb12 0a01 	adds.w	sl, r2, r1
 8007d6e:	4649      	mov	r1, r9
 8007d70:	eb43 0b01 	adc.w	fp, r3, r1
 8007d74:	f04f 0200 	mov.w	r2, #0
 8007d78:	f04f 0300 	mov.w	r3, #0
 8007d7c:	ea4f 03cb 	mov.w	r3, fp, lsl #3
 8007d80:	ea43 735a 	orr.w	r3, r3, sl, lsr #29
 8007d84:	ea4f 02ca 	mov.w	r2, sl, lsl #3
 8007d88:	4692      	mov	sl, r2
 8007d8a:	469b      	mov	fp, r3
 8007d8c:	4643      	mov	r3, r8
 8007d8e:	eb1a 0303 	adds.w	r3, sl, r3
 8007d92:	f8c7 30c8 	str.w	r3, [r7, #200]	; 0xc8
 8007d96:	464b      	mov	r3, r9
 8007d98:	eb4b 0303 	adc.w	r3, fp, r3
 8007d9c:	f8c7 30cc 	str.w	r3, [r7, #204]	; 0xcc
 8007da0:	f8d7 30f4 	ldr.w	r3, [r7, #244]	; 0xf4
 8007da4:	685b      	ldr	r3, [r3, #4]
 8007da6:	2200      	movs	r2, #0
 8007da8:	f8c7 30c0 	str.w	r3, [r7, #192]	; 0xc0
 8007dac:	f8c7 20c4 	str.w	r2, [r7, #196]	; 0xc4
 8007db0:	e9d7 1230 	ldrd	r1, r2, [r7, #192]	; 0xc0
 8007db4:	460b      	mov	r3, r1
 8007db6:	18db      	adds	r3, r3, r3
 8007db8:	643b      	str	r3, [r7, #64]	; 0x40
 8007dba:	4613      	mov	r3, r2
 8007dbc:	eb42 0303 	adc.w	r3, r2, r3
 8007dc0:	647b      	str	r3, [r7, #68]	; 0x44
 8007dc2:	e9d7 2310 	ldrd	r2, r3, [r7, #64]	; 0x40
 8007dc6:	e9d7 0132 	ldrd	r0, r1, [r7, #200]	; 0xc8
 8007dca:	f7f8 fa79 	bl	80002c0 <__aeabi_uldivmod>
 8007dce:	4602      	mov	r2, r0
 8007dd0:	460b      	mov	r3, r1
 8007dd2:	4611      	mov	r1, r2
 8007dd4:	4b3b      	ldr	r3, [pc, #236]	; (8007ec4 <UART_SetConfig+0x2d4>)
 8007dd6:	fba3 2301 	umull	r2, r3, r3, r1
 8007dda:	095b      	lsrs	r3, r3, #5
 8007ddc:	2264      	movs	r2, #100	; 0x64
 8007dde:	fb02 f303 	mul.w	r3, r2, r3
 8007de2:	1acb      	subs	r3, r1, r3
 8007de4:	00db      	lsls	r3, r3, #3
 8007de6:	f103 0232 	add.w	r2, r3, #50	; 0x32
 8007dea:	4b36      	ldr	r3, [pc, #216]	; (8007ec4 <UART_SetConfig+0x2d4>)
 8007dec:	fba3 2302 	umull	r2, r3, r3, r2
 8007df0:	095b      	lsrs	r3, r3, #5
 8007df2:	005b      	lsls	r3, r3, #1
 8007df4:	f403 73f8 	and.w	r3, r3, #496	; 0x1f0
 8007df8:	441c      	add	r4, r3
 8007dfa:	f8d7 30fc 	ldr.w	r3, [r7, #252]	; 0xfc
 8007dfe:	2200      	movs	r2, #0
 8007e00:	f8c7 30b8 	str.w	r3, [r7, #184]	; 0xb8
 8007e04:	f8c7 20bc 	str.w	r2, [r7, #188]	; 0xbc
 8007e08:	e9d7 892e 	ldrd	r8, r9, [r7, #184]	; 0xb8
 8007e0c:	4642      	mov	r2, r8
 8007e0e:	464b      	mov	r3, r9
 8007e10:	1891      	adds	r1, r2, r2
 8007e12:	63b9      	str	r1, [r7, #56]	; 0x38
 8007e14:	415b      	adcs	r3, r3
 8007e16:	63fb      	str	r3, [r7, #60]	; 0x3c
 8007e18:	e9d7 230e 	ldrd	r2, r3, [r7, #56]	; 0x38
 8007e1c:	4641      	mov	r1, r8
 8007e1e:	1851      	adds	r1, r2, r1
 8007e20:	6339      	str	r1, [r7, #48]	; 0x30
 8007e22:	4649      	mov	r1, r9
 8007e24:	414b      	adcs	r3, r1
 8007e26:	637b      	str	r3, [r7, #52]	; 0x34
 8007e28:	f04f 0200 	mov.w	r2, #0
 8007e2c:	f04f 0300 	mov.w	r3, #0
 8007e30:	e9d7 ab0c 	ldrd	sl, fp, [r7, #48]	; 0x30
 8007e34:	4659      	mov	r1, fp
 8007e36:	00cb      	lsls	r3, r1, #3
 8007e38:	4651      	mov	r1, sl
 8007e3a:	ea43 7351 	orr.w	r3, r3, r1, lsr #29
 8007e3e:	4651      	mov	r1, sl
 8007e40:	00ca      	lsls	r2, r1, #3
 8007e42:	4610      	mov	r0, r2
 8007e44:	4619      	mov	r1, r3
 8007e46:	4603      	mov	r3, r0
 8007e48:	4642      	mov	r2, r8
 8007e4a:	189b      	adds	r3, r3, r2
 8007e4c:	f8c7 30b0 	str.w	r3, [r7, #176]	; 0xb0
 8007e50:	464b      	mov	r3, r9
 8007e52:	460a      	mov	r2, r1
 8007e54:	eb42 0303 	adc.w	r3, r2, r3
 8007e58:	f8c7 30b4 	str.w	r3, [r7, #180]	; 0xb4
 8007e5c:	f8d7 30f4 	ldr.w	r3, [r7, #244]	; 0xf4
 8007e60:	685b      	ldr	r3, [r3, #4]
 8007e62:	2200      	movs	r2, #0
 8007e64:	f8c7 30a8 	str.w	r3, [r7, #168]	; 0xa8
 8007e68:	f8c7 20ac 	str.w	r2, [r7, #172]	; 0xac
 8007e6c:	e9d7 122a 	ldrd	r1, r2, [r7, #168]	; 0xa8
 8007e70:	460b      	mov	r3, r1
 8007e72:	18db      	adds	r3, r3, r3
 8007e74:	62bb      	str	r3, [r7, #40]	; 0x28
 8007e76:	4613      	mov	r3, r2
 8007e78:	eb42 0303 	adc.w	r3, r2, r3
 8007e7c:	62fb      	str	r3, [r7, #44]	; 0x2c
 8007e7e:	e9d7 230a 	ldrd	r2, r3, [r7, #40]	; 0x28
 8007e82:	e9d7 012c 	ldrd	r0, r1, [r7, #176]	; 0xb0
 8007e86:	f7f8 fa1b 	bl	80002c0 <__aeabi_uldivmod>
 8007e8a:	4602      	mov	r2, r0
 8007e8c:	460b      	mov	r3, r1
 8007e8e:	4b0d      	ldr	r3, [pc, #52]	; (8007ec4 <UART_SetConfig+0x2d4>)
 8007e90:	fba3 1302 	umull	r1, r3, r3, r2
 8007e94:	095b      	lsrs	r3, r3, #5
 8007e96:	2164      	movs	r1, #100	; 0x64
 8007e98:	fb01 f303 	mul.w	r3, r1, r3
 8007e9c:	1ad3      	subs	r3, r2, r3
 8007e9e:	00db      	lsls	r3, r3, #3
 8007ea0:	3332      	adds	r3, #50	; 0x32
 8007ea2:	4a08      	ldr	r2, [pc, #32]	; (8007ec4 <UART_SetConfig+0x2d4>)
 8007ea4:	fba2 2303 	umull	r2, r3, r2, r3
 8007ea8:	095b      	lsrs	r3, r3, #5
 8007eaa:	f003 0207 	and.w	r2, r3, #7
 8007eae:	f8d7 30f4 	ldr.w	r3, [r7, #244]	; 0xf4
 8007eb2:	681b      	ldr	r3, [r3, #0]
 8007eb4:	4422      	add	r2, r4
 8007eb6:	609a      	str	r2, [r3, #8]
  }
  else
  {
    huart->Instance->BRR = UART_BRR_SAMPLING16(pclk, huart->Init.BaudRate);
  }
}
 8007eb8:	e105      	b.n	80080c6 <UART_SetConfig+0x4d6>
 8007eba:	bf00      	nop
 8007ebc:	40011000 	.word	0x40011000
 8007ec0:	40011400 	.word	0x40011400
 8007ec4:	51eb851f 	.word	0x51eb851f
    huart->Instance->BRR = UART_BRR_SAMPLING16(pclk, huart->Init.BaudRate);
 8007ec8:	f8d7 30fc 	ldr.w	r3, [r7, #252]	; 0xfc
 8007ecc:	2200      	movs	r2, #0
 8007ece:	f8c7 30a0 	str.w	r3, [r7, #160]	; 0xa0
 8007ed2:	f8c7 20a4 	str.w	r2, [r7, #164]	; 0xa4
 8007ed6:	e9d7 8928 	ldrd	r8, r9, [r7, #160]	; 0xa0
 8007eda:	4642      	mov	r2, r8
 8007edc:	464b      	mov	r3, r9
 8007ede:	1891      	adds	r1, r2, r2
 8007ee0:	6239      	str	r1, [r7, #32]
 8007ee2:	415b      	adcs	r3, r3
 8007ee4:	627b      	str	r3, [r7, #36]	; 0x24
 8007ee6:	e9d7 2308 	ldrd	r2, r3, [r7, #32]
 8007eea:	4641      	mov	r1, r8
 8007eec:	1854      	adds	r4, r2, r1
 8007eee:	4649      	mov	r1, r9
 8007ef0:	eb43 0501 	adc.w	r5, r3, r1
 8007ef4:	f04f 0200 	mov.w	r2, #0
 8007ef8:	f04f 0300 	mov.w	r3, #0
 8007efc:	00eb      	lsls	r3, r5, #3
 8007efe:	ea43 7354 	orr.w	r3, r3, r4, lsr #29
 8007f02:	00e2      	lsls	r2, r4, #3
 8007f04:	4614      	mov	r4, r2
 8007f06:	461d      	mov	r5, r3
 8007f08:	4643      	mov	r3, r8
 8007f0a:	18e3      	adds	r3, r4, r3
 8007f0c:	f8c7 3098 	str.w	r3, [r7, #152]	; 0x98
 8007f10:	464b      	mov	r3, r9
 8007f12:	eb45 0303 	adc.w	r3, r5, r3
 8007f16:	f8c7 309c 	str.w	r3, [r7, #156]	; 0x9c
 8007f1a:	f8d7 30f4 	ldr.w	r3, [r7, #244]	; 0xf4
 8007f1e:	685b      	ldr	r3, [r3, #4]
 8007f20:	2200      	movs	r2, #0
 8007f22:	f8c7 3090 	str.w	r3, [r7, #144]	; 0x90
 8007f26:	f8c7 2094 	str.w	r2, [r7, #148]	; 0x94
 8007f2a:	f04f 0200 	mov.w	r2, #0
 8007f2e:	f04f 0300 	mov.w	r3, #0
 8007f32:	e9d7 4524 	ldrd	r4, r5, [r7, #144]	; 0x90
 8007f36:	4629      	mov	r1, r5
 8007f38:	008b      	lsls	r3, r1, #2
 8007f3a:	4621      	mov	r1, r4
 8007f3c:	ea43 7391 	orr.w	r3, r3, r1, lsr #30
 8007f40:	4621      	mov	r1, r4
 8007f42:	008a      	lsls	r2, r1, #2
 8007f44:	e9d7 0126 	ldrd	r0, r1, [r7, #152]	; 0x98
 8007f48:	f7f8 f9ba 	bl	80002c0 <__aeabi_uldivmod>
 8007f4c:	4602      	mov	r2, r0
 8007f4e:	460b      	mov	r3, r1
 8007f50:	4b60      	ldr	r3, [pc, #384]	; (80080d4 <UART_SetConfig+0x4e4>)
 8007f52:	fba3 2302 	umull	r2, r3, r3, r2
 8007f56:	095b      	lsrs	r3, r3, #5
 8007f58:	011c      	lsls	r4, r3, #4
 8007f5a:	f8d7 30fc 	ldr.w	r3, [r7, #252]	; 0xfc
 8007f5e:	2200      	movs	r2, #0
 8007f60:	f8c7 3088 	str.w	r3, [r7, #136]	; 0x88
 8007f64:	f8c7 208c 	str.w	r2, [r7, #140]	; 0x8c
 8007f68:	e9d7 8922 	ldrd	r8, r9, [r7, #136]	; 0x88
 8007f6c:	4642      	mov	r2, r8
 8007f6e:	464b      	mov	r3, r9
 8007f70:	1891      	adds	r1, r2, r2
 8007f72:	61b9      	str	r1, [r7, #24]
 8007f74:	415b      	adcs	r3, r3
 8007f76:	61fb      	str	r3, [r7, #28]
 8007f78:	e9d7 2306 	ldrd	r2, r3, [r7, #24]
 8007f7c:	4641      	mov	r1, r8
 8007f7e:	1851      	adds	r1, r2, r1
 8007f80:	6139      	str	r1, [r7, #16]
 8007f82:	4649      	mov	r1, r9
 8007f84:	414b      	adcs	r3, r1
 8007f86:	617b      	str	r3, [r7, #20]
 8007f88:	f04f 0200 	mov.w	r2, #0
 8007f8c:	f04f 0300 	mov.w	r3, #0
 8007f90:	e9d7 ab04 	ldrd	sl, fp, [r7, #16]
 8007f94:	4659      	mov	r1, fp
 8007f96:	00cb      	lsls	r3, r1, #3
 8007f98:	4651      	mov	r1, sl
 8007f9a:	ea43 7351 	orr.w	r3, r3, r1, lsr #29
 8007f9e:	4651      	mov	r1, sl
 8007fa0:	00ca      	lsls	r2, r1, #3
 8007fa2:	4610      	mov	r0, r2
 8007fa4:	4619      	mov	r1, r3
 8007fa6:	4603      	mov	r3, r0
 8007fa8:	4642      	mov	r2, r8
 8007faa:	189b      	adds	r3, r3, r2
 8007fac:	f8c7 3080 	str.w	r3, [r7, #128]	; 0x80
 8007fb0:	464b      	mov	r3, r9
 8007fb2:	460a      	mov	r2, r1
 8007fb4:	eb42 0303 	adc.w	r3, r2, r3
 8007fb8:	f8c7 3084 	str.w	r3, [r7, #132]	; 0x84
 8007fbc:	f8d7 30f4 	ldr.w	r3, [r7, #244]	; 0xf4
 8007fc0:	685b      	ldr	r3, [r3, #4]
 8007fc2:	2200      	movs	r2, #0
 8007fc4:	67bb      	str	r3, [r7, #120]	; 0x78
 8007fc6:	67fa      	str	r2, [r7, #124]	; 0x7c
 8007fc8:	f04f 0200 	mov.w	r2, #0
 8007fcc:	f04f 0300 	mov.w	r3, #0
 8007fd0:	e9d7 891e 	ldrd	r8, r9, [r7, #120]	; 0x78
 8007fd4:	4649      	mov	r1, r9
 8007fd6:	008b      	lsls	r3, r1, #2
 8007fd8:	4641      	mov	r1, r8
 8007fda:	ea43 7391 	orr.w	r3, r3, r1, lsr #30
 8007fde:	4641      	mov	r1, r8
 8007fe0:	008a      	lsls	r2, r1, #2
 8007fe2:	e9d7 0120 	ldrd	r0, r1, [r7, #128]	; 0x80
 8007fe6:	f7f8 f96b 	bl	80002c0 <__aeabi_uldivmod>
 8007fea:	4602      	mov	r2, r0
 8007fec:	460b      	mov	r3, r1
 8007fee:	4b39      	ldr	r3, [pc, #228]	; (80080d4 <UART_SetConfig+0x4e4>)
 8007ff0:	fba3 1302 	umull	r1, r3, r3, r2
 8007ff4:	095b      	lsrs	r3, r3, #5
 8007ff6:	2164      	movs	r1, #100	; 0x64
 8007ff8:	fb01 f303 	mul.w	r3, r1, r3
 8007ffc:	1ad3      	subs	r3, r2, r3
 8007ffe:	011b      	lsls	r3, r3, #4
 8008000:	3332      	adds	r3, #50	; 0x32
 8008002:	4a34      	ldr	r2, [pc, #208]	; (80080d4 <UART_SetConfig+0x4e4>)
 8008004:	fba2 2303 	umull	r2, r3, r2, r3
 8008008:	095b      	lsrs	r3, r3, #5
 800800a:	f003 03f0 	and.w	r3, r3, #240	; 0xf0
 800800e:	441c      	add	r4, r3
 8008010:	f8d7 30fc 	ldr.w	r3, [r7, #252]	; 0xfc
 8008014:	2200      	movs	r2, #0
 8008016:	673b      	str	r3, [r7, #112]	; 0x70
 8008018:	677a      	str	r2, [r7, #116]	; 0x74
 800801a:	e9d7 891c 	ldrd	r8, r9, [r7, #112]	; 0x70
 800801e:	4642      	mov	r2, r8
 8008020:	464b      	mov	r3, r9
 8008022:	1891      	adds	r1, r2, r2
 8008024:	60b9      	str	r1, [r7, #8]
 8008026:	415b      	adcs	r3, r3
 8008028:	60fb      	str	r3, [r7, #12]
 800802a:	e9d7 2302 	ldrd	r2, r3, [r7, #8]
 800802e:	4641      	mov	r1, r8
 8008030:	1851      	adds	r1, r2, r1
 8008032:	6039      	str	r1, [r7, #0]
 8008034:	4649      	mov	r1, r9
 8008036:	414b      	adcs	r3, r1
 8008038:	607b      	str	r3, [r7, #4]
 800803a:	f04f 0200 	mov.w	r2, #0
 800803e:	f04f 0300 	mov.w	r3, #0
 8008042:	e9d7 ab00 	ldrd	sl, fp, [r7]
 8008046:	4659      	mov	r1, fp
 8008048:	00cb      	lsls	r3, r1, #3
 800804a:	4651      	mov	r1, sl
 800804c:	ea43 7351 	orr.w	r3, r3, r1, lsr #29
 8008050:	4651      	mov	r1, sl
 8008052:	00ca      	lsls	r2, r1, #3
 8008054:	4610      	mov	r0, r2
 8008056:	4619      	mov	r1, r3
 8008058:	4603      	mov	r3, r0
 800805a:	4642      	mov	r2, r8
 800805c:	189b      	adds	r3, r3, r2
 800805e:	66bb      	str	r3, [r7, #104]	; 0x68
 8008060:	464b      	mov	r3, r9
 8008062:	460a      	mov	r2, r1
 8008064:	eb42 0303 	adc.w	r3, r2, r3
 8008068:	66fb      	str	r3, [r7, #108]	; 0x6c
 800806a:	f8d7 30f4 	ldr.w	r3, [r7, #244]	; 0xf4
 800806e:	685b      	ldr	r3, [r3, #4]
 8008070:	2200      	movs	r2, #0
 8008072:	663b      	str	r3, [r7, #96]	; 0x60
 8008074:	667a      	str	r2, [r7, #100]	; 0x64
 8008076:	f04f 0200 	mov.w	r2, #0
 800807a:	f04f 0300 	mov.w	r3, #0
 800807e:	e9d7 8918 	ldrd	r8, r9, [r7, #96]	; 0x60
 8008082:	4649      	mov	r1, r9
 8008084:	008b      	lsls	r3, r1, #2
 8008086:	4641      	mov	r1, r8
 8008088:	ea43 7391 	orr.w	r3, r3, r1, lsr #30
 800808c:	4641      	mov	r1, r8
 800808e:	008a      	lsls	r2, r1, #2
 8008090:	e9d7 011a 	ldrd	r0, r1, [r7, #104]	; 0x68
 8008094:	f7f8 f914 	bl	80002c0 <__aeabi_uldivmod>
 8008098:	4602      	mov	r2, r0
 800809a:	460b      	mov	r3, r1
 800809c:	4b0d      	ldr	r3, [pc, #52]	; (80080d4 <UART_SetConfig+0x4e4>)
 800809e:	fba3 1302 	umull	r1, r3, r3, r2
 80080a2:	095b      	lsrs	r3, r3, #5
 80080a4:	2164      	movs	r1, #100	; 0x64
 80080a6:	fb01 f303 	mul.w	r3, r1, r3
 80080aa:	1ad3      	subs	r3, r2, r3
 80080ac:	011b      	lsls	r3, r3, #4
 80080ae:	3332      	adds	r3, #50	; 0x32
 80080b0:	4a08      	ldr	r2, [pc, #32]	; (80080d4 <UART_SetConfig+0x4e4>)
 80080b2:	fba2 2303 	umull	r2, r3, r2, r3
 80080b6:	095b      	lsrs	r3, r3, #5
 80080b8:	f003 020f 	and.w	r2, r3, #15
 80080bc:	f8d7 30f4 	ldr.w	r3, [r7, #244]	; 0xf4
 80080c0:	681b      	ldr	r3, [r3, #0]
 80080c2:	4422      	add	r2, r4
 80080c4:	609a      	str	r2, [r3, #8]
}
 80080c6:	bf00      	nop
 80080c8:	f507 7780 	add.w	r7, r7, #256	; 0x100
 80080cc:	46bd      	mov	sp, r7
 80080ce:	e8bd 8fb0 	ldmia.w	sp!, {r4, r5, r7, r8, r9, sl, fp, pc}
 80080d2:	bf00      	nop
 80080d4:	51eb851f 	.word	0x51eb851f

080080d8 <__errno>:
 80080d8:	4b01      	ldr	r3, [pc, #4]	; (80080e0 <__errno+0x8>)
 80080da:	6818      	ldr	r0, [r3, #0]
 80080dc:	4770      	bx	lr
 80080de:	bf00      	nop
 80080e0:	20000018 	.word	0x20000018

080080e4 <__libc_init_array>:
 80080e4:	b570      	push	{r4, r5, r6, lr}
 80080e6:	4d0d      	ldr	r5, [pc, #52]	; (800811c <__libc_init_array+0x38>)
 80080e8:	4c0d      	ldr	r4, [pc, #52]	; (8008120 <__libc_init_array+0x3c>)
 80080ea:	1b64      	subs	r4, r4, r5
 80080ec:	10a4      	asrs	r4, r4, #2
 80080ee:	2600      	movs	r6, #0
 80080f0:	42a6      	cmp	r6, r4
 80080f2:	d109      	bne.n	8008108 <__libc_init_array+0x24>
 80080f4:	4d0b      	ldr	r5, [pc, #44]	; (8008124 <__libc_init_array+0x40>)
 80080f6:	4c0c      	ldr	r4, [pc, #48]	; (8008128 <__libc_init_array+0x44>)
 80080f8:	f000 fcee 	bl	8008ad8 <_init>
 80080fc:	1b64      	subs	r4, r4, r5
 80080fe:	10a4      	asrs	r4, r4, #2
 8008100:	2600      	movs	r6, #0
 8008102:	42a6      	cmp	r6, r4
 8008104:	d105      	bne.n	8008112 <__libc_init_array+0x2e>
 8008106:	bd70      	pop	{r4, r5, r6, pc}
 8008108:	f855 3b04 	ldr.w	r3, [r5], #4
 800810c:	4798      	blx	r3
 800810e:	3601      	adds	r6, #1
 8008110:	e7ee      	b.n	80080f0 <__libc_init_array+0xc>
 8008112:	f855 3b04 	ldr.w	r3, [r5], #4
 8008116:	4798      	blx	r3
 8008118:	3601      	adds	r6, #1
 800811a:	e7f2      	b.n	8008102 <__libc_init_array+0x1e>
 800811c:	08008d08 	.word	0x08008d08
 8008120:	08008d08 	.word	0x08008d08
 8008124:	08008d08 	.word	0x08008d08
 8008128:	08008d0c 	.word	0x08008d0c

0800812c <memcpy>:
 800812c:	440a      	add	r2, r1
 800812e:	4291      	cmp	r1, r2
 8008130:	f100 33ff 	add.w	r3, r0, #4294967295	; 0xffffffff
 8008134:	d100      	bne.n	8008138 <memcpy+0xc>
 8008136:	4770      	bx	lr
 8008138:	b510      	push	{r4, lr}
 800813a:	f811 4b01 	ldrb.w	r4, [r1], #1
 800813e:	f803 4f01 	strb.w	r4, [r3, #1]!
 8008142:	4291      	cmp	r1, r2
 8008144:	d1f9      	bne.n	800813a <memcpy+0xe>
 8008146:	bd10      	pop	{r4, pc}

08008148 <memset>:
 8008148:	4402      	add	r2, r0
 800814a:	4603      	mov	r3, r0
 800814c:	4293      	cmp	r3, r2
 800814e:	d100      	bne.n	8008152 <memset+0xa>
 8008150:	4770      	bx	lr
 8008152:	f803 1b01 	strb.w	r1, [r3], #1
 8008156:	e7f9      	b.n	800814c <memset+0x4>

08008158 <siprintf>:
 8008158:	b40e      	push	{r1, r2, r3}
 800815a:	b500      	push	{lr}
 800815c:	b09c      	sub	sp, #112	; 0x70
 800815e:	ab1d      	add	r3, sp, #116	; 0x74
 8008160:	9002      	str	r0, [sp, #8]
 8008162:	9006      	str	r0, [sp, #24]
 8008164:	f06f 4100 	mvn.w	r1, #2147483648	; 0x80000000
 8008168:	4809      	ldr	r0, [pc, #36]	; (8008190 <siprintf+0x38>)
 800816a:	9107      	str	r1, [sp, #28]
 800816c:	9104      	str	r1, [sp, #16]
 800816e:	4909      	ldr	r1, [pc, #36]	; (8008194 <siprintf+0x3c>)
 8008170:	f853 2b04 	ldr.w	r2, [r3], #4
 8008174:	9105      	str	r1, [sp, #20]
 8008176:	6800      	ldr	r0, [r0, #0]
 8008178:	9301      	str	r3, [sp, #4]
 800817a:	a902      	add	r1, sp, #8
 800817c:	f000 f95c 	bl	8008438 <_svfiprintf_r>
 8008180:	9b02      	ldr	r3, [sp, #8]
 8008182:	2200      	movs	r2, #0
 8008184:	701a      	strb	r2, [r3, #0]
 8008186:	b01c      	add	sp, #112	; 0x70
 8008188:	f85d eb04 	ldr.w	lr, [sp], #4
 800818c:	b003      	add	sp, #12
 800818e:	4770      	bx	lr
 8008190:	20000018 	.word	0x20000018
 8008194:	ffff0208 	.word	0xffff0208

08008198 <strdup>:
 8008198:	4b02      	ldr	r3, [pc, #8]	; (80081a4 <strdup+0xc>)
 800819a:	4601      	mov	r1, r0
 800819c:	6818      	ldr	r0, [r3, #0]
 800819e:	f000 b803 	b.w	80081a8 <_strdup_r>
 80081a2:	bf00      	nop
 80081a4:	20000018 	.word	0x20000018

080081a8 <_strdup_r>:
 80081a8:	b537      	push	{r0, r1, r2, r4, r5, lr}
 80081aa:	4604      	mov	r4, r0
 80081ac:	4608      	mov	r0, r1
 80081ae:	460d      	mov	r5, r1
 80081b0:	f7f8 f82e 	bl	8000210 <strlen>
 80081b4:	1c42      	adds	r2, r0, #1
 80081b6:	4611      	mov	r1, r2
 80081b8:	4620      	mov	r0, r4
 80081ba:	9201      	str	r2, [sp, #4]
 80081bc:	f000 f86c 	bl	8008298 <_malloc_r>
 80081c0:	4604      	mov	r4, r0
 80081c2:	b118      	cbz	r0, 80081cc <_strdup_r+0x24>
 80081c4:	9a01      	ldr	r2, [sp, #4]
 80081c6:	4629      	mov	r1, r5
 80081c8:	f7ff ffb0 	bl	800812c <memcpy>
 80081cc:	4620      	mov	r0, r4
 80081ce:	b003      	add	sp, #12
 80081d0:	bd30      	pop	{r4, r5, pc}

080081d2 <strsep>:
 80081d2:	4602      	mov	r2, r0
 80081d4:	2300      	movs	r3, #0
 80081d6:	6800      	ldr	r0, [r0, #0]
 80081d8:	f000 b816 	b.w	8008208 <__strtok_r>

080081dc <strstr>:
 80081dc:	780a      	ldrb	r2, [r1, #0]
 80081de:	b570      	push	{r4, r5, r6, lr}
 80081e0:	b96a      	cbnz	r2, 80081fe <strstr+0x22>
 80081e2:	bd70      	pop	{r4, r5, r6, pc}
 80081e4:	429a      	cmp	r2, r3
 80081e6:	d109      	bne.n	80081fc <strstr+0x20>
 80081e8:	460c      	mov	r4, r1
 80081ea:	4605      	mov	r5, r0
 80081ec:	f814 3f01 	ldrb.w	r3, [r4, #1]!
 80081f0:	2b00      	cmp	r3, #0
 80081f2:	d0f6      	beq.n	80081e2 <strstr+0x6>
 80081f4:	f815 6f01 	ldrb.w	r6, [r5, #1]!
 80081f8:	429e      	cmp	r6, r3
 80081fa:	d0f7      	beq.n	80081ec <strstr+0x10>
 80081fc:	3001      	adds	r0, #1
 80081fe:	7803      	ldrb	r3, [r0, #0]
 8008200:	2b00      	cmp	r3, #0
 8008202:	d1ef      	bne.n	80081e4 <strstr+0x8>
 8008204:	4618      	mov	r0, r3
 8008206:	e7ec      	b.n	80081e2 <strstr+0x6>

08008208 <__strtok_r>:
 8008208:	b5f0      	push	{r4, r5, r6, r7, lr}
 800820a:	b908      	cbnz	r0, 8008210 <__strtok_r+0x8>
 800820c:	6810      	ldr	r0, [r2, #0]
 800820e:	b188      	cbz	r0, 8008234 <__strtok_r+0x2c>
 8008210:	4604      	mov	r4, r0
 8008212:	4620      	mov	r0, r4
 8008214:	f814 5b01 	ldrb.w	r5, [r4], #1
 8008218:	460f      	mov	r7, r1
 800821a:	f817 6b01 	ldrb.w	r6, [r7], #1
 800821e:	b91e      	cbnz	r6, 8008228 <__strtok_r+0x20>
 8008220:	b965      	cbnz	r5, 800823c <__strtok_r+0x34>
 8008222:	6015      	str	r5, [r2, #0]
 8008224:	4628      	mov	r0, r5
 8008226:	e005      	b.n	8008234 <__strtok_r+0x2c>
 8008228:	42b5      	cmp	r5, r6
 800822a:	d1f6      	bne.n	800821a <__strtok_r+0x12>
 800822c:	2b00      	cmp	r3, #0
 800822e:	d1f0      	bne.n	8008212 <__strtok_r+0xa>
 8008230:	6014      	str	r4, [r2, #0]
 8008232:	7003      	strb	r3, [r0, #0]
 8008234:	bdf0      	pop	{r4, r5, r6, r7, pc}
 8008236:	461c      	mov	r4, r3
 8008238:	e00c      	b.n	8008254 <__strtok_r+0x4c>
 800823a:	b915      	cbnz	r5, 8008242 <__strtok_r+0x3a>
 800823c:	f814 3b01 	ldrb.w	r3, [r4], #1
 8008240:	460e      	mov	r6, r1
 8008242:	f816 5b01 	ldrb.w	r5, [r6], #1
 8008246:	42ab      	cmp	r3, r5
 8008248:	d1f7      	bne.n	800823a <__strtok_r+0x32>
 800824a:	2b00      	cmp	r3, #0
 800824c:	d0f3      	beq.n	8008236 <__strtok_r+0x2e>
 800824e:	2300      	movs	r3, #0
 8008250:	f804 3c01 	strb.w	r3, [r4, #-1]
 8008254:	6014      	str	r4, [r2, #0]
 8008256:	e7ed      	b.n	8008234 <__strtok_r+0x2c>

08008258 <sbrk_aligned>:
 8008258:	b570      	push	{r4, r5, r6, lr}
 800825a:	4e0e      	ldr	r6, [pc, #56]	; (8008294 <sbrk_aligned+0x3c>)
 800825c:	460c      	mov	r4, r1
 800825e:	6831      	ldr	r1, [r6, #0]
 8008260:	4605      	mov	r5, r0
 8008262:	b911      	cbnz	r1, 800826a <sbrk_aligned+0x12>
 8008264:	f000 fb7c 	bl	8008960 <_sbrk_r>
 8008268:	6030      	str	r0, [r6, #0]
 800826a:	4621      	mov	r1, r4
 800826c:	4628      	mov	r0, r5
 800826e:	f000 fb77 	bl	8008960 <_sbrk_r>
 8008272:	1c43      	adds	r3, r0, #1
 8008274:	d00a      	beq.n	800828c <sbrk_aligned+0x34>
 8008276:	1cc4      	adds	r4, r0, #3
 8008278:	f024 0403 	bic.w	r4, r4, #3
 800827c:	42a0      	cmp	r0, r4
 800827e:	d007      	beq.n	8008290 <sbrk_aligned+0x38>
 8008280:	1a21      	subs	r1, r4, r0
 8008282:	4628      	mov	r0, r5
 8008284:	f000 fb6c 	bl	8008960 <_sbrk_r>
 8008288:	3001      	adds	r0, #1
 800828a:	d101      	bne.n	8008290 <sbrk_aligned+0x38>
 800828c:	f04f 34ff 	mov.w	r4, #4294967295	; 0xffffffff
 8008290:	4620      	mov	r0, r4
 8008292:	bd70      	pop	{r4, r5, r6, pc}
 8008294:	2000f7b8 	.word	0x2000f7b8

08008298 <_malloc_r>:
 8008298:	e92d 41f0 	stmdb	sp!, {r4, r5, r6, r7, r8, lr}
 800829c:	1ccd      	adds	r5, r1, #3
 800829e:	f025 0503 	bic.w	r5, r5, #3
 80082a2:	3508      	adds	r5, #8
 80082a4:	2d0c      	cmp	r5, #12
 80082a6:	bf38      	it	cc
 80082a8:	250c      	movcc	r5, #12
 80082aa:	2d00      	cmp	r5, #0
 80082ac:	4607      	mov	r7, r0
 80082ae:	db01      	blt.n	80082b4 <_malloc_r+0x1c>
 80082b0:	42a9      	cmp	r1, r5
 80082b2:	d905      	bls.n	80082c0 <_malloc_r+0x28>
 80082b4:	230c      	movs	r3, #12
 80082b6:	603b      	str	r3, [r7, #0]
 80082b8:	2600      	movs	r6, #0
 80082ba:	4630      	mov	r0, r6
 80082bc:	e8bd 81f0 	ldmia.w	sp!, {r4, r5, r6, r7, r8, pc}
 80082c0:	4e2e      	ldr	r6, [pc, #184]	; (800837c <_malloc_r+0xe4>)
 80082c2:	f000 fb77 	bl	80089b4 <__malloc_lock>
 80082c6:	6833      	ldr	r3, [r6, #0]
 80082c8:	461c      	mov	r4, r3
 80082ca:	bb34      	cbnz	r4, 800831a <_malloc_r+0x82>
 80082cc:	4629      	mov	r1, r5
 80082ce:	4638      	mov	r0, r7
 80082d0:	f7ff ffc2 	bl	8008258 <sbrk_aligned>
 80082d4:	1c43      	adds	r3, r0, #1
 80082d6:	4604      	mov	r4, r0
 80082d8:	d14d      	bne.n	8008376 <_malloc_r+0xde>
 80082da:	6834      	ldr	r4, [r6, #0]
 80082dc:	4626      	mov	r6, r4
 80082de:	2e00      	cmp	r6, #0
 80082e0:	d140      	bne.n	8008364 <_malloc_r+0xcc>
 80082e2:	6823      	ldr	r3, [r4, #0]
 80082e4:	4631      	mov	r1, r6
 80082e6:	4638      	mov	r0, r7
 80082e8:	eb04 0803 	add.w	r8, r4, r3
 80082ec:	f000 fb38 	bl	8008960 <_sbrk_r>
 80082f0:	4580      	cmp	r8, r0
 80082f2:	d13a      	bne.n	800836a <_malloc_r+0xd2>
 80082f4:	6821      	ldr	r1, [r4, #0]
 80082f6:	3503      	adds	r5, #3
 80082f8:	1a6d      	subs	r5, r5, r1
 80082fa:	f025 0503 	bic.w	r5, r5, #3
 80082fe:	3508      	adds	r5, #8
 8008300:	2d0c      	cmp	r5, #12
 8008302:	bf38      	it	cc
 8008304:	250c      	movcc	r5, #12
 8008306:	4629      	mov	r1, r5
 8008308:	4638      	mov	r0, r7
 800830a:	f7ff ffa5 	bl	8008258 <sbrk_aligned>
 800830e:	3001      	adds	r0, #1
 8008310:	d02b      	beq.n	800836a <_malloc_r+0xd2>
 8008312:	6823      	ldr	r3, [r4, #0]
 8008314:	442b      	add	r3, r5
 8008316:	6023      	str	r3, [r4, #0]
 8008318:	e00e      	b.n	8008338 <_malloc_r+0xa0>
 800831a:	6822      	ldr	r2, [r4, #0]
 800831c:	1b52      	subs	r2, r2, r5
 800831e:	d41e      	bmi.n	800835e <_malloc_r+0xc6>
 8008320:	2a0b      	cmp	r2, #11
 8008322:	d916      	bls.n	8008352 <_malloc_r+0xba>
 8008324:	1961      	adds	r1, r4, r5
 8008326:	42a3      	cmp	r3, r4
 8008328:	6025      	str	r5, [r4, #0]
 800832a:	bf18      	it	ne
 800832c:	6059      	strne	r1, [r3, #4]
 800832e:	6863      	ldr	r3, [r4, #4]
 8008330:	bf08      	it	eq
 8008332:	6031      	streq	r1, [r6, #0]
 8008334:	5162      	str	r2, [r4, r5]
 8008336:	604b      	str	r3, [r1, #4]
 8008338:	4638      	mov	r0, r7
 800833a:	f104 060b 	add.w	r6, r4, #11
 800833e:	f000 fb3f 	bl	80089c0 <__malloc_unlock>
 8008342:	f026 0607 	bic.w	r6, r6, #7
 8008346:	1d23      	adds	r3, r4, #4
 8008348:	1af2      	subs	r2, r6, r3
 800834a:	d0b6      	beq.n	80082ba <_malloc_r+0x22>
 800834c:	1b9b      	subs	r3, r3, r6
 800834e:	50a3      	str	r3, [r4, r2]
 8008350:	e7b3      	b.n	80082ba <_malloc_r+0x22>
 8008352:	6862      	ldr	r2, [r4, #4]
 8008354:	42a3      	cmp	r3, r4
 8008356:	bf0c      	ite	eq
 8008358:	6032      	streq	r2, [r6, #0]
 800835a:	605a      	strne	r2, [r3, #4]
 800835c:	e7ec      	b.n	8008338 <_malloc_r+0xa0>
 800835e:	4623      	mov	r3, r4
 8008360:	6864      	ldr	r4, [r4, #4]
 8008362:	e7b2      	b.n	80082ca <_malloc_r+0x32>
 8008364:	4634      	mov	r4, r6
 8008366:	6876      	ldr	r6, [r6, #4]
 8008368:	e7b9      	b.n	80082de <_malloc_r+0x46>
 800836a:	230c      	movs	r3, #12
 800836c:	603b      	str	r3, [r7, #0]
 800836e:	4638      	mov	r0, r7
 8008370:	f000 fb26 	bl	80089c0 <__malloc_unlock>
 8008374:	e7a1      	b.n	80082ba <_malloc_r+0x22>
 8008376:	6025      	str	r5, [r4, #0]
 8008378:	e7de      	b.n	8008338 <_malloc_r+0xa0>
 800837a:	bf00      	nop
 800837c:	2000f7b4 	.word	0x2000f7b4

08008380 <__ssputs_r>:
 8008380:	e92d 47f0 	stmdb	sp!, {r4, r5, r6, r7, r8, r9, sl, lr}
 8008384:	688e      	ldr	r6, [r1, #8]
 8008386:	429e      	cmp	r6, r3
 8008388:	4682      	mov	sl, r0
 800838a:	460c      	mov	r4, r1
 800838c:	4690      	mov	r8, r2
 800838e:	461f      	mov	r7, r3
 8008390:	d838      	bhi.n	8008404 <__ssputs_r+0x84>
 8008392:	898a      	ldrh	r2, [r1, #12]
 8008394:	f412 6f90 	tst.w	r2, #1152	; 0x480
 8008398:	d032      	beq.n	8008400 <__ssputs_r+0x80>
 800839a:	6825      	ldr	r5, [r4, #0]
 800839c:	6909      	ldr	r1, [r1, #16]
 800839e:	eba5 0901 	sub.w	r9, r5, r1
 80083a2:	6965      	ldr	r5, [r4, #20]
 80083a4:	eb05 0545 	add.w	r5, r5, r5, lsl #1
 80083a8:	eb05 75d5 	add.w	r5, r5, r5, lsr #31
 80083ac:	3301      	adds	r3, #1
 80083ae:	444b      	add	r3, r9
 80083b0:	106d      	asrs	r5, r5, #1
 80083b2:	429d      	cmp	r5, r3
 80083b4:	bf38      	it	cc
 80083b6:	461d      	movcc	r5, r3
 80083b8:	0553      	lsls	r3, r2, #21
 80083ba:	d531      	bpl.n	8008420 <__ssputs_r+0xa0>
 80083bc:	4629      	mov	r1, r5
 80083be:	f7ff ff6b 	bl	8008298 <_malloc_r>
 80083c2:	4606      	mov	r6, r0
 80083c4:	b950      	cbnz	r0, 80083dc <__ssputs_r+0x5c>
 80083c6:	230c      	movs	r3, #12
 80083c8:	f8ca 3000 	str.w	r3, [sl]
 80083cc:	89a3      	ldrh	r3, [r4, #12]
 80083ce:	f043 0340 	orr.w	r3, r3, #64	; 0x40
 80083d2:	81a3      	strh	r3, [r4, #12]
 80083d4:	f04f 30ff 	mov.w	r0, #4294967295	; 0xffffffff
 80083d8:	e8bd 87f0 	ldmia.w	sp!, {r4, r5, r6, r7, r8, r9, sl, pc}
 80083dc:	6921      	ldr	r1, [r4, #16]
 80083de:	464a      	mov	r2, r9
 80083e0:	f7ff fea4 	bl	800812c <memcpy>
 80083e4:	89a3      	ldrh	r3, [r4, #12]
 80083e6:	f423 6390 	bic.w	r3, r3, #1152	; 0x480
 80083ea:	f043 0380 	orr.w	r3, r3, #128	; 0x80
 80083ee:	81a3      	strh	r3, [r4, #12]
 80083f0:	6126      	str	r6, [r4, #16]
 80083f2:	6165      	str	r5, [r4, #20]
 80083f4:	444e      	add	r6, r9
 80083f6:	eba5 0509 	sub.w	r5, r5, r9
 80083fa:	6026      	str	r6, [r4, #0]
 80083fc:	60a5      	str	r5, [r4, #8]
 80083fe:	463e      	mov	r6, r7
 8008400:	42be      	cmp	r6, r7
 8008402:	d900      	bls.n	8008406 <__ssputs_r+0x86>
 8008404:	463e      	mov	r6, r7
 8008406:	6820      	ldr	r0, [r4, #0]
 8008408:	4632      	mov	r2, r6
 800840a:	4641      	mov	r1, r8
 800840c:	f000 fab8 	bl	8008980 <memmove>
 8008410:	68a3      	ldr	r3, [r4, #8]
 8008412:	1b9b      	subs	r3, r3, r6
 8008414:	60a3      	str	r3, [r4, #8]
 8008416:	6823      	ldr	r3, [r4, #0]
 8008418:	4433      	add	r3, r6
 800841a:	6023      	str	r3, [r4, #0]
 800841c:	2000      	movs	r0, #0
 800841e:	e7db      	b.n	80083d8 <__ssputs_r+0x58>
 8008420:	462a      	mov	r2, r5
 8008422:	f000 fb1f 	bl	8008a64 <_realloc_r>
 8008426:	4606      	mov	r6, r0
 8008428:	2800      	cmp	r0, #0
 800842a:	d1e1      	bne.n	80083f0 <__ssputs_r+0x70>
 800842c:	6921      	ldr	r1, [r4, #16]
 800842e:	4650      	mov	r0, sl
 8008430:	f000 facc 	bl	80089cc <_free_r>
 8008434:	e7c7      	b.n	80083c6 <__ssputs_r+0x46>
	...

08008438 <_svfiprintf_r>:
 8008438:	e92d 4ff0 	stmdb	sp!, {r4, r5, r6, r7, r8, r9, sl, fp, lr}
 800843c:	4698      	mov	r8, r3
 800843e:	898b      	ldrh	r3, [r1, #12]
 8008440:	061b      	lsls	r3, r3, #24
 8008442:	b09d      	sub	sp, #116	; 0x74
 8008444:	4607      	mov	r7, r0
 8008446:	460d      	mov	r5, r1
 8008448:	4614      	mov	r4, r2
 800844a:	d50e      	bpl.n	800846a <_svfiprintf_r+0x32>
 800844c:	690b      	ldr	r3, [r1, #16]
 800844e:	b963      	cbnz	r3, 800846a <_svfiprintf_r+0x32>
 8008450:	2140      	movs	r1, #64	; 0x40
 8008452:	f7ff ff21 	bl	8008298 <_malloc_r>
 8008456:	6028      	str	r0, [r5, #0]
 8008458:	6128      	str	r0, [r5, #16]
 800845a:	b920      	cbnz	r0, 8008466 <_svfiprintf_r+0x2e>
 800845c:	230c      	movs	r3, #12
 800845e:	603b      	str	r3, [r7, #0]
 8008460:	f04f 30ff 	mov.w	r0, #4294967295	; 0xffffffff
 8008464:	e0d1      	b.n	800860a <_svfiprintf_r+0x1d2>
 8008466:	2340      	movs	r3, #64	; 0x40
 8008468:	616b      	str	r3, [r5, #20]
 800846a:	2300      	movs	r3, #0
 800846c:	9309      	str	r3, [sp, #36]	; 0x24
 800846e:	2320      	movs	r3, #32
 8008470:	f88d 3029 	strb.w	r3, [sp, #41]	; 0x29
 8008474:	f8cd 800c 	str.w	r8, [sp, #12]
 8008478:	2330      	movs	r3, #48	; 0x30
 800847a:	f8df 81a8 	ldr.w	r8, [pc, #424]	; 8008624 <_svfiprintf_r+0x1ec>
 800847e:	f88d 302a 	strb.w	r3, [sp, #42]	; 0x2a
 8008482:	f04f 0901 	mov.w	r9, #1
 8008486:	4623      	mov	r3, r4
 8008488:	469a      	mov	sl, r3
 800848a:	f813 2b01 	ldrb.w	r2, [r3], #1
 800848e:	b10a      	cbz	r2, 8008494 <_svfiprintf_r+0x5c>
 8008490:	2a25      	cmp	r2, #37	; 0x25
 8008492:	d1f9      	bne.n	8008488 <_svfiprintf_r+0x50>
 8008494:	ebba 0b04 	subs.w	fp, sl, r4
 8008498:	d00b      	beq.n	80084b2 <_svfiprintf_r+0x7a>
 800849a:	465b      	mov	r3, fp
 800849c:	4622      	mov	r2, r4
 800849e:	4629      	mov	r1, r5
 80084a0:	4638      	mov	r0, r7
 80084a2:	f7ff ff6d 	bl	8008380 <__ssputs_r>
 80084a6:	3001      	adds	r0, #1
 80084a8:	f000 80aa 	beq.w	8008600 <_svfiprintf_r+0x1c8>
 80084ac:	9a09      	ldr	r2, [sp, #36]	; 0x24
 80084ae:	445a      	add	r2, fp
 80084b0:	9209      	str	r2, [sp, #36]	; 0x24
 80084b2:	f89a 3000 	ldrb.w	r3, [sl]
 80084b6:	2b00      	cmp	r3, #0
 80084b8:	f000 80a2 	beq.w	8008600 <_svfiprintf_r+0x1c8>
 80084bc:	2300      	movs	r3, #0
 80084be:	f04f 32ff 	mov.w	r2, #4294967295	; 0xffffffff
 80084c2:	e9cd 2305 	strd	r2, r3, [sp, #20]
 80084c6:	f10a 0a01 	add.w	sl, sl, #1
 80084ca:	9304      	str	r3, [sp, #16]
 80084cc:	9307      	str	r3, [sp, #28]
 80084ce:	f88d 3053 	strb.w	r3, [sp, #83]	; 0x53
 80084d2:	931a      	str	r3, [sp, #104]	; 0x68
 80084d4:	4654      	mov	r4, sl
 80084d6:	2205      	movs	r2, #5
 80084d8:	f814 1b01 	ldrb.w	r1, [r4], #1
 80084dc:	4851      	ldr	r0, [pc, #324]	; (8008624 <_svfiprintf_r+0x1ec>)
 80084de:	f7f7 fe9f 	bl	8000220 <memchr>
 80084e2:	9a04      	ldr	r2, [sp, #16]
 80084e4:	b9d8      	cbnz	r0, 800851e <_svfiprintf_r+0xe6>
 80084e6:	06d0      	lsls	r0, r2, #27
 80084e8:	bf44      	itt	mi
 80084ea:	2320      	movmi	r3, #32
 80084ec:	f88d 3053 	strbmi.w	r3, [sp, #83]	; 0x53
 80084f0:	0711      	lsls	r1, r2, #28
 80084f2:	bf44      	itt	mi
 80084f4:	232b      	movmi	r3, #43	; 0x2b
 80084f6:	f88d 3053 	strbmi.w	r3, [sp, #83]	; 0x53
 80084fa:	f89a 3000 	ldrb.w	r3, [sl]
 80084fe:	2b2a      	cmp	r3, #42	; 0x2a
 8008500:	d015      	beq.n	800852e <_svfiprintf_r+0xf6>
 8008502:	9a07      	ldr	r2, [sp, #28]
 8008504:	4654      	mov	r4, sl
 8008506:	2000      	movs	r0, #0
 8008508:	f04f 0c0a 	mov.w	ip, #10
 800850c:	4621      	mov	r1, r4
 800850e:	f811 3b01 	ldrb.w	r3, [r1], #1
 8008512:	3b30      	subs	r3, #48	; 0x30
 8008514:	2b09      	cmp	r3, #9
 8008516:	d94e      	bls.n	80085b6 <_svfiprintf_r+0x17e>
 8008518:	b1b0      	cbz	r0, 8008548 <_svfiprintf_r+0x110>
 800851a:	9207      	str	r2, [sp, #28]
 800851c:	e014      	b.n	8008548 <_svfiprintf_r+0x110>
 800851e:	eba0 0308 	sub.w	r3, r0, r8
 8008522:	fa09 f303 	lsl.w	r3, r9, r3
 8008526:	4313      	orrs	r3, r2
 8008528:	9304      	str	r3, [sp, #16]
 800852a:	46a2      	mov	sl, r4
 800852c:	e7d2      	b.n	80084d4 <_svfiprintf_r+0x9c>
 800852e:	9b03      	ldr	r3, [sp, #12]
 8008530:	1d19      	adds	r1, r3, #4
 8008532:	681b      	ldr	r3, [r3, #0]
 8008534:	9103      	str	r1, [sp, #12]
 8008536:	2b00      	cmp	r3, #0
 8008538:	bfbb      	ittet	lt
 800853a:	425b      	neglt	r3, r3
 800853c:	f042 0202 	orrlt.w	r2, r2, #2
 8008540:	9307      	strge	r3, [sp, #28]
 8008542:	9307      	strlt	r3, [sp, #28]
 8008544:	bfb8      	it	lt
 8008546:	9204      	strlt	r2, [sp, #16]
 8008548:	7823      	ldrb	r3, [r4, #0]
 800854a:	2b2e      	cmp	r3, #46	; 0x2e
 800854c:	d10c      	bne.n	8008568 <_svfiprintf_r+0x130>
 800854e:	7863      	ldrb	r3, [r4, #1]
 8008550:	2b2a      	cmp	r3, #42	; 0x2a
 8008552:	d135      	bne.n	80085c0 <_svfiprintf_r+0x188>
 8008554:	9b03      	ldr	r3, [sp, #12]
 8008556:	1d1a      	adds	r2, r3, #4
 8008558:	681b      	ldr	r3, [r3, #0]
 800855a:	9203      	str	r2, [sp, #12]
 800855c:	2b00      	cmp	r3, #0
 800855e:	bfb8      	it	lt
 8008560:	f04f 33ff 	movlt.w	r3, #4294967295	; 0xffffffff
 8008564:	3402      	adds	r4, #2
 8008566:	9305      	str	r3, [sp, #20]
 8008568:	f8df a0c8 	ldr.w	sl, [pc, #200]	; 8008634 <_svfiprintf_r+0x1fc>
 800856c:	7821      	ldrb	r1, [r4, #0]
 800856e:	2203      	movs	r2, #3
 8008570:	4650      	mov	r0, sl
 8008572:	f7f7 fe55 	bl	8000220 <memchr>
 8008576:	b140      	cbz	r0, 800858a <_svfiprintf_r+0x152>
 8008578:	2340      	movs	r3, #64	; 0x40
 800857a:	eba0 000a 	sub.w	r0, r0, sl
 800857e:	fa03 f000 	lsl.w	r0, r3, r0
 8008582:	9b04      	ldr	r3, [sp, #16]
 8008584:	4303      	orrs	r3, r0
 8008586:	3401      	adds	r4, #1
 8008588:	9304      	str	r3, [sp, #16]
 800858a:	f814 1b01 	ldrb.w	r1, [r4], #1
 800858e:	4826      	ldr	r0, [pc, #152]	; (8008628 <_svfiprintf_r+0x1f0>)
 8008590:	f88d 1028 	strb.w	r1, [sp, #40]	; 0x28
 8008594:	2206      	movs	r2, #6
 8008596:	f7f7 fe43 	bl	8000220 <memchr>
 800859a:	2800      	cmp	r0, #0
 800859c:	d038      	beq.n	8008610 <_svfiprintf_r+0x1d8>
 800859e:	4b23      	ldr	r3, [pc, #140]	; (800862c <_svfiprintf_r+0x1f4>)
 80085a0:	bb1b      	cbnz	r3, 80085ea <_svfiprintf_r+0x1b2>
 80085a2:	9b03      	ldr	r3, [sp, #12]
 80085a4:	3307      	adds	r3, #7
 80085a6:	f023 0307 	bic.w	r3, r3, #7
 80085aa:	3308      	adds	r3, #8
 80085ac:	9303      	str	r3, [sp, #12]
 80085ae:	9b09      	ldr	r3, [sp, #36]	; 0x24
 80085b0:	4433      	add	r3, r6
 80085b2:	9309      	str	r3, [sp, #36]	; 0x24
 80085b4:	e767      	b.n	8008486 <_svfiprintf_r+0x4e>
 80085b6:	fb0c 3202 	mla	r2, ip, r2, r3
 80085ba:	460c      	mov	r4, r1
 80085bc:	2001      	movs	r0, #1
 80085be:	e7a5      	b.n	800850c <_svfiprintf_r+0xd4>
 80085c0:	2300      	movs	r3, #0
 80085c2:	3401      	adds	r4, #1
 80085c4:	9305      	str	r3, [sp, #20]
 80085c6:	4619      	mov	r1, r3
 80085c8:	f04f 0c0a 	mov.w	ip, #10
 80085cc:	4620      	mov	r0, r4
 80085ce:	f810 2b01 	ldrb.w	r2, [r0], #1
 80085d2:	3a30      	subs	r2, #48	; 0x30
 80085d4:	2a09      	cmp	r2, #9
 80085d6:	d903      	bls.n	80085e0 <_svfiprintf_r+0x1a8>
 80085d8:	2b00      	cmp	r3, #0
 80085da:	d0c5      	beq.n	8008568 <_svfiprintf_r+0x130>
 80085dc:	9105      	str	r1, [sp, #20]
 80085de:	e7c3      	b.n	8008568 <_svfiprintf_r+0x130>
 80085e0:	fb0c 2101 	mla	r1, ip, r1, r2
 80085e4:	4604      	mov	r4, r0
 80085e6:	2301      	movs	r3, #1
 80085e8:	e7f0      	b.n	80085cc <_svfiprintf_r+0x194>
 80085ea:	ab03      	add	r3, sp, #12
 80085ec:	9300      	str	r3, [sp, #0]
 80085ee:	462a      	mov	r2, r5
 80085f0:	4b0f      	ldr	r3, [pc, #60]	; (8008630 <_svfiprintf_r+0x1f8>)
 80085f2:	a904      	add	r1, sp, #16
 80085f4:	4638      	mov	r0, r7
 80085f6:	f3af 8000 	nop.w
 80085fa:	1c42      	adds	r2, r0, #1
 80085fc:	4606      	mov	r6, r0
 80085fe:	d1d6      	bne.n	80085ae <_svfiprintf_r+0x176>
 8008600:	89ab      	ldrh	r3, [r5, #12]
 8008602:	065b      	lsls	r3, r3, #25
 8008604:	f53f af2c 	bmi.w	8008460 <_svfiprintf_r+0x28>
 8008608:	9809      	ldr	r0, [sp, #36]	; 0x24
 800860a:	b01d      	add	sp, #116	; 0x74
 800860c:	e8bd 8ff0 	ldmia.w	sp!, {r4, r5, r6, r7, r8, r9, sl, fp, pc}
 8008610:	ab03      	add	r3, sp, #12
 8008612:	9300      	str	r3, [sp, #0]
 8008614:	462a      	mov	r2, r5
 8008616:	4b06      	ldr	r3, [pc, #24]	; (8008630 <_svfiprintf_r+0x1f8>)
 8008618:	a904      	add	r1, sp, #16
 800861a:	4638      	mov	r0, r7
 800861c:	f000 f87a 	bl	8008714 <_printf_i>
 8008620:	e7eb      	b.n	80085fa <_svfiprintf_r+0x1c2>
 8008622:	bf00      	nop
 8008624:	08008ccc 	.word	0x08008ccc
 8008628:	08008cd6 	.word	0x08008cd6
 800862c:	00000000 	.word	0x00000000
 8008630:	08008381 	.word	0x08008381
 8008634:	08008cd2 	.word	0x08008cd2

08008638 <_printf_common>:
 8008638:	e92d 47f0 	stmdb	sp!, {r4, r5, r6, r7, r8, r9, sl, lr}
 800863c:	4616      	mov	r6, r2
 800863e:	4699      	mov	r9, r3
 8008640:	688a      	ldr	r2, [r1, #8]
 8008642:	690b      	ldr	r3, [r1, #16]
 8008644:	f8dd 8020 	ldr.w	r8, [sp, #32]
 8008648:	4293      	cmp	r3, r2
 800864a:	bfb8      	it	lt
 800864c:	4613      	movlt	r3, r2
 800864e:	6033      	str	r3, [r6, #0]
 8008650:	f891 2043 	ldrb.w	r2, [r1, #67]	; 0x43
 8008654:	4607      	mov	r7, r0
 8008656:	460c      	mov	r4, r1
 8008658:	b10a      	cbz	r2, 800865e <_printf_common+0x26>
 800865a:	3301      	adds	r3, #1
 800865c:	6033      	str	r3, [r6, #0]
 800865e:	6823      	ldr	r3, [r4, #0]
 8008660:	0699      	lsls	r1, r3, #26
 8008662:	bf42      	ittt	mi
 8008664:	6833      	ldrmi	r3, [r6, #0]
 8008666:	3302      	addmi	r3, #2
 8008668:	6033      	strmi	r3, [r6, #0]
 800866a:	6825      	ldr	r5, [r4, #0]
 800866c:	f015 0506 	ands.w	r5, r5, #6
 8008670:	d106      	bne.n	8008680 <_printf_common+0x48>
 8008672:	f104 0a19 	add.w	sl, r4, #25
 8008676:	68e3      	ldr	r3, [r4, #12]
 8008678:	6832      	ldr	r2, [r6, #0]
 800867a:	1a9b      	subs	r3, r3, r2
 800867c:	42ab      	cmp	r3, r5
 800867e:	dc26      	bgt.n	80086ce <_printf_common+0x96>
 8008680:	f894 2043 	ldrb.w	r2, [r4, #67]	; 0x43
 8008684:	1e13      	subs	r3, r2, #0
 8008686:	6822      	ldr	r2, [r4, #0]
 8008688:	bf18      	it	ne
 800868a:	2301      	movne	r3, #1
 800868c:	0692      	lsls	r2, r2, #26
 800868e:	d42b      	bmi.n	80086e8 <_printf_common+0xb0>
 8008690:	f104 0243 	add.w	r2, r4, #67	; 0x43
 8008694:	4649      	mov	r1, r9
 8008696:	4638      	mov	r0, r7
 8008698:	47c0      	blx	r8
 800869a:	3001      	adds	r0, #1
 800869c:	d01e      	beq.n	80086dc <_printf_common+0xa4>
 800869e:	6823      	ldr	r3, [r4, #0]
 80086a0:	68e5      	ldr	r5, [r4, #12]
 80086a2:	6832      	ldr	r2, [r6, #0]
 80086a4:	f003 0306 	and.w	r3, r3, #6
 80086a8:	2b04      	cmp	r3, #4
 80086aa:	bf08      	it	eq
 80086ac:	1aad      	subeq	r5, r5, r2
 80086ae:	68a3      	ldr	r3, [r4, #8]
 80086b0:	6922      	ldr	r2, [r4, #16]
 80086b2:	bf0c      	ite	eq
 80086b4:	ea25 75e5 	biceq.w	r5, r5, r5, asr #31
 80086b8:	2500      	movne	r5, #0
 80086ba:	4293      	cmp	r3, r2
 80086bc:	bfc4      	itt	gt
 80086be:	1a9b      	subgt	r3, r3, r2
 80086c0:	18ed      	addgt	r5, r5, r3
 80086c2:	2600      	movs	r6, #0
 80086c4:	341a      	adds	r4, #26
 80086c6:	42b5      	cmp	r5, r6
 80086c8:	d11a      	bne.n	8008700 <_printf_common+0xc8>
 80086ca:	2000      	movs	r0, #0
 80086cc:	e008      	b.n	80086e0 <_printf_common+0xa8>
 80086ce:	2301      	movs	r3, #1
 80086d0:	4652      	mov	r2, sl
 80086d2:	4649      	mov	r1, r9
 80086d4:	4638      	mov	r0, r7
 80086d6:	47c0      	blx	r8
 80086d8:	3001      	adds	r0, #1
 80086da:	d103      	bne.n	80086e4 <_printf_common+0xac>
 80086dc:	f04f 30ff 	mov.w	r0, #4294967295	; 0xffffffff
 80086e0:	e8bd 87f0 	ldmia.w	sp!, {r4, r5, r6, r7, r8, r9, sl, pc}
 80086e4:	3501      	adds	r5, #1
 80086e6:	e7c6      	b.n	8008676 <_printf_common+0x3e>
 80086e8:	18e1      	adds	r1, r4, r3
 80086ea:	1c5a      	adds	r2, r3, #1
 80086ec:	2030      	movs	r0, #48	; 0x30
 80086ee:	f881 0043 	strb.w	r0, [r1, #67]	; 0x43
 80086f2:	4422      	add	r2, r4
 80086f4:	f894 1045 	ldrb.w	r1, [r4, #69]	; 0x45
 80086f8:	f882 1043 	strb.w	r1, [r2, #67]	; 0x43
 80086fc:	3302      	adds	r3, #2
 80086fe:	e7c7      	b.n	8008690 <_printf_common+0x58>
 8008700:	2301      	movs	r3, #1
 8008702:	4622      	mov	r2, r4
 8008704:	4649      	mov	r1, r9
 8008706:	4638      	mov	r0, r7
 8008708:	47c0      	blx	r8
 800870a:	3001      	adds	r0, #1
 800870c:	d0e6      	beq.n	80086dc <_printf_common+0xa4>
 800870e:	3601      	adds	r6, #1
 8008710:	e7d9      	b.n	80086c6 <_printf_common+0x8e>
	...

08008714 <_printf_i>:
 8008714:	e92d 47ff 	stmdb	sp!, {r0, r1, r2, r3, r4, r5, r6, r7, r8, r9, sl, lr}
 8008718:	7e0f      	ldrb	r7, [r1, #24]
 800871a:	9d0c      	ldr	r5, [sp, #48]	; 0x30
 800871c:	2f78      	cmp	r7, #120	; 0x78
 800871e:	4691      	mov	r9, r2
 8008720:	4680      	mov	r8, r0
 8008722:	460c      	mov	r4, r1
 8008724:	469a      	mov	sl, r3
 8008726:	f101 0243 	add.w	r2, r1, #67	; 0x43
 800872a:	d807      	bhi.n	800873c <_printf_i+0x28>
 800872c:	2f62      	cmp	r7, #98	; 0x62
 800872e:	d80a      	bhi.n	8008746 <_printf_i+0x32>
 8008730:	2f00      	cmp	r7, #0
 8008732:	f000 80d8 	beq.w	80088e6 <_printf_i+0x1d2>
 8008736:	2f58      	cmp	r7, #88	; 0x58
 8008738:	f000 80a3 	beq.w	8008882 <_printf_i+0x16e>
 800873c:	f104 0542 	add.w	r5, r4, #66	; 0x42
 8008740:	f884 7042 	strb.w	r7, [r4, #66]	; 0x42
 8008744:	e03a      	b.n	80087bc <_printf_i+0xa8>
 8008746:	f1a7 0363 	sub.w	r3, r7, #99	; 0x63
 800874a:	2b15      	cmp	r3, #21
 800874c:	d8f6      	bhi.n	800873c <_printf_i+0x28>
 800874e:	a101      	add	r1, pc, #4	; (adr r1, 8008754 <_printf_i+0x40>)
 8008750:	f851 f023 	ldr.w	pc, [r1, r3, lsl #2]
 8008754:	080087ad 	.word	0x080087ad
 8008758:	080087c1 	.word	0x080087c1
 800875c:	0800873d 	.word	0x0800873d
 8008760:	0800873d 	.word	0x0800873d
 8008764:	0800873d 	.word	0x0800873d
 8008768:	0800873d 	.word	0x0800873d
 800876c:	080087c1 	.word	0x080087c1
 8008770:	0800873d 	.word	0x0800873d
 8008774:	0800873d 	.word	0x0800873d
 8008778:	0800873d 	.word	0x0800873d
 800877c:	0800873d 	.word	0x0800873d
 8008780:	080088cd 	.word	0x080088cd
 8008784:	080087f1 	.word	0x080087f1
 8008788:	080088af 	.word	0x080088af
 800878c:	0800873d 	.word	0x0800873d
 8008790:	0800873d 	.word	0x0800873d
 8008794:	080088ef 	.word	0x080088ef
 8008798:	0800873d 	.word	0x0800873d
 800879c:	080087f1 	.word	0x080087f1
 80087a0:	0800873d 	.word	0x0800873d
 80087a4:	0800873d 	.word	0x0800873d
 80087a8:	080088b7 	.word	0x080088b7
 80087ac:	682b      	ldr	r3, [r5, #0]
 80087ae:	1d1a      	adds	r2, r3, #4
 80087b0:	681b      	ldr	r3, [r3, #0]
 80087b2:	602a      	str	r2, [r5, #0]
 80087b4:	f104 0542 	add.w	r5, r4, #66	; 0x42
 80087b8:	f884 3042 	strb.w	r3, [r4, #66]	; 0x42
 80087bc:	2301      	movs	r3, #1
 80087be:	e0a3      	b.n	8008908 <_printf_i+0x1f4>
 80087c0:	6820      	ldr	r0, [r4, #0]
 80087c2:	6829      	ldr	r1, [r5, #0]
 80087c4:	0606      	lsls	r6, r0, #24
 80087c6:	f101 0304 	add.w	r3, r1, #4
 80087ca:	d50a      	bpl.n	80087e2 <_printf_i+0xce>
 80087cc:	680e      	ldr	r6, [r1, #0]
 80087ce:	602b      	str	r3, [r5, #0]
 80087d0:	2e00      	cmp	r6, #0
 80087d2:	da03      	bge.n	80087dc <_printf_i+0xc8>
 80087d4:	232d      	movs	r3, #45	; 0x2d
 80087d6:	4276      	negs	r6, r6
 80087d8:	f884 3043 	strb.w	r3, [r4, #67]	; 0x43
 80087dc:	485e      	ldr	r0, [pc, #376]	; (8008958 <_printf_i+0x244>)
 80087de:	230a      	movs	r3, #10
 80087e0:	e019      	b.n	8008816 <_printf_i+0x102>
 80087e2:	680e      	ldr	r6, [r1, #0]
 80087e4:	602b      	str	r3, [r5, #0]
 80087e6:	f010 0f40 	tst.w	r0, #64	; 0x40
 80087ea:	bf18      	it	ne
 80087ec:	b236      	sxthne	r6, r6
 80087ee:	e7ef      	b.n	80087d0 <_printf_i+0xbc>
 80087f0:	682b      	ldr	r3, [r5, #0]
 80087f2:	6820      	ldr	r0, [r4, #0]
 80087f4:	1d19      	adds	r1, r3, #4
 80087f6:	6029      	str	r1, [r5, #0]
 80087f8:	0601      	lsls	r1, r0, #24
 80087fa:	d501      	bpl.n	8008800 <_printf_i+0xec>
 80087fc:	681e      	ldr	r6, [r3, #0]
 80087fe:	e002      	b.n	8008806 <_printf_i+0xf2>
 8008800:	0646      	lsls	r6, r0, #25
 8008802:	d5fb      	bpl.n	80087fc <_printf_i+0xe8>
 8008804:	881e      	ldrh	r6, [r3, #0]
 8008806:	4854      	ldr	r0, [pc, #336]	; (8008958 <_printf_i+0x244>)
 8008808:	2f6f      	cmp	r7, #111	; 0x6f
 800880a:	bf0c      	ite	eq
 800880c:	2308      	moveq	r3, #8
 800880e:	230a      	movne	r3, #10
 8008810:	2100      	movs	r1, #0
 8008812:	f884 1043 	strb.w	r1, [r4, #67]	; 0x43
 8008816:	6865      	ldr	r5, [r4, #4]
 8008818:	60a5      	str	r5, [r4, #8]
 800881a:	2d00      	cmp	r5, #0
 800881c:	bfa2      	ittt	ge
 800881e:	6821      	ldrge	r1, [r4, #0]
 8008820:	f021 0104 	bicge.w	r1, r1, #4
 8008824:	6021      	strge	r1, [r4, #0]
 8008826:	b90e      	cbnz	r6, 800882c <_printf_i+0x118>
 8008828:	2d00      	cmp	r5, #0
 800882a:	d04d      	beq.n	80088c8 <_printf_i+0x1b4>
 800882c:	4615      	mov	r5, r2
 800882e:	fbb6 f1f3 	udiv	r1, r6, r3
 8008832:	fb03 6711 	mls	r7, r3, r1, r6
 8008836:	5dc7      	ldrb	r7, [r0, r7]
 8008838:	f805 7d01 	strb.w	r7, [r5, #-1]!
 800883c:	4637      	mov	r7, r6
 800883e:	42bb      	cmp	r3, r7
 8008840:	460e      	mov	r6, r1
 8008842:	d9f4      	bls.n	800882e <_printf_i+0x11a>
 8008844:	2b08      	cmp	r3, #8
 8008846:	d10b      	bne.n	8008860 <_printf_i+0x14c>
 8008848:	6823      	ldr	r3, [r4, #0]
 800884a:	07de      	lsls	r6, r3, #31
 800884c:	d508      	bpl.n	8008860 <_printf_i+0x14c>
 800884e:	6923      	ldr	r3, [r4, #16]
 8008850:	6861      	ldr	r1, [r4, #4]
 8008852:	4299      	cmp	r1, r3
 8008854:	bfde      	ittt	le
 8008856:	2330      	movle	r3, #48	; 0x30
 8008858:	f805 3c01 	strble.w	r3, [r5, #-1]
 800885c:	f105 35ff 	addle.w	r5, r5, #4294967295	; 0xffffffff
 8008860:	1b52      	subs	r2, r2, r5
 8008862:	6122      	str	r2, [r4, #16]
 8008864:	f8cd a000 	str.w	sl, [sp]
 8008868:	464b      	mov	r3, r9
 800886a:	aa03      	add	r2, sp, #12
 800886c:	4621      	mov	r1, r4
 800886e:	4640      	mov	r0, r8
 8008870:	f7ff fee2 	bl	8008638 <_printf_common>
 8008874:	3001      	adds	r0, #1
 8008876:	d14c      	bne.n	8008912 <_printf_i+0x1fe>
 8008878:	f04f 30ff 	mov.w	r0, #4294967295	; 0xffffffff
 800887c:	b004      	add	sp, #16
 800887e:	e8bd 87f0 	ldmia.w	sp!, {r4, r5, r6, r7, r8, r9, sl, pc}
 8008882:	4835      	ldr	r0, [pc, #212]	; (8008958 <_printf_i+0x244>)
 8008884:	f881 7045 	strb.w	r7, [r1, #69]	; 0x45
 8008888:	6829      	ldr	r1, [r5, #0]
 800888a:	6823      	ldr	r3, [r4, #0]
 800888c:	f851 6b04 	ldr.w	r6, [r1], #4
 8008890:	6029      	str	r1, [r5, #0]
 8008892:	061d      	lsls	r5, r3, #24
 8008894:	d514      	bpl.n	80088c0 <_printf_i+0x1ac>
 8008896:	07df      	lsls	r7, r3, #31
 8008898:	bf44      	itt	mi
 800889a:	f043 0320 	orrmi.w	r3, r3, #32
 800889e:	6023      	strmi	r3, [r4, #0]
 80088a0:	b91e      	cbnz	r6, 80088aa <_printf_i+0x196>
 80088a2:	6823      	ldr	r3, [r4, #0]
 80088a4:	f023 0320 	bic.w	r3, r3, #32
 80088a8:	6023      	str	r3, [r4, #0]
 80088aa:	2310      	movs	r3, #16
 80088ac:	e7b0      	b.n	8008810 <_printf_i+0xfc>
 80088ae:	6823      	ldr	r3, [r4, #0]
 80088b0:	f043 0320 	orr.w	r3, r3, #32
 80088b4:	6023      	str	r3, [r4, #0]
 80088b6:	2378      	movs	r3, #120	; 0x78
 80088b8:	4828      	ldr	r0, [pc, #160]	; (800895c <_printf_i+0x248>)
 80088ba:	f884 3045 	strb.w	r3, [r4, #69]	; 0x45
 80088be:	e7e3      	b.n	8008888 <_printf_i+0x174>
 80088c0:	0659      	lsls	r1, r3, #25
 80088c2:	bf48      	it	mi
 80088c4:	b2b6      	uxthmi	r6, r6
 80088c6:	e7e6      	b.n	8008896 <_printf_i+0x182>
 80088c8:	4615      	mov	r5, r2
 80088ca:	e7bb      	b.n	8008844 <_printf_i+0x130>
 80088cc:	682b      	ldr	r3, [r5, #0]
 80088ce:	6826      	ldr	r6, [r4, #0]
 80088d0:	6961      	ldr	r1, [r4, #20]
 80088d2:	1d18      	adds	r0, r3, #4
 80088d4:	6028      	str	r0, [r5, #0]
 80088d6:	0635      	lsls	r5, r6, #24
 80088d8:	681b      	ldr	r3, [r3, #0]
 80088da:	d501      	bpl.n	80088e0 <_printf_i+0x1cc>
 80088dc:	6019      	str	r1, [r3, #0]
 80088de:	e002      	b.n	80088e6 <_printf_i+0x1d2>
 80088e0:	0670      	lsls	r0, r6, #25
 80088e2:	d5fb      	bpl.n	80088dc <_printf_i+0x1c8>
 80088e4:	8019      	strh	r1, [r3, #0]
 80088e6:	2300      	movs	r3, #0
 80088e8:	6123      	str	r3, [r4, #16]
 80088ea:	4615      	mov	r5, r2
 80088ec:	e7ba      	b.n	8008864 <_printf_i+0x150>
 80088ee:	682b      	ldr	r3, [r5, #0]
 80088f0:	1d1a      	adds	r2, r3, #4
 80088f2:	602a      	str	r2, [r5, #0]
 80088f4:	681d      	ldr	r5, [r3, #0]
 80088f6:	6862      	ldr	r2, [r4, #4]
 80088f8:	2100      	movs	r1, #0
 80088fa:	4628      	mov	r0, r5
 80088fc:	f7f7 fc90 	bl	8000220 <memchr>
 8008900:	b108      	cbz	r0, 8008906 <_printf_i+0x1f2>
 8008902:	1b40      	subs	r0, r0, r5
 8008904:	6060      	str	r0, [r4, #4]
 8008906:	6863      	ldr	r3, [r4, #4]
 8008908:	6123      	str	r3, [r4, #16]
 800890a:	2300      	movs	r3, #0
 800890c:	f884 3043 	strb.w	r3, [r4, #67]	; 0x43
 8008910:	e7a8      	b.n	8008864 <_printf_i+0x150>
 8008912:	6923      	ldr	r3, [r4, #16]
 8008914:	462a      	mov	r2, r5
 8008916:	4649      	mov	r1, r9
 8008918:	4640      	mov	r0, r8
 800891a:	47d0      	blx	sl
 800891c:	3001      	adds	r0, #1
 800891e:	d0ab      	beq.n	8008878 <_printf_i+0x164>
 8008920:	6823      	ldr	r3, [r4, #0]
 8008922:	079b      	lsls	r3, r3, #30
 8008924:	d413      	bmi.n	800894e <_printf_i+0x23a>
 8008926:	68e0      	ldr	r0, [r4, #12]
 8008928:	9b03      	ldr	r3, [sp, #12]
 800892a:	4298      	cmp	r0, r3
 800892c:	bfb8      	it	lt
 800892e:	4618      	movlt	r0, r3
 8008930:	e7a4      	b.n	800887c <_printf_i+0x168>
 8008932:	2301      	movs	r3, #1
 8008934:	4632      	mov	r2, r6
 8008936:	4649      	mov	r1, r9
 8008938:	4640      	mov	r0, r8
 800893a:	47d0      	blx	sl
 800893c:	3001      	adds	r0, #1
 800893e:	d09b      	beq.n	8008878 <_printf_i+0x164>
 8008940:	3501      	adds	r5, #1
 8008942:	68e3      	ldr	r3, [r4, #12]
 8008944:	9903      	ldr	r1, [sp, #12]
 8008946:	1a5b      	subs	r3, r3, r1
 8008948:	42ab      	cmp	r3, r5
 800894a:	dcf2      	bgt.n	8008932 <_printf_i+0x21e>
 800894c:	e7eb      	b.n	8008926 <_printf_i+0x212>
 800894e:	2500      	movs	r5, #0
 8008950:	f104 0619 	add.w	r6, r4, #25
 8008954:	e7f5      	b.n	8008942 <_printf_i+0x22e>
 8008956:	bf00      	nop
 8008958:	08008cdd 	.word	0x08008cdd
 800895c:	08008cee 	.word	0x08008cee

08008960 <_sbrk_r>:
 8008960:	b538      	push	{r3, r4, r5, lr}
 8008962:	4d06      	ldr	r5, [pc, #24]	; (800897c <_sbrk_r+0x1c>)
 8008964:	2300      	movs	r3, #0
 8008966:	4604      	mov	r4, r0
 8008968:	4608      	mov	r0, r1
 800896a:	602b      	str	r3, [r5, #0]
 800896c:	f7f9 ff2a 	bl	80027c4 <_sbrk>
 8008970:	1c43      	adds	r3, r0, #1
 8008972:	d102      	bne.n	800897a <_sbrk_r+0x1a>
 8008974:	682b      	ldr	r3, [r5, #0]
 8008976:	b103      	cbz	r3, 800897a <_sbrk_r+0x1a>
 8008978:	6023      	str	r3, [r4, #0]
 800897a:	bd38      	pop	{r3, r4, r5, pc}
 800897c:	2000f7bc 	.word	0x2000f7bc

08008980 <memmove>:
 8008980:	4288      	cmp	r0, r1
 8008982:	b510      	push	{r4, lr}
 8008984:	eb01 0402 	add.w	r4, r1, r2
 8008988:	d902      	bls.n	8008990 <memmove+0x10>
 800898a:	4284      	cmp	r4, r0
 800898c:	4623      	mov	r3, r4
 800898e:	d807      	bhi.n	80089a0 <memmove+0x20>
 8008990:	1e43      	subs	r3, r0, #1
 8008992:	42a1      	cmp	r1, r4
 8008994:	d008      	beq.n	80089a8 <memmove+0x28>
 8008996:	f811 2b01 	ldrb.w	r2, [r1], #1
 800899a:	f803 2f01 	strb.w	r2, [r3, #1]!
 800899e:	e7f8      	b.n	8008992 <memmove+0x12>
 80089a0:	4402      	add	r2, r0
 80089a2:	4601      	mov	r1, r0
 80089a4:	428a      	cmp	r2, r1
 80089a6:	d100      	bne.n	80089aa <memmove+0x2a>
 80089a8:	bd10      	pop	{r4, pc}
 80089aa:	f813 4d01 	ldrb.w	r4, [r3, #-1]!
 80089ae:	f802 4d01 	strb.w	r4, [r2, #-1]!
 80089b2:	e7f7      	b.n	80089a4 <memmove+0x24>

080089b4 <__malloc_lock>:
 80089b4:	4801      	ldr	r0, [pc, #4]	; (80089bc <__malloc_lock+0x8>)
 80089b6:	f000 b884 	b.w	8008ac2 <__retarget_lock_acquire_recursive>
 80089ba:	bf00      	nop
 80089bc:	2000f7c0 	.word	0x2000f7c0

080089c0 <__malloc_unlock>:
 80089c0:	4801      	ldr	r0, [pc, #4]	; (80089c8 <__malloc_unlock+0x8>)
 80089c2:	f000 b87f 	b.w	8008ac4 <__retarget_lock_release_recursive>
 80089c6:	bf00      	nop
 80089c8:	2000f7c0 	.word	0x2000f7c0

080089cc <_free_r>:
 80089cc:	b537      	push	{r0, r1, r2, r4, r5, lr}
 80089ce:	2900      	cmp	r1, #0
 80089d0:	d044      	beq.n	8008a5c <_free_r+0x90>
 80089d2:	f851 3c04 	ldr.w	r3, [r1, #-4]
 80089d6:	9001      	str	r0, [sp, #4]
 80089d8:	2b00      	cmp	r3, #0
 80089da:	f1a1 0404 	sub.w	r4, r1, #4
 80089de:	bfb8      	it	lt
 80089e0:	18e4      	addlt	r4, r4, r3
 80089e2:	f7ff ffe7 	bl	80089b4 <__malloc_lock>
 80089e6:	4a1e      	ldr	r2, [pc, #120]	; (8008a60 <_free_r+0x94>)
 80089e8:	9801      	ldr	r0, [sp, #4]
 80089ea:	6813      	ldr	r3, [r2, #0]
 80089ec:	b933      	cbnz	r3, 80089fc <_free_r+0x30>
 80089ee:	6063      	str	r3, [r4, #4]
 80089f0:	6014      	str	r4, [r2, #0]
 80089f2:	b003      	add	sp, #12
 80089f4:	e8bd 4030 	ldmia.w	sp!, {r4, r5, lr}
 80089f8:	f7ff bfe2 	b.w	80089c0 <__malloc_unlock>
 80089fc:	42a3      	cmp	r3, r4
 80089fe:	d908      	bls.n	8008a12 <_free_r+0x46>
 8008a00:	6825      	ldr	r5, [r4, #0]
 8008a02:	1961      	adds	r1, r4, r5
 8008a04:	428b      	cmp	r3, r1
 8008a06:	bf01      	itttt	eq
 8008a08:	6819      	ldreq	r1, [r3, #0]
 8008a0a:	685b      	ldreq	r3, [r3, #4]
 8008a0c:	1949      	addeq	r1, r1, r5
 8008a0e:	6021      	streq	r1, [r4, #0]
 8008a10:	e7ed      	b.n	80089ee <_free_r+0x22>
 8008a12:	461a      	mov	r2, r3
 8008a14:	685b      	ldr	r3, [r3, #4]
 8008a16:	b10b      	cbz	r3, 8008a1c <_free_r+0x50>
 8008a18:	42a3      	cmp	r3, r4
 8008a1a:	d9fa      	bls.n	8008a12 <_free_r+0x46>
 8008a1c:	6811      	ldr	r1, [r2, #0]
 8008a1e:	1855      	adds	r5, r2, r1
 8008a20:	42a5      	cmp	r5, r4
 8008a22:	d10b      	bne.n	8008a3c <_free_r+0x70>
 8008a24:	6824      	ldr	r4, [r4, #0]
 8008a26:	4421      	add	r1, r4
 8008a28:	1854      	adds	r4, r2, r1
 8008a2a:	42a3      	cmp	r3, r4
 8008a2c:	6011      	str	r1, [r2, #0]
 8008a2e:	d1e0      	bne.n	80089f2 <_free_r+0x26>
 8008a30:	681c      	ldr	r4, [r3, #0]
 8008a32:	685b      	ldr	r3, [r3, #4]
 8008a34:	6053      	str	r3, [r2, #4]
 8008a36:	4421      	add	r1, r4
 8008a38:	6011      	str	r1, [r2, #0]
 8008a3a:	e7da      	b.n	80089f2 <_free_r+0x26>
 8008a3c:	d902      	bls.n	8008a44 <_free_r+0x78>
 8008a3e:	230c      	movs	r3, #12
 8008a40:	6003      	str	r3, [r0, #0]
 8008a42:	e7d6      	b.n	80089f2 <_free_r+0x26>
 8008a44:	6825      	ldr	r5, [r4, #0]
 8008a46:	1961      	adds	r1, r4, r5
 8008a48:	428b      	cmp	r3, r1
 8008a4a:	bf04      	itt	eq
 8008a4c:	6819      	ldreq	r1, [r3, #0]
 8008a4e:	685b      	ldreq	r3, [r3, #4]
 8008a50:	6063      	str	r3, [r4, #4]
 8008a52:	bf04      	itt	eq
 8008a54:	1949      	addeq	r1, r1, r5
 8008a56:	6021      	streq	r1, [r4, #0]
 8008a58:	6054      	str	r4, [r2, #4]
 8008a5a:	e7ca      	b.n	80089f2 <_free_r+0x26>
 8008a5c:	b003      	add	sp, #12
 8008a5e:	bd30      	pop	{r4, r5, pc}
 8008a60:	2000f7b4 	.word	0x2000f7b4

08008a64 <_realloc_r>:
 8008a64:	e92d 41f0 	stmdb	sp!, {r4, r5, r6, r7, r8, lr}
 8008a68:	4680      	mov	r8, r0
 8008a6a:	4614      	mov	r4, r2
 8008a6c:	460e      	mov	r6, r1
 8008a6e:	b921      	cbnz	r1, 8008a7a <_realloc_r+0x16>
 8008a70:	e8bd 41f0 	ldmia.w	sp!, {r4, r5, r6, r7, r8, lr}
 8008a74:	4611      	mov	r1, r2
 8008a76:	f7ff bc0f 	b.w	8008298 <_malloc_r>
 8008a7a:	b92a      	cbnz	r2, 8008a88 <_realloc_r+0x24>
 8008a7c:	f7ff ffa6 	bl	80089cc <_free_r>
 8008a80:	4625      	mov	r5, r4
 8008a82:	4628      	mov	r0, r5
 8008a84:	e8bd 81f0 	ldmia.w	sp!, {r4, r5, r6, r7, r8, pc}
 8008a88:	f000 f81d 	bl	8008ac6 <_malloc_usable_size_r>
 8008a8c:	4284      	cmp	r4, r0
 8008a8e:	4607      	mov	r7, r0
 8008a90:	d802      	bhi.n	8008a98 <_realloc_r+0x34>
 8008a92:	ebb4 0f50 	cmp.w	r4, r0, lsr #1
 8008a96:	d812      	bhi.n	8008abe <_realloc_r+0x5a>
 8008a98:	4621      	mov	r1, r4
 8008a9a:	4640      	mov	r0, r8
 8008a9c:	f7ff fbfc 	bl	8008298 <_malloc_r>
 8008aa0:	4605      	mov	r5, r0
 8008aa2:	2800      	cmp	r0, #0
 8008aa4:	d0ed      	beq.n	8008a82 <_realloc_r+0x1e>
 8008aa6:	42bc      	cmp	r4, r7
 8008aa8:	4622      	mov	r2, r4
 8008aaa:	4631      	mov	r1, r6
 8008aac:	bf28      	it	cs
 8008aae:	463a      	movcs	r2, r7
 8008ab0:	f7ff fb3c 	bl	800812c <memcpy>
 8008ab4:	4631      	mov	r1, r6
 8008ab6:	4640      	mov	r0, r8
 8008ab8:	f7ff ff88 	bl	80089cc <_free_r>
 8008abc:	e7e1      	b.n	8008a82 <_realloc_r+0x1e>
 8008abe:	4635      	mov	r5, r6
 8008ac0:	e7df      	b.n	8008a82 <_realloc_r+0x1e>

08008ac2 <__retarget_lock_acquire_recursive>:
 8008ac2:	4770      	bx	lr

08008ac4 <__retarget_lock_release_recursive>:
 8008ac4:	4770      	bx	lr

08008ac6 <_malloc_usable_size_r>:
 8008ac6:	f851 3c04 	ldr.w	r3, [r1, #-4]
 8008aca:	1f18      	subs	r0, r3, #4
 8008acc:	2b00      	cmp	r3, #0
 8008ace:	bfbc      	itt	lt
 8008ad0:	580b      	ldrlt	r3, [r1, r0]
 8008ad2:	18c0      	addlt	r0, r0, r3
 8008ad4:	4770      	bx	lr
	...

08008ad8 <_init>:
 8008ad8:	b5f8      	push	{r3, r4, r5, r6, r7, lr}
 8008ada:	bf00      	nop
 8008adc:	bcf8      	pop	{r3, r4, r5, r6, r7}
 8008ade:	bc08      	pop	{r3}
 8008ae0:	469e      	mov	lr, r3
 8008ae2:	4770      	bx	lr

08008ae4 <_fini>:
 8008ae4:	b5f8      	push	{r3, r4, r5, r6, r7, lr}
 8008ae6:	bf00      	nop
 8008ae8:	bcf8      	pop	{r3, r4, r5, r6, r7}
 8008aea:	bc08      	pop	{r3}
 8008aec:	469e      	mov	lr, r3
 8008aee:	4770      	bx	lr
